(lp0
(lp1
(lp2
(lp3
F-2.5
aF0.0
aF0.6838277139631803
aF1.0
aF0.0
aF0.0
aF0.0
aF0.17905666752078864
aF0.9253512562075908
aF-0.8776870832724601
aF0.11147422537786231
aF-0.15843632504615043
aF1.150049183494211
aF-0.1704998924604114
aF0.6859376445755911
aF-1.1831277202117043
aF0.06262698472369518
aF-0.42708925470675
aF1.2855999319965081
aa(lp4
S'rfleg'
p5
aS'lhleg'
p6
aS'rhleg'
p7
aS'lfleg'
p8
aaa(lp9
(lp10
F-2.4969985663356162
aF-0.00030614268191207533
aF0.6557527028515037
aF0.9999487910644073
aF-0.004434425092785823
aF0.006867149600743576
aF-0.005966018713332987
aF0.17720155772295387
aF1.0320997996374934
aF-1.0558119753684096
aF0.12962586378325028
aF-0.8178813893104311
aF1.2912825892909925
aF-0.1633785929561007
aF0.7510749479340552
aF-1.3364677333612978
aF0.06433817578818145
aF-0.48074000050480625
aF1.3821971900194463
aa(lp11
g5
ag6
ag7
ag8
aaa(lp12
(lp13
F-2.4484131295091864
aF0.005632878857042455
aF0.6514260672921999
aF0.9996127455157411
aF0.000884369957612276
aF-0.024234222230756
aF-0.013648419876693808
aF0.19862589989420207
aF0.9940433262724471
aF-0.7460279509008992
aF0.16508423861958513
aF-0.7257224639364883
aF1.4235491745306734
aF-0.17553679638405525
aF0.8379124066099506
aF-1.2255652733184101
aF-0.09237676131956463
aF-0.8105733085364888
aF1.4340180526673316
aa(lp14
g5
ag6
ag7
ag8
aaa(lp15
(lp16
F-2.419832185715474
aF-0.04850840009206779
aF0.6596532152986574
aF0.9990480294242853
aF-0.011920856040615307
aF-0.03056486694953549
aF-0.028752686884332447
aF-0.26969680321653045
aF0.4063352017220603
aF-1.3502090379113423
aF0.07194718581824493
aF-0.6610172738715313
aF1.4590443886810793
aF-0.05457179477245551
aF0.8487883155944014
aF-1.1491362632858746
aF0.004556414738933719
aF-0.7424407560518869
aF1.420764905390773
aa(lp17
g5
ag6
ag7
ag8
aaa(lp18
(lp19
F-2.313845935373504
aF-0.018069931944422024
aF0.6710222977498445
aF0.9971261245157161
aF-0.046714645605953654
aF-0.059559199835692064
aF0.0031520483991725585
aF-0.22891299145142377
aF0.6629081082534751
aF-1.425811981814845
aF-0.459301102303657
aF-0.8215463583958517
aF1.27903814259182
aF-0.04901230285628463
aF0.7663291437006364
aF-0.5407132415832097
aF0.06384489013755275
aF-0.4325367138108811
aF1.3829449515158874
aa(lp20
g5
ag6
ag7
ag8
aaa(lp21
(lp22
F-2.225156787813018
aF0.02227732421249557
aF0.6839808345941343
aF0.9992094848368421
aF-0.03240269390230108
aF-0.0188423640229509
aF-0.01324523151903655
aF-0.1598897397773129
aF0.8060047283217785
aF-1.5180485306277665
aF-0.3373472240186313
aF-0.6984801447422876
aF1.230242480284007
aF-0.033086262049394924
aF0.04776404259286111
aF-1.2730492949678989
aF-0.05377294137347325
aF-0.27116657542958805
aF1.120665055975753
aa(lp23
g5
ag6
ag7
ag8
aaa(lp24
(lp25
F-2.122586299921454
aF0.03401401865061554
aF0.6993800516927811
aF0.9970787635434913
aF-0.07064324645480367
aF0.016096363797840553
aF-0.024173913489458142
aF-0.11043760345205147
aF0.6264236162005024
aF-1.8064376465994039
aF-0.3728057758248041
aF-0.5438884560145062
aF1.1544032510847972
aF0.04117757747382017
aF0.22753254155278924
aF-1.4660769485276848
aF-0.007987257032689158
aF0.07609837097501307
aF0.5073567726437284
aa(lp26
g5
ag6
ag7
ag8
aaa(lp27
(lp28
F-2.013152889053879
aF0.06519486381041203
aF0.7147723501142136
aF0.9962045104962236
aF-0.03879371107199708
aF-0.031235304844174222
aF-0.07138611195136846
aF-0.03504648271971161
aF0.9221988023742491
aF-1.6037981125245457
aF-0.17817099240678314
aF-0.18256638313303672
aF1.1193932756545788
aF0.00027545505869269304
aF0.506952706398549
aF-1.464635687457239
aF0.26531148525950987
aF-0.5471301125912497
aF1.0425600813315519
aa(lp29
g5
ag6
ag7
ag8
aaa(lp30
(lp31
F-1.9307836666339464
aF0.09264624091201526
aF0.7310896551314313
aF0.9964425453171412
aF-0.020930775433188015
aF-0.007427915576653633
aF-0.08129564927995003
aF0.05496032376157743
aF0.991888581134041
aF-1.5376559810413302
aF-0.06059308869489813
aF0.06488220674515445
aF0.7144709058054548
aF-0.10682775136285215
aF0.013426116557018938
aF-1.4568977011996158
aF0.16082446280115992
aF-0.42486529141445556
aF0.9345799306120137
aa(lp32
g5
ag6
ag7
ag8
aaa(lp33
(lp34
F-1.8371660544641186
aF0.07994550160241169
aF0.7489562693325754
aF0.9940673951761102
aF-0.09047423186832546
aF-0.05999298858717461
aF-0.006728189652407926
aF-0.03558240126263508
aF1.1133318755222417
aF-1.3076977777185932
aF-0.24690553404850848
aF-1.0439549392689704
aF1.0916131830896285
aF-0.11194861962902153
aF0.4311587131059519
aF-1.405400608405731
aF0.40533665634503474
aF-0.028994923366487527
aF0.6905095596179561
aa(lp35
g5
ag6
ag7
ag8
aaa(lp36
(lp37
F-1.7880529754735075
aF0.07120306801857175
aF0.761044520496229
aF0.9940506672368913
aF-0.08555078567458888
aF-0.042212685614329726
aF-0.052558759589413175
aF-0.06674156033281971
aF0.5985132947211499
aF-1.7930164673444358
aF-0.23380984472932054
aF-0.9912239622350538
aF1.1714977063216139
aF-0.027871156268432836
aF0.4718964275787273
aF-1.498074433641765
aF0.32705216932173
aF0.09982061388624029
aF0.4933884810531935
aa(lp38
g5
ag6
ag7
ag8
aaa(lp39
(lp40
F-1.6797627482230528
aF0.10445167974487798
aF0.7730891845431631
aF0.9918022976216421
aF-0.0795790095229689
aF-0.057181195347410674
aF-0.0820103321198969
aF-0.017269513325377635
aF0.9000888284941255
aF-1.7903068885390416
aF-0.12714695886714927
aF-0.8650402896554182
aF1.3873734296601963
aF-0.06682792712659005
aF0.6782917611340501
aF-1.4997561733843816
aF0.2539829810399187
aF-0.7929793640788063
aF0.7954027230991445
aa(lp41
g5
ag6
ag7
ag8
aaa(lp42
(lp43
F-1.599386136764454
aF0.05431785842024583
aF0.7907786915700274
aF0.9924862421868845
aF-0.07104706815278422
aF-0.0732905049788559
aF-0.06746758522872034
aF-0.05287720379973989
aF1.0654064581377616
aF-1.6886444882018603
aF-0.09473016214434113
aF-0.9650567607070629
aF1.4072154457740862
aF-0.03762483433607326
aF0.8772883637242271
aF-1.4578955713460622
aF0.2983201724411241
aF-0.7309897643790377
aF1.0069441960519097
aa(lp44
g5
ag6
ag7
ag8
aaa(lp45
(lp46
F-1.5034225625490192
aF0.037279765526831134
aF0.8253083764292991
aF0.9876272459471315
aF-0.09757703768217754
aF-0.10868304717773025
aF-0.05708887839341849
aF-0.14617268758078114
aF0.7877779292217172
aF-1.7193616767896058
aF-0.17050810577297518
aF-0.7711003990895414
aF1.5551847838600046
aF0.01761906865229755
aF0.9257488568575325
aF-1.0670914609764186
aF0.3655534000659599
aF-0.5132938627543997
aF1.06836306073806
aa(lp47
g5
ag6
ag7
ag8
aaa(lp48
(lp49
F-1.3816993160519924
aF0.05567809547336847
aF0.8519053638336804
aF0.9930094305653862
aF-0.08428824290687821
aF-0.06676340372357031
aF-0.04868686516014566
aF-0.05627268301749331
aF0.9875762493597825
aF-1.792666195646284
aF-0.10411979938979361
aF-0.5434813310453843
aF1.3393730800170265
aF-0.038033393367067334
aF0.5911742150391253
aF-1.68105877560062
aF0.2976499422458192
aF-0.2982593902941306
aF0.8449913700982322
aa(lp50
g5
ag6
ag7
ag8
aaa(lp51
(lp52
F-1.3202943707586947
aF0.0562384958461874
aF0.8637451349775953
aF0.9902181663727739
aF-0.0658481378191428
aF-0.09254917737947968
aF-0.08103490295838134
aF-0.04361652256145291
aF1.1164877921206007
aF-1.6318234428183693
aF-0.0014859822896085687
aF-0.32750186683921234
aF1.2953910828983441
aF-0.025707144425028316
aF0.7394446721380461
aF-1.6714011394207426
aF0.35753884581353745
aF-0.8935537661059839
aF0.9290972858784956
aa(lp53
g5
ag6
ag7
ag8
aaa(lp54
(lp55
F-1.2593335201531002
aF0.023601923437428632
aF0.8855568922983891
aF0.9895868529905074
aF-0.0520591853984772
aF-0.09909746598506501
aF-0.0904842187308361
aF-0.10530608757080394
aF0.9092009631554537
aF-1.7169700005135977
aF0.008773900396001968
aF-0.11621654661181982
aF1.1199971396239599
aF0.0051880263604291476
aF0.8820656811006999
aF-1.6626309028907336
aF0.3597591022333278
aF-0.8410417136693985
aF1.0582234035986988
aa(lp56
g5
ag6
ag7
ag8
aaa(lp57
(lp58
F-1.1627156692398972
aF0.03535803722567158
aF0.9070708207650993
aF0.9892344458168699
aF-0.047533085011387644
aF-0.08002279507042136
aF-0.11292550335423568
aF-0.07427851582229787
aF1.0844938405138533
aF-1.6998938061671705
aF0.09953714388779
aF0.19045967024844698
aF0.667598096290558
aF0.020747283567395546
aF0.9366771125489528
aF-1.7366013616148186
aF0.29413440142617975
aF-0.7710208781042274
aF1.1456436975933646
aa(lp59
g5
ag6
ag7
ag8
aaa(lp60
(lp61
F-1.1191807700101464
aF0.03881872976921067
aF0.916333178569028
aF0.9888701515759527
aF-0.09295607729365614
aF-0.10634753930701225
aF-0.0467460361920849
aF-0.06728677054170894
aF1.1541882395608942
aF-1.6475830982309128
aF-0.07403887991887913
aF-1.1422179487610624
aF1.4868216983189548
aF0.004845800684196449
aF1.0390349629532396
aF-1.5198235932579867
aF0.41341721162440187
aF-0.6361169805318441
aF1.161280913531393
aa(lp62
g5
ag6
ag7
ag8
aaa(lp63
(lp64
F-1.050189610180126
aF0.03267594399515
aF0.9375595416584033
aF0.9871591592931456
aF-0.1053942698256275
aF-0.1147904182393624
aF-0.035099885925810086
aF0.06473339626183408
aF0.9022665370561979
aF-1.6690695948129324
aF-0.1106846675475556
aF-1.0560526123788074
aF1.6025093774438988
aF0.02331673024447408
aF1.094471334205905
aF-1.3323383545919938
aF0.4506560192080733
aF-0.4759083646004982
aF1.1222443383669731
aa(lp65
g5
ag6
ag7
ag8
aaa(lp66
(lp67
F-0.9683018050741715
aF0.02909873203765143
aF0.9601549985973655
aF0.9895481486867019
aF-0.0980447327669092
aF-0.10561365404708292
aF-0.005239073029573024
aF0.1131002050837198
aF1.0146274902957007
aF-1.6123508487244538
aF-0.1218086846356165
aF-0.9233984205106313
aF1.5959079499979119
aF0.24424681649998192
aF0.08910299253445607
aF-1.222810831879798
aF0.46595663335675663
aF-0.28403599075859765
aF0.9636760940341428
aa(lp68
g5
ag6
ag7
ag8
aaa(lp69
(lp70
F-0.8743085765285034
aF0.021933463432194246
aF0.9823103580812248
aF0.9884854609503904
aF-0.10795059909693878
aF-0.10480194100844882
aF0.01611566955381376
aF0.0975357772209161
aF1.142306246218162
aF-1.5130330748100713
aF-0.0036933696978358604
aF-1.1456799135736393
aF1.442780729206272
aF0.22970321927747653
aF0.3541091312230263
aF-1.4194214368252933
aF0.523598775598
aF-0.0018541265528733244
aF0.6635191887436618
aa(lp71
g5
ag6
ag7
ag8
aaa(lp72
(lp73
F-0.7777233196320501
aF0.03790086199042946
aF1.0051060527382838
aF0.9834095503752378
aF-0.09347810846840601
aF-0.15325948494778766
aF-0.02605819912197239
aF0.12091676527254187
aF1.1708338035286325
aF-1.078662399896179
aF0.08325030952823324
aF-0.9501883961253464
aF1.6855438857708172
aF0.2492219552684784
aF0.6047393367238175
aF-1.3548393031484973
aF0.2874277619541335
aF-1.0779473914703843
aF1.411652217908272
aa(lp74
g5
ag6
ag7
ag8
aaa(lp75
(lp76
F-0.6887447802680676
aF0.014013769260330182
aF1.03334075212953
aF0.9843643656967435
aF-0.10390620121581155
aF-0.1351564930192617
aF-0.04430597352594296
aF-0.28374746213631447
aF0.5235231097799687
aF-1.6066219303674938
aF0.038918665538341994
aF-0.7766489207751437
aF1.67376430066893
aF0.32908155556896423
aF0.7415671639912202
aF-1.370140464363127
aF0.33066831148941256
aF-0.9567003304126164
aF1.4448443597101404
aa(lp77
g5
ag6
ag7
ag8
aaa(lp78
(lp79
F-0.5836740745678279
aF-0.018750678436206175
aF1.0550292760283746
aF0.9840275752074331
aF-0.10371147245217299
aF-0.14314311135024277
aF-0.021064457888901496
aF-0.2894899528792753
aF0.7746067576499923
aF-1.6833122172424195
aF0.008091795943265867
aF-1.1654522876411948
aF1.6061836671448089
aF0.3485791519861184
aF0.9251068727270494
aF-1.301846411414119
aF0.4007008746487996
aF-0.7722052907012226
aF1.533887465856581
aa(lp80
g5
ag6
ag7
ag8
aaa(lp81
(lp82
F-0.48382089350830504
aF-0.00018110073868351877
aF1.0786592500189298
aF0.9817547400924928
aF-0.11386531904259241
aF-0.15090305266180448
aF-0.020508245234527815
aF-0.2722091470261452
aF1.01332096046601
aF-1.6865959912697335
aF0.025879227377489846
aF-1.0134942158295042
aF1.7505237738954076
aF0.3341780428004807
aF1.013461329918866
aF-1.1120792683088783
aF0.28225169692769125
aF-0.7458242828199808
aF1.6027024620246677
aa(lp83
g5
ag6
ag7
ag8
aaa(lp84
(lp85
F-0.4001932404300529
aF-0.019594888294059355
aF1.1034381796851458
aF0.9794998458702407
aF-0.11794268257147209
aF-0.16194317869147398
aF-0.021070890900032
aF0.008484510411030188
aF0.947299334428776
aF-1.73265637055363
aF-0.015027044081927381
aF-0.823205475698364
aF1.821750432864696
aF0.37203348972475847
aF0.9854398336502628
aF-0.7808867872108952
aF0.327041783112952
aF-0.5301665375668224
aF1.5780974359058653
aa(lp86
g5
ag6
ag7
ag8
aaa(lp87
(lp88
F-0.3506217707954967
aF-0.014832381638694226
aF1.113540782700328
aF0.9870988397519018
aF-0.09661347087260642
aF-0.12736479033512144
aF-0.008940245482518022
aF0.08252059202607424
aF1.000512467813907
aF-1.7881021925757912
aF0.021369134067541866
aF-0.7445995433006279
aF1.6912564670013412
aF-0.02734823159496662
aF0.8640866736790044
aF-1.6459645525753672
aF0.28183028057930776
aF-0.4617550256838738
aF1.4716897283112396
aa(lp89
g5
ag6
ag7
ag8
aaa(lp90
(lp91
F-0.25478796432816647
aF-0.06783776424278981
aF1.143856293619408
aF0.9861201922741998
aF-0.09908763900386558
aF-0.1331799483881229
aF-0.003421627254965346
aF-0.4428452665252484
aF0.6309011328874115
aF-1.726042043983166
aF-0.0927622609567678
aF-0.5004240334834434
aF1.6472559192129488
aF0.06791375135943967
aF1.0551211189010672
aF-1.5821634288768684
aF0.38946420369350926
aF-0.17918968115628925
aF1.2657725207682533
aa(lp92
g5
ag6
ag7
ag8
aaa(lp93
(lp94
F-0.182076659211996
aF-0.04571499695331431
aF1.1542796098968844
aF0.9854274003314992
aF-0.10467542111646447
aF-0.13321226584628876
aF0.015178508427754178
aF-0.3853495217562505
aF0.8109115453188959
aF-1.8330720284113562
aF-0.03231002195494724
aF-1.1398372076009977
aF1.583174797490977
aF0.023127991259465807
aF1.1632652223511417
aF-1.4830686594679527
aF0.4067824078053679
aF0.022461853858062198
aF1.0947346738234434
aa(lp95
g5
ag6
ag7
ag8
aaa(lp96
(lp97
F-0.11649601218471187
aF-0.024278969590217334
aF1.1693307495272647
aF0.988260577270766
aF-0.09204747509607808
aF-0.12181104774340148
aF-0.005510207667959516
aF-0.36247004837561253
aF0.9922408027081198
aF-1.857063656288959
aF0.040575355617365624
aF-1.0220623101331088
aF1.6038531246843988
aF-0.021285437227398087
aF1.2137061647856924
aF-1.4216179167337935
aF0.08492629220701457
aF-1.1651673417324417
aF1.3292497321301013
aa(lp98
g5
ag6
ag7
ag8
aaa(lp99
(lp100
F-0.019364085414103525
aF-0.028256407028872013
aF1.1916166665871921
aF0.9883740736238964
aF-0.09075454915551548
aF-0.12196898717273122
aF-0.001966866477851453
aF-0.3659443089103871
aF1.1874190304175074
aF-1.797227065901902
aF0.03133320166227752
aF-0.8457338575535068
aF1.6600654635360736
aF-0.05799000567331283
aF0.8859162800055428
aF-1.732295191529867
aF0.09283071502872922
aF-1.0878735310579484
aF1.5204159281870173
aa(lp101
g5
ag6
ag7
ag8
aaa(lp102
(lp103
F0.07776784135650477
aF-0.032233844467526696
aF1.2139025836471193
aF0.9884734710674039
aF-0.08946032862394676
aF-0.12212518674488257
aF0.0015765027691163045
aF-0.18258309974069556
aF1.0474283137624967
aF-1.9493805022611295
aF0.019572583158764627
aF-0.6263078468127551
aF1.6367940635741924
aF-0.05503034053578696
aF1.0885941077519028
aF-1.6952219859010094
aF0.10326891044027739
aF-0.9423872794669124
aF1.625500272722636
aa(lp104
g5
ag6
ag7
ag8
aaa(lp105
(lp106
F0.07776784135650477
aF-0.032233844467526696
aF1.2139025836471193
aF0.9884734710674039
aF-0.08946032862394676
aF-0.12212518674488257
aF0.0015765027691163045
aF-0.18258309974069556
aF1.0474283137624967
aF-1.9493805022611295
aF-0.16842445562719802
aF-1.1174693939603224
aF1.7206205233477083
aF-0.05503034053578696
aF1.0885941077519028
aF-1.6952219859010094
aF0.10326891044027739
aF-0.9423872794669124
aF1.625500272722636
aa(lp107
g5
ag6
ag7
ag8
aaa(lp108
(lp109
F0.07776784135650477
aF-0.032233844467526696
aF1.2139025836471193
aF0.9884734710674039
aF-0.08946032862394676
aF-0.12212518674488257
aF0.0015765027691163045
aF-0.18258309974069556
aF1.0474283137624967
aF-1.9493805022611295
aF-0.16842445562719802
aF-1.1174693939603224
aF1.7206205233477083
aF-0.05503034053578696
aF1.0885941077519028
aF-1.6952219859010094
aF-0.021217128858566435
aF-1.0994433251577085
aF1.565029980877018
aa(lp110
g5
ag6
ag7
ag8
aaa(lp111
(lp112
F0.07776784135650477
aF-0.032233844467526696
aF1.2139025836471193
aF0.9884734710674039
aF-0.08946032862394676
aF-0.12212518674488257
aF0.0015765027691163045
aF-0.18258309974069556
aF1.0474283137624967
aF-1.9493805022611295
aF-0.16842445562719802
aF-1.1174693939603224
aF1.7206205233477083
aF-0.06794569467775749
aF0.906356547817587
aF-1.7498680250922367
aF-0.021217128858566435
aF-1.0994433251577085
aF1.565029980877018
aa(lp113
g5
ag6
ag7
ag8
aaa(lp114
(lp115
F0.17489976812711308
aF-0.03621128190618138
aF1.2361885007070466
aF0.9885587681834087
aF-0.08816483196310494
aF-0.12227964423170759
aF0.005119849527665301
aF-0.08071123479951987
aF1.1671949205875471
aF-1.9429542163943978
aF-0.1816385265880849
aF-0.9305407130410754
aF1.7789272958365343
aF-0.06366214829664801
aF1.108801619922814
aF-1.708834488942575
aF-0.009940352766581359
aF-0.9467558204872696
aF1.666758652758771
aa(lp116
g5
ag6
ag7
ag8
aaa(lp117
(lp118
F0.17489976812711308
aF-0.03621128190618138
aF1.2361885007070466
aF0.9885587681834087
aF-0.08816483196310494
aF-0.12227964423170759
aF0.005119849527665301
aF-0.08071123479951987
aF1.1671949205875471
aF-1.9429542163943978
aF-0.13785087065971804
aF-1.0841497757473681
aF1.7916814760012008
aF-0.06366214829664801
aF1.108801619922814
aF-1.708834488942575
aF-0.009940352766581359
aF-0.9467558204872696
aF1.666758652758771
aa(lp119
g5
ag6
ag7
ag8
aaa(lp120
(lp121
F0.17489976812711308
aF-0.03621128190618138
aF1.2361885007070466
aF0.9885587681834087
aF-0.08816483196310494
aF-0.12227964423170759
aF0.005119849527665301
aF-0.08071123479951987
aF1.1671949205875471
aF-1.9429542163943978
aF-0.13785087065971804
aF-1.0841497757473681
aF1.7916814760012008
aF-0.06366214829664801
aF1.108801619922814
aF-1.708834488942575
aF0.28876436233815167
aF-1.2034336176825478
aF1.5135536655170263
aa(lp122
g5
ag6
ag7
ag8
aaa(lp123
(lp124
F0.17489976812711308
aF-0.03621128190618138
aF1.2361885007070466
aF0.9885587681834087
aF-0.08816483196310494
aF-0.12227964423170759
aF0.005119849527665301
aF-0.08071123479951987
aF1.1671949205875471
aF-1.9429542163943978
aF-0.13785087065971804
aF-1.0841497757473681
aF1.7916814760012008
aF-0.07549430463460005
aF1.0388457555207928
aF-1.7402841361637178
aF0.28876436233815167
aF-1.2034336176825478
aF1.5135536655170263
aa(lp125
g5
ag6
ag7
ag8
aaa(lp126
(lp127
F0.27203169489772133
aF-0.04018871934483605
aF1.2584744177669738
aF0.9886299637551688
aF-0.08686807765292676
aF-0.12243235742990871
aF0.008663123252837862
aF-0.06870909253491612
aF1.195359792579796
aF-1.9611947958923681
aF-0.15316413236543372
aF-0.8738537826778898
aF1.8232100549464032
aF-0.06915918529863149
aF1.206609226106524
aF-1.648672231165075
aF0.30229380187334315
aF-1.0842440797311281
aF1.657477526012514
aa(lp128
g5
ag6
ag7
ag8
aaa(lp129
(lp130
F0.27203169489772133
aF-0.04018871934483605
aF1.2584744177669738
aF0.9886299637551688
aF-0.08686807765292676
aF-0.12243235742990871
aF0.008663123252837862
aF-0.06870909253491612
aF1.195359792579796
aF-1.9611947958923681
aF-0.09455527324243407
aF-1.1889290890565174
aF1.8331048507710617
aF-0.06915918529863149
aF1.206609226106524
aF-1.648672231165075
aF0.30229380187334315
aF-1.0842440797311281
aF1.657477526012514
aa(lp131
g5
ag6
ag7
ag8
aaa(lp132
(lp133
F0.27203169489772133
aF-0.04018871934483605
aF1.2584744177669738
aF0.9886299637551688
aF-0.08686807765292676
aF-0.12243235742990871
aF0.008663123252837862
aF-0.06870909253491612
aF1.195359792579796
aF-1.9611947958923681
aF-0.09455527324243407
aF-1.1889290890565174
aF1.8331048507710617
aF-0.06915918529863149
aF1.206609226106524
aF-1.648672231165075
aF0.19770817286213754
aF-1.1853000821792472
aF1.634941462925953
aa(lp134
g5
ag6
ag7
ag8
aaa(lp135
(lp136
F0.27203169489772133
aF-0.04018871934483605
aF1.2584744177669738
aF0.9886299637551688
aF-0.08686807765292676
aF-0.12243235742990871
aF0.008663123252837862
aF-0.06870909253491612
aF1.195359792579796
aF-1.9611947958923681
aF-0.09455527324243407
aF-1.1889290890565174
aF1.8331048507710617
aF-0.17433218717555904
aF1.1155876766429544
aF-1.6667443570297242
aF0.19770817286213754
aF-1.1853000821792472
aF1.634941462925953
aa(lp137
g5
ag6
ag7
ag8
aaa(lp138
(lp139
F0.27203169489772133
aF-0.04018871934483605
aF1.2584744177669738
aF0.9886299637551688
aF-0.08686807765292676
aF-0.12243235742990871
aF0.008663123252837862
aF-0.06870909253491612
aF1.195359792579796
aF-1.9611947958923681
aF-0.09455527324243407
aF-1.1889290890565174
aF1.8331048507710617
aF-0.17433218717555904
aF1.1155876766429544
aF-1.6667443570297242
aF0.19770817286213754
aF-1.1853000821792472
aF1.634941462925953
aa(lp140
g5
ag6
ag7
ag8
aaaa(lp141
a.
