(lp0
(lp1
(lp2
(lp3
F0.1
aF-0.82
aF0.648702
aF1.0
aF0.0
aF0.0
aF0.0
aF0.0
aF0.0
aF0.0
aF0.0
aF0.261799388
aF0.174532925
aF0.0
aF-0.523598776
aF0.0
aF0.0
aF0.17
aF0.261799388
aF-0.174532925
aF0.0
aF-0.523598776
aF0.0
aF0.0
aF0.17
aF0.0
aF0.0
aF-0.453785606
aF0.872664626
aF-0.41887902
aF0.0
aF0.0
aF0.0
aF-0.453785606
aF0.872664626
aF-0.41887902
aF0.0
aa(lp4
S'hrp2_rleg_rom'
p5
aS'hrp2_lleg_rom'
p6
aaa(lp7
(lp8
F0.10154126063074494
aF-0.8214284409679268
aF0.6487879892736691
aF0.9999994301295316
aF-0.0005577978257869068
aF0.0007053820062998411
aF-0.0005753593856837713
aF-0.004973655619184982
aF-0.002797630236529712
aF-3.1551935780832824e-05
aF8.351694625948481e-05
aF0.26065927055172
aF0.1720262374885015
aF-0.0004304050607860032
aF-0.5240330730688112
aF-2.8018168789837085e-06
aF-4.8787930794214795e-05
aF0.17
aF-0.19808593235071742
aF-0.15606726871987583
aF0.7605568013349934
aF-0.39519861131287787
aF-0.48484466522562303
aF0.27177666643594395
aF0.16999879302132842
aF0.001155054501463373
aF0.0037418890482991017
aF-0.4518900572583607
aF0.8719785866385074
aF-0.421499921479304
aF-0.0026270789214744334
aF0.0011550538735052083
aF0.0037414196623308978
aF-0.45233403258120264
aF0.8723564114783705
aF-0.42143377099408863
aF-0.002626609535097399
aa(lp9
g5
ag6
aS'hrp2_rarm_rom'
p10
aaa(lp11
(lp12
F0.1712544043363148
aF-0.8224981979694529
aF0.6490714837626116
aF0.9989702948505043
aF-0.0023574906002133814
aF-0.04456592796442135
aF0.008165188854923337
aF0.10510027280188793
aF-0.005994238675466599
aF0.00025314417978075155
aF-0.001304340860552401
aF0.2821563427628237
aF0.18000116373852545
aF0.0013539433821620076
aF-0.5092605157240946
aF-7.19784782718239e-05
aF0.0016447630581978223
aF0.16998674827215624
aF0.1242446734083171
aF-0.15455329448348576
aF0.3894818912569231
aF-0.5631141610299907
aF-0.24935618028846257
aF0.2649101725092663
aF0.1700000975766569
aF-0.1392931534334898
aF0.249608179946972
aF-1.105566434266199
aF1.0423256511640968
aF0.1552072598123914
aF-0.2555548081915809
aF-0.016932106040551714
aF0.008538272456125413
aF-0.21607809658991609
aF0.8400680092478197
aF-0.5347898368927303
aF-0.004573631862818317
aa(lp13
g5
ag6
ag10
aaa(lp14
(lp15
F0.0949612613027694
aF-0.7506253141721735
aF0.6896213243066871
aF0.9689698398693457
aF0.11749733673053557
aF0.20315234847489463
aF-0.0775947716920444
aF-0.09790699366875343
aF0.40717812450711033
aF0.570412062903209
aF0.17603342927800156
aF-1.8795460723354551
aF0.4852310362906561
aF0.38749637953014
aF-1.451046712396184
aF-0.5237145517340283
aF1.128297926102567
aF0.012815426632657797
aF-0.01453423559044148
aF-0.28312546238880676
aF0.27671548012902025
aF-1.608183359792961
aF0.2752485176863494
aF0.580455182791189
aF0.0068745119877861695
aF0.048427866498331806
aF-0.1419438323078864
aF-1.3028439075589688
aF0.3124990588381919
aF0.5749296936452218
aF-0.08792434423336559
aF0.14708464477637787
aF-0.2688144901726282
aF-1.2388467871043107
aF0.9198495618345017
aF-0.0694428392836957
aF-0.008958665930598034
aa(lp16
g5
ag6
ag10
aaa(lp17
(lp18
F0.35240409084018787
aF-0.8210357269647083
aF0.6810785226832456
aF0.9993966058732182
aF0.009277319037989345
aF-0.031099987531602934
aF0.012375229132947559
aF0.11484192242376041
aF-0.00450899164659811
aF0.00023932619789143538
aF-0.0016935563618760887
aF0.28614702250777313
aF0.18485152358125717
aF0.0021485808219052715
aF-0.5118423925287433
aF-4.781908398226401e-05
aF0.0013349395682851497
aF0.16999129633828333
aF-0.059002387241508976
aF-0.2154696879154725
aF0.43576696613008503
aF-0.6139811406791407
aF-0.34212881420877467
aF0.45680251158991636
aF0.1700058671798851
aF-0.13553415067113148
aF0.1668055840648855
aF-0.9735813957796036
aF1.4154871123648862
aF-0.38137262813647005
aF-0.1925360760290918
aF0.003459490976523275
aF0.1574716393742187
aF-0.38107869680162837
aF1.1399087713182092
aF-0.6953460365227088
aF-0.17471559105481987
aa(lp19
g5
ag6
ag10
aaa(lp20
(lp21
F0.44802596991263777
aF-0.8235048154046204
aF0.6948865506196709
aF0.9994940560104056
aF-0.008269776884393341
aF-0.028823215896944008
aF0.010604952404835074
aF0.1278620662660426
aF0.0032439617170900675
aF0.00034417556556728864
aF-0.0009787780085457507
aF0.2773971693760928
aF0.19024741729785058
aF0.002920980401928362
aF-0.511573319391035
aF-3.6271233591366206e-05
aF0.0013815899335762763
aF0.16998366603006948
aF0.21010252929101395
aF-0.16763688651697417
aF0.30216001434671164
aF-0.7136353190860132
aF-0.21736494283541966
aF0.2941060511774853
aF0.17000446050807966
aF-0.1317209345351556
aF0.18142730403026422
aF-0.791067948464242
aF1.4744227906942178
aF-0.6232813539011607
aF-0.17164175596745165
aF-0.15346315700630825
aF0.19918543426068905
aF-0.8097245368934941
aF1.5208679154410905
aF-0.6505314274299541
aF-0.19067137198205686
aa(lp22
g5
ag6
ag10
aaa(lp23
(lp24
F0.5368830238308142
aF-0.8106505738061011
aF0.7145767569308388
aF0.9993817357940712
aF0.011663540987708491
aF-0.028465479456488127
aF0.017024231323893753
aF0.15006523899762994
aF0.0036610450650372385
aF0.0004929212806540602
aF-0.0019506492302739918
aF0.28979361482372573
aF0.2047634940975214
aF0.005442084114408193
aF-0.509440106402608
aF-1.942970259633441e-05
aF0.0016091962484894894
aF0.1699817287708563
aF0.0185869074393365
aF-0.2605894656182354
aF0.359267787756855
aF-0.7226636051663434
aF-0.3425089798924343
aF0.4822334193903235
aF0.17001424013443253
aF-0.13952592340350284
aF0.08721704956427005
aF-0.5663614124879977
aF1.3966648190977904
aF-0.7763181544904854
aF-0.11717456288684787
aF-0.16076591885695368
aF0.10034991960087683
aF-0.58228050463195
aF1.4491429715622668
aF-0.8133066845531243
aF-0.1314413032263205
aa(lp25
g5
ag6
ag10
aaa(lp26
(lp27
F0.6375078850885393
aF-0.8190977339594139
aF0.7296801501750989
aF0.9992225205673874
aF-0.004272830989522128
aF-0.037021260210184447
aF0.012865597488729872
aF0.16194790472434228
aF-0.00723538845416288
aF0.0005255374674507818
aF-0.0016710244857792832
aF0.28743230777242923
aF0.20029142306658404
aF0.004726602493130153
aF-0.5058414059020321
aF-4.900452974050653e-05
aF0.0020352890950485845
aF0.16997633159045633
aF0.2654976146258217
aF-0.17442347920448703
aF0.2562533694012653
aF-0.7494139958997434
aF-0.2248722038870424
aF0.3084799740233665
aF0.1700088305134922
aF-0.13394785695188177
aF0.11013544986385063
aF-0.2551704738797173
aF1.2278503783601273
aF-0.8977140975453711
aF-0.11027223238391848
aF-0.1593049502132509
aF0.1620924911848515
aF-0.9777336629688922
aF1.5825382041920038
aF-0.5291801564061497
aF-0.16398811115405587
aa(lp28
g5
ag6
ag10
aaa(lp29
(lp30
F0.7546890619345721
aF-0.8039580914715785
aF0.7511142390702025
aF0.9982898803841265
aF0.02126123026487156
aF-0.05424622231000656
aF0.004756277469186291
aF0.18537025801920404
aF-0.03175155076337652
aF0.0008139476172006444
aF-0.0033461724614538505
aF0.3107003715876733
aF0.21541688954265206
aF0.007542249075795848
aF-0.49468424229748714
aF-8.431353416082736e-05
aF0.0033012029332073673
aF0.16996589225347225
aF0.12381432409493344
aF-0.2987394728266287
aF0.3592474989950348
aF-0.754029592893634
aF-0.37629323780196394
aF0.4944342893152951
aF0.1700172628159548
aF-0.11193784364521922
aF-0.0032061694512688873
aF0.1788326470498027
aF0.8014367217262495
aF-0.8768466898225263
aF-0.05061452933419936
aF-0.1370439690967152
aF0.03268127860941484
aF-0.6719029874780302
aF1.5693857534819322
aF-0.7950428158842882
aF-0.08890787993386963
aa(lp31
g5
ag6
ag10
aaa(lp32
(lp33
F0.8311048796514157
aF-0.8263943039205908
aF0.7638559699074213
aF0.9996453597735199
aF-0.009613964043662776
aF-0.021423642865031293
aF0.012560012142848579
aF0.15497501815335638
aF-0.011657746858290833
aF0.00039540493201184023
aF-0.001394397410450408
aF0.28414240628533993
aF0.18758380325565066
aF0.0026381473518873183
aF-0.505902984068125
aF-7.515497646287613e-05
aF0.0020343451123612704
aF0.1699795095765469
aF0.3073809248872234
aF-0.19524626630499964
aF0.2606001595221697
aF-0.8016973977740256
aF-0.2419451784247497
aF0.28688437670268724
aF0.17000238142846458
aF0.31514406775257364
aF0.32036857173187633
aF-0.5253547042508284
aF1.33125989967925
aF-0.7700352541259456
aF-0.28817675276397764
aF-0.15191195602692578
aF0.12803831155981002
aF-0.49176694681701744
aF1.4495438111190457
aF-0.9122781549706258
aF-0.11482307913704645
aa(lp34
g5
ag6
ag10
aaa(lp35
(lp36
F0.8957642139646743
aF-0.7861791506939663
aF0.780490937102536
aF0.9963323313034644
aF0.06393733000325882
aF-0.04434934034404009
aF0.035595497503280074
aF0.3644259697020434
aF0.1432055099673063
aF0.0019164937562135462
aF-0.007194625907522794
aF0.36158652074350184
aF0.29688304923635667
aF0.020944734209090366
aF-0.4730542684900536
aF-5.035078667346231e-05
aF0.005742048845838688
aF0.16992821198822938
aF-0.3562674771609358
aF-0.572141450658387
aF0.5325484107664648
aF-0.621905093616468
aF-0.70226053928452
aF0.7004882376906142
aF0.17006263216079637
aF0.25536514510692265
aF0.1462453536447743
aF-0.2101882219934061
aF1.1555200716091782
aF-0.8200486925683634
aF-0.24202611330763588
aF-0.18822832500633593
aF-0.135628772686398
aF-0.2798340432523348
aF1.323416694132696
aF-0.9754009292288199
aF-0.004589186396699765
aa(lp37
g5
ag6
ag10
aaa(lp38
(lp39
F1.0399710050839237
aF-0.8059486201595489
aF0.8056226018440003
aF0.9898557911308699
aF0.04190285844876498
aF-0.10531990899185535
aF0.0856585079746877
aF0.2864316649285709
aF-0.03280144205897129
aF0.0012822247059882663
aF-0.010081311683878668
aF0.40610190388760375
aF0.24178726483589968
aF0.012547256215575583
aF-0.4611409201198051
aF-0.0002450997506035564
aF0.007071263685667532
aF0.1699570738379871
aF0.08563037601523935
aF-0.34379485074947314
aF0.23872656411431573
aF-0.6091190557199041
aF-0.4411374423653678
aF0.6033957297970601
aF0.17004031309850043
aF-0.29980731237428704
aF0.055361576213234794
aF-0.6798490735122767
aF0.9062364732821929
aF-0.03527674068451205
aF-0.18039736779936194
aF-0.2832007558006895
aF-0.11866503044694787
aF0.39734759128713126
aF0.6977495960104821
aF-0.9049044796068255
aF-0.006390065874009617
aa(lp40
g5
ag6
ag10
aaa(lp41
(lp42
F1.114693638309089
aF-0.8177432558975876
aF0.8123162688533185
aF0.999536731737566
aF-0.00775010749813272
aF0.021707000744000192
aF0.019876213418364177
aF0.1397087799266204
aF-0.006443446447431596
aF0.00032712451149623727
aF-0.0011879188740909483
aF0.2797982845191002
aF0.19134632287431197
aF0.0031102628231620983
aF-0.5124376219480604
aF-2.9556401196180637e-05
aF0.0012761592840812139
aF0.16998602806727528
aF0.25229376481783794
aF-0.25634917882401786
aF0.21146702417231136
aF-1.025522007650419
aF-0.1834718997264446
aF0.5209784516060506
aF0.17000823804850418
aF-0.13622843483335367
aF0.2043602090846447
aF-0.8520247130152235
aF1.0870672353248874
aF-0.2770983748077656
aF-0.18373975501671266
aF-0.254713552671075
aF-0.1331257744448807
aF-0.8953423134663215
aF0.9848882616577166
aF-0.12862166372668768
aF0.15818364382547262
aa(lp43
g5
ag6
ag10
aaa(lp44
(lp45
F1.2164576717450288
aF-0.8262513144351461
aF0.8272785655449627
aF0.9991835740112914
aF-0.027284953736609767
aF0.015134622718232864
aF0.025664370648623865
aF0.2070332665201193
aF0.030141749146582582
aF0.0003802897699589654
aF-0.0016940110026799782
aF0.2881985233065919
aF0.18677818465117935
aF0.002547986818564596
aF-0.5051437742777702
aF-8.211212663983351e-05
aF0.002116511830165536
aF0.1699809849468426
aF0.4528975667151522
aF-0.12288111879379572
aF0.096944837052804
aF-0.9006034407796532
aF-0.09372613228911957
aF0.18949441275140358
aF0.17000561061782468
aF-0.15635505464026203
aF0.055151472529778416
aF-1.1964697259735637
aF1.0531712477590378
aF0.12038549471603262
aF0.0029287645418901013
aF-0.263112424665638
aF-0.11788593758637063
aF-0.7010764264936711
aF1.0364440943757425
aF-0.3521830808083915
aF0.1780211498364769
aa(lp46
g5
ag6
ag10
aaa(lp47
(lp48
F1.3259653830012124
aF-0.8279598923633708
aF0.8483100531427624
aF0.9993952007725437
aF-0.006194959443109721
aF0.028733831277995482
aF0.018580153131582556
aF0.10186026912069474
aF-0.03606154158800081
aF-0.00011351648888296596
aF-0.0005940467521858406
aF0.27402370841832985
aF0.14545405887638255
aF-0.004351520046835178
aF-0.5094875334254493
aF-0.0001433957223771617
aF0.0016341588669738759
aF0.16999600715036395
aF0.2819946240047822
aF-0.20341247517279232
aF0.18644730315194824
aF-1.0796358472903864
aF-0.1759182395325059
aF0.5249894458278316
aF0.1699838623023198
aF-0.1436640454209692
aF-0.006318935727182113
aF-1.1291926162017787
aF1.2782912299386109
aF-0.2046158111458679
aF0.025775845925605664
aF-0.2570601624485486
aF-0.18469429926370406
aF-0.47564950272671747
aF0.9193872197541503
aF-0.4978159860245204
aF0.21002272180918935
aa(lp49
g5
ag6
ag10
aaa(lp50
(lp51
F1.4143461542483164
aF-0.837344131924895
aF0.8618417967918885
aF0.9987196471669301
aF-0.026353991009526356
aF0.03404780225962707
aF0.026557121115089614
aF0.13875138937960113
aF0.01814334120997986
aF7.348230134178979e-05
aF-0.0005520558115181417
aF0.27307055638072725
aF0.16214827544309998
aF-0.0016616068150374019
aF-0.5099528074082621
aF-0.00010482749314165687
aF0.0015803995437972005
aF0.16998961880000218
aF0.45731441888583113
aF-0.11703769477651177
aF0.12639716285782904
aF-1.0037815648760853
aF-0.12398812988040951
aF0.21670057945267232
aF0.16999084716282126
aF-0.15839488289112674
aF0.03667913515712316
aF-1.002268665054285
aF1.3813271215828906
aF-0.43965649945831886
aF0.02458260902046728
aF-0.26772592090060915
aF-0.09421101075358461
aF-0.9153230787271561
aF1.3041211864396502
aF-0.4429847536516287
aF0.1614928194962108
aa(lp52
g5
ag6
ag10
aaa(lp53
(lp54
F1.5098958505839775
aF-0.8398421390780387
aF0.882291197785238
aF0.997068882161622
aF-0.03445541460543175
aF0.04590471073560263
aF0.050588794822788316
aF0.305172828964606
aF0.09663856931852502
aF0.0005698668902825697
aF-0.0008695634688049127
aF0.2799774207534943
aF0.18695555503594233
aF0.002526364832014226
aF-0.4971469674520662
aF-0.00012617847128375373
aF0.003066250428556563
aF0.16996302250896547
aF0.48664448892394274
aF-0.022673985828125253
aF-0.05985231246475014
aF-0.6437281741982714
aF0.09874966166700054
aF-0.24379682621230428
aF0.17000523423992603
aF-0.20676208793386902
aF0.0439497929171624
aF-0.8044649818252491
aF1.3526939573204344
aF-0.628245708533201
aF0.038506051970949425
aF-0.31941686988205464
aF-0.10046787632995263
aF-0.6861807179029941
aF1.2207929313019628
aF-0.6060406456990113
aF0.19099038416183628
aa(lp55
g5
ag6
ag10
aaa(lp56
(lp57
F1.5383316668979103
aF-0.8390780563247034
aF0.8890370585345296
aF0.9964236477907589
aF-0.028109974254579194
aF0.07489765597889822
aF0.02720449594517871
aF0.17237239953022016
aF0.059704265311681624
aF9.101982156459556e-05
aF-0.0008163222115975273
aF0.2768154908495799
aF0.16078251398740748
aF-0.0017934362409706673
aF-0.5073818404904602
aF-0.00012271812136885308
aF0.0018748388936492696
aF0.169988154205286
aF0.4723700851555649
aF-0.020787423230824595
aF-0.08922538980491747
aF-0.6505818358977729
aF0.3016448166373667
aF-0.25107147415678527
aF0.16999664160100447
aF-0.130112479599155
aF0.2549116611101207
aF-1.2499580798561774
aF1.2263985097078625
aF-0.12212331849538977
aF-0.18113753356743587
aF-0.2828039062799765
aF-0.10896345481939296
aF-0.6745811452145922
aF1.174249688589253
aF-0.6329871693156252
aF0.2000861213106884
aa(lp58
g5
ag6
ag10
aaa(lp59
(lp60
F1.6686919310972
aF-0.82
aF0.9242411690052921
aF0.9930869964913489
aF0.0
aF0.117380658317643
aF0.0
aF0.0
aF0.0
aF0.0
aF0.0
aF0.261799388
aF0.174532925
aF0.0
aF-0.523598776
aF0.0
aF0.0
aF0.17
aF0.44475918758374006
aF-0.0010850207943902289
aF-0.1974787486987572
aF-0.6393452217166693
aF0.6254975307417325
aF-0.28654507416937963
aF0.17
aF-0.08195094929042836
aF0.11762478423916882
aF-1.1094672358502244
aF1.3209922781599468
aF-0.44710371863326104
aF-0.09530410141135208
aF-0.26421200324348243
aF-0.213836506404863
aF-0.33769648789959167
aF0.7196839741395161
aF-0.6175495271365444
aF0.2690741749006863
aa(lp61
g5
ag6
ag10
aaa(lp62
(lp63
F1.6686919310972
aF-0.82
aF0.9242411690052921
aF0.9930869964913489
aF0.0
aF0.117380658317643
aF0.0
aF0.0
aF0.0
aF0.0
aF0.0
aF0.261799388
aF0.174532925
aF0.0
aF-0.523598776
aF0.0
aF0.0
aF0.17
aF0.44475918758374006
aF-0.0010850207943902289
aF-0.1974787486987572
aF-0.6393452217166693
aF0.6254975307417325
aF-0.28654507416937963
aF0.17
aF-0.08195094929042836
aF0.11762478423916882
aF-1.1094672358502244
aF1.3209922781599468
aF-0.44710371863326104
aF-0.09530410141135208
aF-0.2498573701535236
aF-0.1591641924815236
aF-1.041651759872126
aF1.27050841297791
aF-0.46203257187824986
aF0.21262588325845794
aa(lp64
g5
ag6
ag10
aaa(lp65
(lp66
F1.8647784257812186
aF-0.82
aF0.9586835657100452
aF0.9912534105978101
aF0.0
aF0.1319722593056605
aF0.0
aF0.0
aF0.0
aF0.0
aF0.0
aF0.261799388
aF0.174532925
aF0.0
aF-0.523598776
aF0.0
aF0.0
aF0.17
aF0.4623165673183082
aF-0.0008230627018998677
aF-0.22642817800705642
aF-0.6493232279025105
aF0.6396287894952049
aF-0.33045108309127025
aF0.17
aF-0.09125892689351187
aF0.07290032044118096
aF-0.6506812290215503
aF1.151846303100219
aF-0.7650335579623172
aF-0.046528281730016996
aF-0.27060167738220725
aF-0.21133823269982413
aF-0.5391335058544712
aF0.959660904187334
aF-0.6854534416095424
aF0.27424627761163267
aa(lp67
g5
ag6
ag10
aaa(lp68
(lp69
F1.8647784257812186
aF-0.82
aF0.9586835657100452
aF0.9912534105978101
aF0.0
aF0.1319722593056605
aF0.0
aF0.0
aF0.0
aF0.0
aF0.0
aF0.261799388
aF0.174532925
aF0.0
aF-0.523598776
aF0.0
aF0.0
aF0.17
aF0.4623165673183082
aF-0.0008230627018998677
aF-0.22642817800705642
aF-0.6493232279025105
aF0.6396287894952049
aF-0.33045108309127025
aF0.17
aF-0.05416129519475203
aF0.21315584281449676
aF-1.1502096366632257
aF1.4229673302086727
aF-0.5421917992494768
aF-0.1914490123092787
aF-0.27060167738220725
aF-0.21133823269982413
aF-0.5391335058544712
aF0.959660904187334
aF-0.6854534416095424
aF0.27424627761163267
aa(lp70
g5
ag6
ag10
aaa(lp71
(lp72
F1.9628216755687662
aF-0.82
aF0.9759047644919782
aF0.9902561967451275
aF0.0
aF0.1392575535514277
aF0.0
aF0.0
aF0.0
aF0.0
aF0.0
aF0.261799388
aF0.174532925
aF0.0
aF-0.523598776
aF0.0
aF0.0
aF0.17
aF0.36308999264496566
aF0.08414535494309847
aF-0.7285705606120364
aF-0.4705960706868964
aF1.1236487662834107
aF-0.5451419945377355
aF0.17000000000000004
aF-0.05944794712523043
aF0.18543568566294827
aF-0.9282984174701363
aF1.3815197654737263
aF-0.7359691074050426
aF-0.1617739835554578
aF-0.2812652141950358
aF-0.23334318994718814
aF-0.1711038335221552
aF0.4993480875782147
aF-0.6093233932735798
aF0.30125645189681244
aa(lp73
g5
ag6
ag10
aaa(lp74
(lp75
F1.9628216755687662
aF-0.82
aF0.9759047644919782
aF0.9902561967451275
aF0.0
aF0.1392575535514277
aF0.0
aF0.0
aF0.0
aF0.0
aF0.0
aF0.261799388
aF0.174532925
aF0.0
aF-0.523598776
aF0.0
aF0.0
aF0.17
aF0.36308999264496566
aF0.08414535494309847
aF-0.7285705606120364
aF-0.4705960706868964
aF1.1236487662834107
aF-0.5451419945377355
aF0.17000000000000004
aF-0.05944794712523043
aF0.18543568566294827
aF-0.9282984174701363
aF1.3815197654737263
aF-0.7359691074050426
aF-0.1617739835554578
aF-0.2623797312523949
aF-0.1744942226590305
aF-1.0013377558438983
aF1.3257474197608468
aF-0.6021214053988969
aF0.2395953604420847
aa(lp76
g5
ag6
ag10
aaa(lp77
(lp78
F1.9628216755687662
aF-0.82
aF0.9759047644919782
aF0.9902561967451275
aF0.0
aF0.1392575535514277
aF0.0
aF0.0
aF0.0
aF0.0
aF0.0
aF0.261799388
aF0.174532925
aF0.0
aF-0.523598776
aF0.0
aF0.0
aF0.17
aF0.36308999264496566
aF0.08414535494309847
aF-0.7285705606120364
aF-0.4705960706868964
aF1.1236487662834107
aF-0.5451419945377355
aF0.17000000000000004
aF-0.07151016809240796
aF0.14616040598168203
aF-1.0996802823660587
aF1.3866150981198673
aF-0.5677856504266351
aF-0.12073817189205245
aF-0.2623797312523949
aF-0.1744942226590305
aF-1.0013377558438983
aF1.3257474197608468
aF-0.6021214053988969
aF0.2395953604420847
aa(lp79
g5
ag6
ag10
aaa(lp80
(lp81
F1.9628216755687662
aF-0.82
aF0.9759047644919782
aF0.9902561967451275
aF0.0
aF0.1392575535514277
aF0.0
aF0.0
aF0.0
aF0.0
aF0.0
aF0.261799388
aF0.174532925
aF0.0
aF-0.523598776
aF0.0
aF0.0
aF0.17
aF0.36308999264496566
aF0.08414535494309847
aF-0.7285705606120364
aF-0.4705960706868964
aF1.1236487662834107
aF-0.5451419945377355
aF0.17000000000000004
aF-0.07151016809240796
aF0.14616040598168203
aF-1.0996802823660587
aF1.3866150981198673
aF-0.5677856504266351
aF-0.12073817189205245
aF-0.26276528490133033
aF-0.17582626292934356
aF-0.9543707355274174
aF1.329146959325654
aF-0.6525551620093936
aF0.24098044888677464
aa(lp82
g5
ag6
ag10
aaa(lp83
(lp84
F1.9628216755687662
aF-0.82
aF0.9759047644919782
aF0.9902561967451275
aF0.0
aF0.1392575535514277
aF0.0
aF0.0
aF0.0
aF0.0
aF0.0
aF0.261799388
aF0.174532925
aF0.0
aF-0.523598776
aF0.0
aF0.0
aF0.17
aF0.36308999264496566
aF0.08414535494309847
aF-0.7285705606120364
aF-0.4705960706868964
aF1.1236487662834107
aF-0.5451419945377355
aF0.17000000000000004
aF-0.05200835160596384
aF0.21228342084947383
aF-1.4353139836746804
aF1.224457352272632
aF-0.0734237773285749
aF-0.18963066807555065
aF-0.26276528490133033
aF-0.17582626292934356
aF-0.9543707355274174
aF1.329146959325654
aF-0.6525551620093936
aF0.24098044888677464
aa(lp85
g5
ag6
ag10
aaa(lp86
(lp87
F1.9628216755687662
aF-0.82
aF0.9759047644919782
aF0.9902561967451275
aF0.0
aF0.1392575535514277
aF0.0
aF0.0
aF0.0
aF0.0
aF0.0
aF0.261799388
aF0.174532925
aF0.0
aF-0.523598776
aF0.0
aF0.0
aF0.17
aF0.36308999264496566
aF0.08414535494309847
aF-0.7285705606120364
aF-0.4705960706868964
aF1.1236487662834107
aF-0.5451419945377355
aF0.17000000000000004
aF-0.05200835160596384
aF0.21228342084947383
aF-1.4353139836746804
aF1.224457352272632
aF-0.0734237773285749
aF-0.18963066807555065
aF-0.2623797312523949
aF-0.1744942226590305
aF-1.0013377558438983
aF1.3257474197608468
aF-0.6021214053988969
aF0.2395953604420847
aa(lp88
g5
ag6
ag10
aaa(lp89
(lp90
F1.9628216755687662
aF-0.82
aF0.9759047644919782
aF0.9902561967451275
aF0.0
aF0.1392575535514277
aF0.0
aF0.0
aF0.0
aF0.0
aF0.0
aF0.261799388
aF0.174532925
aF0.0
aF-0.523598776
aF0.0
aF0.0
aF0.17
aF0.36308999264496566
aF0.08414535494309847
aF-0.7285705606120364
aF-0.4705960706868964
aF1.1236487662834107
aF-0.5451419945377355
aF0.17000000000000004
aF-0.07151016809240796
aF0.14616040598168203
aF-1.0996802823660587
aF1.3866150981198673
aF-0.5677856504266351
aF-0.12073817189205245
aF-0.2623797312523949
aF-0.1744942226590305
aF-1.0013377558438983
aF1.3257474197608468
aF-0.6021214053988969
aF0.2395953604420847
aa(lp91
g5
ag6
ag10
aaa(lp92
(lp93
F1.9628216755687662
aF-0.82
aF0.9759047644919782
aF0.9902561967451275
aF0.0
aF0.1392575535514277
aF0.0
aF0.0
aF0.0
aF0.0
aF0.0
aF0.261799388
aF0.174532925
aF0.0
aF-0.523598776
aF0.0
aF0.0
aF0.17
aF0.36308999264496566
aF0.08414535494309847
aF-0.7285705606120364
aF-0.4705960706868964
aF1.1236487662834107
aF-0.5451419945377355
aF0.17000000000000004
aF-0.07151016809240796
aF0.14616040598168203
aF-1.0996802823660587
aF1.3866150981198673
aF-0.5677856504266351
aF-0.12073817189205245
aF-0.2623797312523949
aF-0.1744942226590305
aF-1.0013377558438983
aF1.3257474197608468
aF-0.6021214053988969
aF0.2395953604420847
aa(lp94
g5
ag6
ag10
aaaa(lp95
a.
