(lp0
(dp1
S'q'
p2
(lp3
F0.0
aF0.0
aF0.6171684427406227
aF0.24219024565229597
aF-0.48140027305509026
aF-0.37953117523717933
aF-0.7520330770893329
aF0.110541912769206
aF0.6428476054568053
aF0.34342751074054734
aF0.42809873909157237
aF-0.6114735579969843
aF1.2922581642827546
aF-0.8985473588282462
aF-1.0016331417016096
aF-1.1917601243236382
aF1.053710387256374
aF0.17
aF0.5288884812088632
aF-1.5545575866111105
aF0.20691279467112067
aF-1.8244753503186941
aF0.9743110049186325
aF0.5882354053219478
aF0.1690074434476008
aF-0.07428311559498502
aF0.054876372835798645
aF-1.8774997164454919
aF0.4876406678513989
aF0.25536498518465184
aF0.0431610809041367
aF0.09535529141769251
aF-0.610865
aF-1.042027765897375
aF0.5914202672078901
aF-0.709401162914897
aF0.16953827632487506
asS'contact_points'
p4
(dp5
S'LLEG_JOINT5'
p6
(dp7
S'P'
p8
(lp9
(lp10
F0.09
aF0.05
aF-0.105
aa(lp11
F0.09
aF-0.05
aF-0.105
aa(lp12
F-0.09
aF-0.05
aF-0.105
aa(lp13
F-0.09
aF0.05
aF-0.105
aasS'N'
p14
(lp15
(lp16
F-5.169878828456423e-26
aF-1.2924697071141057e-25
aF1.0
aa(lp17
F-5.169878828456423e-26
aF-1.2924697071141057e-25
aF1.0
aa(lp18
F-5.169878828456423e-26
aF-1.2924697071141057e-25
aF1.0
aa(lp19
F-5.169878828456423e-26
aF-1.2924697071141057e-25
aF1.0
aassS'RLEG_JOINT5'
p20
(dp21
g8
(lp22
(lp23
F0.09
aF0.05
aF-0.105
aa(lp24
F0.09
aF-0.05
aF-0.105
aa(lp25
F-0.09
aF-0.05
aF-0.105
aa(lp26
F-0.09
aF0.05
aF-0.105
aasg14
(lp27
(lp28
F-1.5246593050577406e-20
aF3.3881317890172014e-21
aF1.0
aa(lp29
F-1.5246593050577406e-20
aF3.3881317890172014e-21
aF1.0
aa(lp30
F-1.5246593050577406e-20
aF3.3881317890172014e-21
aF1.0
aa(lp31
F-1.5246593050577406e-20
aF3.3881317890172014e-21
aF1.0
aasssg14
(lp32
g16
ag17
ag18
ag19
ag28
ag29
ag30
ag31
asg8
(lp33
g10
ag11
ag12
ag13
ag23
ag24
ag25
ag26
asa(dp34
g2
(lp35
F0.0
aF0.0
aF0.638104495526934
aF0.055680158921998006
aF-0.2183039201240763
aF0.7696472712176734
aF0.5973995281786477
aF0.2886640644875776
aF-0.07642519830155661
aF0.6546125759349497
aF-0.2883110948303854
aF0.6821565732795869
aF0.6674648714488847
aF-1.3032141361041525
aF-0.8135140196046546
aF-1.581179647486042
aF-1.3229249471979332
aF0.17
aF0.837932217998524
aF-0.8710144579784146
aF-0.7786368641632315
aF-1.765118953339222
aF0.08188946403376285
aF0.3903816322819711
aF0.17172408795297336
aF-0.07644460155882107
aF0.204129449265622
aF-0.04410502200445648
aF1.0529338451792543
aF-0.6334074794663037
aF0.05511695340367588
aF-0.785398
aF-0.3255958432659075
aF0.34575582351406753
aF0.5232707580928785
aF-0.4042306052106325
aF0.23800148213815436
asg4
(dp36
g6
(dp37
g8
(lp38
(lp39
F0.09
aF0.05
aF-0.105
aa(lp40
F0.09
aF-0.05
aF-0.105
aa(lp41
F-0.09
aF-0.05
aF-0.105
aa(lp42
F-0.09
aF0.05
aF-0.105
aasg14
(lp43
(lp44
F-5.169878828456423e-26
aF5.169878828456423e-26
aF1.0
aa(lp45
F-5.169878828456423e-26
aF5.169878828456423e-26
aF1.0
aa(lp46
F-5.169878828456423e-26
aF5.169878828456423e-26
aF1.0
aa(lp47
F-5.169878828456423e-26
aF5.169878828456423e-26
aF1.0
aassg20
(dp48
g8
(lp49
(lp50
F0.09
aF0.05
aF-0.105
aa(lp51
F0.09
aF-0.05
aF-0.105
aa(lp52
F-0.09
aF-0.05
aF-0.105
aa(lp53
F-0.09
aF0.05
aF-0.105
aasg14
(lp54
(lp55
F-6.776263578034403e-21
aF-6.776263578034403e-21
aF1.0
aa(lp56
F-6.776263578034403e-21
aF-6.776263578034403e-21
aF1.0
aa(lp57
F-6.776263578034403e-21
aF-6.776263578034403e-21
aF1.0
aa(lp58
F-6.776263578034403e-21
aF-6.776263578034403e-21
aF1.0
aasssg14
(lp59
g44
ag45
ag46
ag47
ag55
ag56
ag57
ag58
asg8
(lp60
g39
ag40
ag41
ag42
ag50
ag51
ag52
ag53
asa(dp61
g2
(lp62
F0.0
aF0.0
aF0.42148930554278485
aF0.2834883879787984
aF0.07411347919741686
aF0.9508765186047521
aF0.09987678633467872
aF-0.2669572949220235
aF0.578470298864348
aF-0.01883383641269054
aF0.5624781455248079
aF-0.03014939342072198
aF1.1636016301842824
aF0.19566836467765647
aF-1.5392431686478916
aF0.10464926655578854
aF-0.1229506114956227
aF0.17
aF0.6743287779461915
aF-0.11406624197106119
aF0.1177250025589136
aF-1.59072730461643
aF-0.653456322522348
aF-1.4158428413397366
aF0.17377467380313885
aF0.7054295201514289
aF0.610865
aF-0.3419118622240026
aF1.8613614084974819
aF-0.9292503612709588
aF-0.3256261587606483
aF0.010199677041831204
aF-0.434251068844353
aF-0.09112604706690049
aF1.9640407011159802
aF-1.309
aF0.17500143926054054
asg4
(dp63
g6
(dp64
g8
(lp65
(lp66
F0.09
aF0.05
aF-0.105
aa(lp67
F0.09
aF-0.05
aF-0.105
aa(lp68
F-0.09
aF-0.05
aF-0.105
aa(lp69
F-0.09
aF0.05
aF-0.105
aasg14
(lp70
(lp71
F0.0
aF-1.3552527156068805e-20
aF1.0
aa(lp72
F0.0
aF-1.3552527156068805e-20
aF1.0
aa(lp73
F0.0
aF-1.3552527156068805e-20
aF1.0
aa(lp74
F0.0
aF-1.3552527156068805e-20
aF1.0
aassg20
(dp75
g8
(lp76
(lp77
F0.09
aF0.05
aF-0.105
aa(lp78
F0.09
aF-0.05
aF-0.105
aa(lp79
F-0.09
aF-0.05
aF-0.105
aa(lp80
F-0.09
aF0.05
aF-0.105
aasg14
(lp81
(lp82
F2.0328790734103208e-20
aF-5.225713519803752e-21
aF1.0
aa(lp83
F2.0328790734103208e-20
aF-5.225713519803752e-21
aF1.0
aa(lp84
F2.0328790734103208e-20
aF-5.225713519803752e-21
aF1.0
aa(lp85
F2.0328790734103208e-20
aF-5.225713519803752e-21
aF1.0
aasssg14
(lp86
g71
ag72
ag73
ag74
ag82
ag83
ag84
ag85
asg8
(lp87
g66
ag67
ag68
ag69
ag77
ag78
ag79
ag80
asa(dp88
g2
(lp89
F0.0
aF0.0
aF0.5927162550786056
aF0.2083362583878539
aF0.19721190963532934
aF-0.7142164985435744
aF0.6384342247617153
aF-0.08556329980309182
aF1.0333548115204025
aF0.4361030987398369
aF-0.27034850805680616
aF-2.4605507848380785
aF1.5968092330106267
aF-0.22428940489217153
aF-0.8747844628159209
aF-0.37377926322374466
aF-0.6947199893640447
aF0.17
aF-2.4299737523272884
aF-1.3787641239887691
aF-0.5235460069080098
aF-1.078673784955665
aF-0.4871804629661518
aF0.6628644562740644
aF0.16607667906259962
aF-0.07533376184965168
aF0.610865
aF-1.1729785127952985
aF0.37009707124948904
aF0.1514589261074718
aF-0.44729368313707296
aF0.21192725642219226
aF-0.3926194167592222
aF-1.3293593284365746
aF0.46458273333064665
aF0.2765268335257459
aF0.22902853859226238
asg4
(dp90
g6
(dp91
g8
(lp92
(lp93
F0.09
aF0.05
aF-0.105
aa(lp94
F0.09
aF-0.05
aF-0.105
aa(lp95
F-0.09
aF-0.05
aF-0.105
aa(lp96
F-0.09
aF0.05
aF-0.105
aasg14
(lp97
(lp98
F0.0
aF0.0
aF0.9999999999999999
aa(lp99
F0.0
aF0.0
aF0.9999999999999999
aa(lp100
F0.0
aF0.0
aF0.9999999999999999
aa(lp101
F0.0
aF0.0
aF0.9999999999999999
aassg20
(dp102
g8
(lp103
(lp104
F0.09
aF0.05
aF-0.105
aa(lp105
F0.09
aF-0.05
aF-0.105
aa(lp106
F-0.09
aF-0.05
aF-0.105
aa(lp107
F-0.09
aF0.05
aF-0.105
aasg14
(lp108
(lp109
F0.0
aF-5.169878828456423e-26
aF1.0
aa(lp110
F0.0
aF-5.169878828456423e-26
aF1.0
aa(lp111
F0.0
aF-5.169878828456423e-26
aF1.0
aa(lp112
F0.0
aF-5.169878828456423e-26
aF1.0
aasssg14
(lp113
g98
ag99
ag100
ag101
ag109
ag110
ag111
ag112
asg8
(lp114
g93
ag94
ag95
ag96
ag104
ag105
ag106
ag107
asa(dp115
g2
(lp116
F0.0
aF0.0
aF0.5463491088454004
aF-0.19922975438499987
aF0.29029314385780747
aF-0.21545507716030693
aF0.9108328635499978
aF-0.5592846587603331
aF0.6072547446295362
aF0.0032669093446325848
aF-0.03188935902384543
aF-1.276075260618839
aF-0.02463937081828263
aF-1.3745270918480246
aF-1.5046694645068948
aF0.8839966675390938
aF0.2784210782976453
aF0.17
aF-0.1986393931393602
aF-1.1744062942161437
aF-0.1193173097996123
aF-2.0669093938538285
aF-1.427021652099174
aF0.23490448093172356
aF0.16568795255883037
aF0.687174919291242
aF0.29920437419781937
aF-1.8407988897255305
aF1.3779278471060188
aF-0.254710084833898
aF-0.13006360640528397
aF0.2700484120241547
aF-0.3246227963225567
aF-0.6778399486808724
aF-0.0349066
aF-0.03519824873901859
aF0.610865
asg4
(dp117
g6
(dp118
g8
(lp119
(lp120
F0.09
aF0.05
aF-0.105
aa(lp121
F0.09
aF-0.05
aF-0.105
aa(lp122
F-0.09
aF-0.05
aF-0.105
aa(lp123
F-0.09
aF0.05
aF-0.105
aasg14
(lp124
(lp125
F-2.0194839173657902e-28
aF1.2924697071141057e-26
aF1.0
aa(lp126
F-2.0194839173657902e-28
aF1.2924697071141057e-26
aF1.0
aa(lp127
F-2.0194839173657902e-28
aF1.2924697071141057e-26
aF1.0
aa(lp128
F-2.0194839173657902e-28
aF1.2924697071141057e-26
aF1.0
aassg20
(dp129
g8
(lp130
(lp131
F0.09
aF0.05
aF-0.105
aa(lp132
F0.09
aF-0.05
aF-0.105
aa(lp133
F-0.09
aF-0.05
aF-0.105
aa(lp134
F-0.09
aF0.05
aF-0.105
aasg14
(lp135
(lp136
F-7.623296525288703e-21
aF-2.710505431213761e-20
aF1.0
aa(lp137
F-7.623296525288703e-21
aF-2.710505431213761e-20
aF1.0
aa(lp138
F-7.623296525288703e-21
aF-2.710505431213761e-20
aF1.0
aa(lp139
F-7.623296525288703e-21
aF-2.710505431213761e-20
aF1.0
aasssg14
(lp140
g125
ag126
ag127
ag128
ag136
ag137
ag138
ag139
asg8
(lp141
g120
ag121
ag122
ag123
ag131
ag132
ag133
ag134
asa(dp142
g2
(lp143
F0.0
aF0.0
aF0.5385570434543867
aF-0.08207361083446252
aF0.0030591850230047095
aF0.48449298955749576
aF-0.8709311722870118
aF0.35996825608991007
aF-0.008456747240052229
aF0.5717689079366395
aF0.43595259193906266
aF0.22383049574208025
aF0.5998869135289873
aF-0.9974317999624329
aF-1.6539544943601865
aF-0.5121515334814095
aF1.07761472949065
aF0.17
aF-1.099733947696902
aF-0.43913293637173667
aF1.414940418356862
aF-0.8405098686441101
aF0.8468042225504779
aF-0.40389965956844365
aF0.16576297188678896
aF0.14592522022576462
aF0.09067509317993418
aF0.19586715281694625
aF0.701595167108749
aF-0.95130518769504
aF-0.2463392352827047
aF-0.785398
aF0.012918684423881237
aF-1.1273487394106072
aF1.5316761152417835
aF-0.5609373765232422
aF-0.06348580475131424
asg4
(dp144
g6
(dp145
g8
(lp146
(lp147
F0.09
aF0.05
aF-0.105
aa(lp148
F0.09
aF-0.05
aF-0.105
aa(lp149
F-0.09
aF-0.05
aF-0.105
aa(lp150
F-0.09
aF0.05
aF-0.105
aasg14
(lp151
(lp152
F1.2924697071141057e-26
aF-1.2924697071141057e-26
aF1.0
aa(lp153
F1.2924697071141057e-26
aF-1.2924697071141057e-26
aF1.0
aa(lp154
F1.2924697071141057e-26
aF-1.2924697071141057e-26
aF1.0
aa(lp155
F1.2924697071141057e-26
aF-1.2924697071141057e-26
aF1.0
aassg20
(dp156
g8
(lp157
(lp158
F0.09
aF0.05
aF-0.105
aa(lp159
F0.09
aF-0.05
aF-0.105
aa(lp160
F-0.09
aF-0.05
aF-0.105
aa(lp161
F-0.09
aF0.05
aF-0.105
aasg14
(lp162
(lp163
F6.776263578034403e-21
aF-5.082197683525802e-21
aF1.0
aa(lp164
F6.776263578034403e-21
aF-5.082197683525802e-21
aF1.0
aa(lp165
F6.776263578034403e-21
aF-5.082197683525802e-21
aF1.0
aa(lp166
F6.776263578034403e-21
aF-5.082197683525802e-21
aF1.0
aasssg14
(lp167
g152
ag153
ag154
ag155
ag163
ag164
ag165
ag166
asg8
(lp168
g147
ag148
ag149
ag150
ag158
ag159
ag160
ag161
asa(dp169
g2
(lp170
F0.0
aF0.0
aF0.6436877732821449
aF0.004087419013736585
aF5.229334429609594e-05
aF-0.47580867888950246
aF0.8795393063215757
aF-0.4629016070198547
aF0.5131825753125641
aF0.10398141192263155
aF0.6697475531751104
aF-1.9588058508676132
aF1.0905162535734472
aF0.5512744266482883
aF-2.2382108672968615
aF-0.7891324049281107
aF0.6123645696994215
aF0.17
aF-2.53787614253111
aF-1.156776262867058
aF-1.3973574081289848
aF-1.0216686417711727
aF0.5938342064547977
aF0.005604897231471062
aF0.16657737911752304
aF0.7137903792574101
aF-0.3393584985711536
aF-0.3386213281236413
aF0.7490091014745253
aF-0.4086268550346945
aF0.33135385446452364
aF-0.785398
aF-0.3817878391345235
aF-0.21747307767100799
aF0.2006368968382037
aF0.00836890487166407
aF0.37954253314788444
asg4
(dp171
g6
(dp172
g8
(lp173
(lp174
F0.09
aF0.05
aF-0.105
aa(lp175
F0.09
aF-0.05
aF-0.105
aa(lp176
F-0.09
aF-0.05
aF-0.105
aa(lp177
F-0.09
aF0.05
aF-0.105
aasg14
(lp178
(lp179
F5.169878828456423e-26
aF0.0
aF1.0
aa(lp180
F5.169878828456423e-26
aF0.0
aF1.0
aa(lp181
F5.169878828456423e-26
aF0.0
aF1.0
aa(lp182
F5.169878828456423e-26
aF0.0
aF1.0
aassg20
(dp183
g8
(lp184
(lp185
F0.09
aF0.05
aF-0.105
aa(lp186
F0.09
aF-0.05
aF-0.105
aa(lp187
F-0.09
aF-0.05
aF-0.105
aa(lp188
F-0.09
aF0.05
aF-0.105
aasg14
(lp189
(lp190
F-1.3234889800848443e-22
aF1.0587911840678754e-22
aF1.0
aa(lp191
F-1.3234889800848443e-22
aF1.0587911840678754e-22
aF1.0
aa(lp192
F-1.3234889800848443e-22
aF1.0587911840678754e-22
aF1.0
aa(lp193
F-1.3234889800848443e-22
aF1.0587911840678754e-22
aF1.0
aasssg14
(lp194
g179
ag180
ag181
ag182
ag190
ag191
ag192
ag193
asg8
(lp195
g174
ag175
ag176
ag177
ag185
ag186
ag187
ag188
asa(dp196
g2
(lp197
F0.0
aF0.0
aF0.6579914146796397
aF-0.1092452489954922
aF0.0625353162686083
aF0.34311046576628546
aF-0.9308222268901515
aF-0.3729538713260572
aF0.8870369008459998
aF-0.17036718326250522
aF0.4072491040773403
aF0.09237593508387265
aF1.0992814807944926
aF0.13815722893944815
aF-0.8115513737925666
aF-0.19368883217581967
aF0.8825672748515692
aF0.17
aF-0.6042008795805094
aF-0.7193816186602976
aF0.8985431402352837
aF-0.6410085079404546
aF1.5798095693221825
aF1.3043871845920976
aF0.1732586957692442
aF-0.34291060594587885
aF-0.017117737312956433
aF-0.2425401364344874
aF0.33028389405346065
aF-0.13271428289500012
aF-0.2313541548764458
aF-0.5197437083479294
aF-0.1584721082719281
aF-0.5050754707974665
aF0.9204023178355464
aF-0.5020484540439852
aF-0.07868266975255223
asg4
(dp198
g6
(dp199
g8
(lp200
(lp201
F0.09
aF0.05
aF-0.105
aa(lp202
F0.09
aF-0.05
aF-0.105
aa(lp203
F-0.09
aF-0.05
aF-0.105
aa(lp204
F-0.09
aF0.05
aF-0.105
aasg14
(lp205
(lp206
F5.082197683525802e-21
aF-3.3881317890172014e-21
aF1.0
aa(lp207
F5.082197683525802e-21
aF-3.3881317890172014e-21
aF1.0
aa(lp208
F5.082197683525802e-21
aF-3.3881317890172014e-21
aF1.0
aa(lp209
F5.082197683525802e-21
aF-3.3881317890172014e-21
aF1.0
aassg20
(dp210
g8
(lp211
(lp212
F0.09
aF0.05
aF-0.105
aa(lp213
F0.09
aF-0.05
aF-0.105
aa(lp214
F-0.09
aF-0.05
aF-0.105
aa(lp215
F-0.09
aF0.05
aF-0.105
aasg14
(lp216
(lp217
F-4.235164736271502e-22
aF-8.470329472543003e-22
aF1.0
aa(lp218
F-4.235164736271502e-22
aF-8.470329472543003e-22
aF1.0
aa(lp219
F-4.235164736271502e-22
aF-8.470329472543003e-22
aF1.0
aa(lp220
F-4.235164736271502e-22
aF-8.470329472543003e-22
aF1.0
aasssg14
(lp221
g206
ag207
ag208
ag209
ag217
ag218
ag219
ag220
asg8
(lp222
g201
ag202
ag203
ag204
ag212
ag213
ag214
ag215
asa(dp223
g2
(lp224
F0.0
aF0.0
aF0.4908811815999277
aF-0.10459536019902106
aF0.10863178594238294
aF-0.21626265792687963
aF-0.9646187892085695
aF-0.45303326036626246
aF0.0714752198748771
aF-0.3225012399924655
aF0.28642335389384654
aF-0.7349393321208049
aF1.4340996735046
aF0.6408116965123971
aF-2.0706598207538276
aF-0.6584297834210702
aF-0.09295099312348798
aF0.17
aF-0.6826884690650732
aF-0.13470976014172265
aF-1.2531331314352494
aF-1.0639068883403926
aF-1.1890659074414363
aF-1.2105137335338694
aF0.1684202299608943
aF0.21248126896992056
aF-0.14462935214729783
aF0.07850703565173921
aF1.4365765082049673
aF-1.2292192305632983
aF0.04100673387430874
aF-0.26444951478118867
aF-0.4056156935636266
aF-1.002678244388792
aF1.5410834411720953
aF-0.32804232239880665
aF0.17908498371431678
asg4
(dp225
g6
(dp226
g8
(lp227
(lp228
F0.09
aF0.05
aF-0.105
aa(lp229
F0.09
aF-0.05
aF-0.105
aa(lp230
F-0.09
aF-0.05
aF-0.105
aa(lp231
F-0.09
aF0.05
aF-0.105
aasg14
(lp232
(lp233
F-3.3881317890172014e-21
aF0.0
aF1.0
aa(lp234
F-3.3881317890172014e-21
aF0.0
aF1.0
aa(lp235
F-3.3881317890172014e-21
aF0.0
aF1.0
aa(lp236
F-3.3881317890172014e-21
aF0.0
aF1.0
aassg20
(dp237
g8
(lp238
(lp239
F0.09
aF0.05
aF-0.105
aa(lp240
F0.09
aF-0.05
aF-0.105
aa(lp241
F-0.09
aF-0.05
aF-0.105
aa(lp242
F-0.09
aF0.05
aF-0.105
aasg14
(lp243
(lp244
F0.0
aF-1.6940658945086007e-21
aF1.0
aa(lp245
F0.0
aF-1.6940658945086007e-21
aF1.0
aa(lp246
F0.0
aF-1.6940658945086007e-21
aF1.0
aa(lp247
F0.0
aF-1.6940658945086007e-21
aF1.0
aasssg14
(lp248
g233
ag234
ag235
ag236
ag244
ag245
ag246
ag247
asg8
(lp249
g228
ag229
ag230
ag231
ag239
ag240
ag241
ag242
asa(dp250
g2
(lp251
F0.0
aF0.0
aF0.45811688994521826
aF-0.18308284579206088
aF-0.1442297669586454
aF-0.9145167945947819
aF-0.3306621815445801
aF-0.3631738856375699
aF0.746374140862042
aF0.21276345838020816
aF0.5126434176103806
aF-2.1881871735829614
aF0.14588585669523751
aF0.8723086557108017
aF-1.2064220203824025
aF1.4564710334543933
aF0.6505639947722031
aF0.17
aF-3.1210713187728736
aF-1.1186756832827425
aF-0.5651007237647663
aF-0.15117586190313492
aF1.1819442465890406
aF-1.5159807758359614
aF0.1705979756571343
aF0.5033821775268836
aF0.25966001765581737
aF-0.6038095449658599
aF1.3137547530636005
aF-0.2531327060403503
aF-0.45898799346491237
aF0.2098998729898569
aF-0.610865
aF-0.9144691152705327
aF1.8121242809415508
aF-0.5674817856581533
aF0.2463387092941555
asg4
(dp252
g6
(dp253
g8
(lp254
(lp255
F0.09
aF0.05
aF-0.105
aa(lp256
F0.09
aF-0.05
aF-0.105
aa(lp257
F-0.09
aF-0.05
aF-0.105
aa(lp258
F-0.09
aF0.05
aF-0.105
aasg14
(lp259
(lp260
F-3.2311742677852644e-27
aF-6.462348535570529e-27
aF1.0
aa(lp261
F-3.2311742677852644e-27
aF-6.462348535570529e-27
aF1.0
aa(lp262
F-3.2311742677852644e-27
aF-6.462348535570529e-27
aF1.0
aa(lp263
F-3.2311742677852644e-27
aF-6.462348535570529e-27
aF1.0
aassg20
(dp264
g8
(lp265
(lp266
F0.09
aF0.05
aF-0.105
aa(lp267
F0.09
aF-0.05
aF-0.105
aa(lp268
F-0.09
aF-0.05
aF-0.105
aa(lp269
F-0.09
aF0.05
aF-0.105
aasg14
(lp270
(lp271
F1.6940658945086007e-21
aF0.0
aF1.0
aa(lp272
F1.6940658945086007e-21
aF0.0
aF1.0
aa(lp273
F1.6940658945086007e-21
aF0.0
aF1.0
aa(lp274
F1.6940658945086007e-21
aF0.0
aF1.0
aasssg14
(lp275
g260
ag261
ag262
ag263
ag271
ag272
ag273
ag274
asg8
(lp276
g255
ag256
ag257
ag258
ag266
ag267
ag268
ag269
asa.