(lp0
(dp1
S'q'
p2
(lp3
I0
aI0
aF0.5
acnumpy.core.multiarray
scalar
p4
(cnumpy
dtype
p5
(S'f8'
p6
I0
I1
tp7
Rp8
(I3
S'<'
p9
NNNI-1
I-1
I0
tp10
bS'z\xfc\xc4\xdf\x8a\x91\x98?'
p11
tp12
Rp13
ag4
(g8
S'\x98 \xccI3\xfe\xc1\xbf'
p14
tp15
Rp16
ag4
(g8
S'6Vm\xe9\x0b\xeak?'
p17
tp18
Rp19
ag4
(g8
S']a\x05\xc2:\xac\xef?'
p20
tp21
Rp22
aF0.6999855522549039
aF0.9276544431913324
aF0.46015487429755053
aF0.60149341974203
aF-2.9826771295625467
aF0.7806579892382506
aF0.6768855354431949
aF-1.7605761352488443
aF1.236810979535855
aF0.3875511194055208
aF0.17
aF0.2130147410909622
aF-1.1034001972967424
aF1.5681761808704004
aF-1.3628843474157026
aF1.0729189779236072
aF-0.1758877755738737
aF0.17013882045873385
aF0.01735076702837457
aF0.03627168849853646
aF0.5538837086421622
aF0.41979352741624665
aF-0.3556517748534568
aF0.03476247425957191
aF0.25140821224503607
aF-0.432398860545271
aF-1.2202470573809208
aF1.153039616181486
aF-0.248015192137651
aF0.3713743131483641
asS'contact_points'
p23
(dp24
S'LLEG_JOINT5'
p25
(dp26
S'P'
p27
(lp28
(lp29
F0.09
aF0.05
aF-0.105
aa(lp30
F0.09
aF-0.05
aF-0.105
aa(lp31
F-0.09
aF-0.05
aF-0.105
aa(lp32
F-0.09
aF0.05
aF-0.105
aasS'N'
p33
(lp34
(lp35
F-5.551115123125783e-17
aF1.3877787807814457e-17
aF1.0
aa(lp36
F-5.551115123125783e-17
aF1.3877787807814457e-17
aF1.0
aa(lp37
F-5.551115123125783e-17
aF1.3877787807814457e-17
aF1.0
aa(lp38
F-5.551115123125783e-17
aF1.3877787807814457e-17
aF1.0
aassS'RLEG_JOINT5'
p39
(dp40
g27
(lp41
(lp42
F0.09
aF0.05
aF-0.105
aa(lp43
F0.09
aF-0.05
aF-0.105
aa(lp44
F-0.09
aF-0.05
aF-0.105
aa(lp45
F-0.09
aF0.05
aF-0.105
aasg33
(lp46
(lp47
F0.0
aF-1.3877787807814457e-17
aF0.9999999999999999
aa(lp48
F0.0
aF-1.3877787807814457e-17
aF0.9999999999999999
aa(lp49
F0.0
aF-1.3877787807814457e-17
aF0.9999999999999999
aa(lp50
F0.0
aF-1.3877787807814457e-17
aF0.9999999999999999
aasssg33
(lp51
g35
ag36
ag37
ag38
ag47
ag48
ag49
ag50
asg27
(lp52
g29
ag30
ag31
ag32
ag42
ag43
ag44
ag45
asa(dp53
g2
(lp54
I0
aI0
aF0.5
ag4
(g8
S"3\xc4L\xdf'^\xb8?"
p55
tp56
Rp57
ag4
(g8
S'u\xd3\xcfF\xfc\x1f\xd1?'
p58
tp59
Rp60
ag4
(g8
S'\xb7w\xa0\x01*6\x9b\xbf'
p61
tp62
Rp63
ag4
(g8
S'd\x11\x98\x8e\xa9\xab\xee?'
p64
tp65
Rp66
aF-0.12055777346815899
aF0.9066790486159908
aF0.3247143551696483
aF-0.39009472339395795
aF-2.228402042571172
aF1.177420161639676
aF0.8693465813545724
aF-2.259651630669895
aF-1.0391680673544612
aF-1.053812041738402
aF0.17
aF-1.4416126002560194
aF-0.8916469924544921
aF-1.42426357310692
aF-1.3684313839884565
aF-0.08914533924928181
aF0.03409697501426434
aF0.1709330782927261
aF-0.27336494409307
aF-0.06361791142135248
aF0.189038239851405
aF0.3726267704852123
aF-0.7720367234668996
aF0.15451395011550506
aF0.08283700374810732
aF-0.2593949993858924
aF-1.6983322777257526
aF1.0094627755339476
aF0.10059737388726564
aF-0.06916577374868316
asg23
(dp67
g25
(dp68
g27
(lp69
(lp70
F0.09
aF0.05
aF-0.105
aa(lp71
F0.09
aF-0.05
aF-0.105
aa(lp72
F-0.09
aF-0.05
aF-0.105
aa(lp73
F-0.09
aF0.05
aF-0.105
aasg33
(lp74
(lp75
F0.0
aF-1.1102230246251565e-16
aF1.0
aa(lp76
F0.0
aF-1.1102230246251565e-16
aF1.0
aa(lp77
F0.0
aF-1.1102230246251565e-16
aF1.0
aa(lp78
F0.0
aF-1.1102230246251565e-16
aF1.0
aassg39
(dp79
g27
(lp80
(lp81
F0.09
aF0.05
aF-0.105
aa(lp82
F0.09
aF-0.05
aF-0.105
aa(lp83
F-0.09
aF-0.05
aF-0.105
aa(lp84
F-0.09
aF0.05
aF-0.105
aasg33
(lp85
(lp86
F-6.938893903907228e-18
aF1.3877787807814457e-17
aF1.0
aa(lp87
F-6.938893903907228e-18
aF1.3877787807814457e-17
aF1.0
aa(lp88
F-6.938893903907228e-18
aF1.3877787807814457e-17
aF1.0
aa(lp89
F-6.938893903907228e-18
aF1.3877787807814457e-17
aF1.0
aasssg33
(lp90
g75
ag76
ag77
ag78
ag86
ag87
ag88
ag89
asg27
(lp91
g70
ag71
ag72
ag73
ag81
ag82
ag83
ag84
asa(dp92
g2
(lp93
I0
aI0
aF0.5
ag4
(g8
S'\xb1\xf6Z\xeb\x96 g?'
p94
tp95
Rp96
ag4
(g8
S'\x9d{\x85@\xe7\xdb\xc1\xbf'
p97
tp98
Rp99
ag4
(g8
S'\x9d\x9d2\xd6\xca\x11:?'
p100
tp101
Rp102
ag4
(g8
S'O\x93\x98\xab\xd6\xaf\xef?'
p103
tp104
Rp105
aF0.6247837000455416
aF1.0150383260809923
aF0.4170894145073796
aF0.25716372794532627
aF0.47119592401488974
aF1.0232785648966063
aF-1.5813977058235078
aF-1.2286575913684614
aF-0.8955062497833772
aF1.3535286991871096
aF0.17
aF-0.6026598066403994
aF-0.8018074938160333
aF-0.7558914506172721
aF-0.5849535825749816
aF-1.3483403951139377
aF-0.9500434494569634
aF0.17201596180769427
aF0.5981228587669446
aF0.03287969429316778
aF0.00357476076732155
aF0.4411659267233393
aF0.07864122647895622
aF0.03386192964620516
aF-0.15624212146233996
aF-0.4989559769659489
aF-0.808040572267674
aF1.0857029063739847
aF0.015791786651138118
aF0.45853410252661253
asg23
(dp106
g25
(dp107
g27
(lp108
(lp109
F0.09
aF0.05
aF-0.105
aa(lp110
F0.09
aF-0.05
aF-0.105
aa(lp111
F-0.09
aF-0.05
aF-0.105
aa(lp112
F-0.09
aF0.05
aF-0.105
aasg33
(lp113
(lp114
F0.0
aF1.3877787807814457e-17
aF1.0
aa(lp115
F0.0
aF1.3877787807814457e-17
aF1.0
aa(lp116
F0.0
aF1.3877787807814457e-17
aF1.0
aa(lp117
F0.0
aF1.3877787807814457e-17
aF1.0
aassg39
(dp118
g27
(lp119
(lp120
F0.09
aF0.05
aF-0.105
aa(lp121
F0.09
aF-0.05
aF-0.105
aa(lp122
F-0.09
aF-0.05
aF-0.105
aa(lp123
F-0.09
aF0.05
aF-0.105
aasg33
(lp124
(lp125
F1.734723475976807e-18
aF-3.469446951953614e-18
aF1.0
aa(lp126
F1.734723475976807e-18
aF-3.469446951953614e-18
aF1.0
aa(lp127
F1.734723475976807e-18
aF-3.469446951953614e-18
aF1.0
aa(lp128
F1.734723475976807e-18
aF-3.469446951953614e-18
aF1.0
aasssg33
(lp129
g114
ag115
ag116
ag117
ag125
ag126
ag127
ag128
asg27
(lp130
g109
ag110
ag111
ag112
ag120
ag121
ag122
ag123
asa(dp131
g2
(lp132
I0
aI0
aF0.5
ag4
(g8
S'y\xe5m\x83\xcfi\xb2\xbf'
p133
tp134
Rp135
ag4
(g8
S'\xd25\xb0S\xd3B\xb3\xbf'
p136
tp137
Rp138
ag4
(g8
S'Z\xb7\xf8\xe9\xa1Iv\xbf'
p139
tp140
Rp141
ag4
(g8
S'\xd2\x8b\xb2<a\xd3\xef?'
p142
tp143
Rp144
aF0.03104601067817392
aF0.15312184195961373
aF-0.08435833539303039
aF0.4757411390883165
aF-0.08314763397915659
aF-0.12401295188520334
aF0.8269350549578831
aF-1.841638929248759
aF-0.9899627235487395
aF-1.1443214049248125
aF0.17
aF-3.0006879206950394
aF-1.5659016890606359
aF-1.283213520684053
aF-1.0120052015426788
aF-0.5852361741492227
aF-0.6298158689050543
aF0.16998280014609116
aF-0.2819813491207633
aF0.39949946455723584
aF-1.331953176140674
aF2.2783742607752178
aF-0.9542801629146254
aF-0.29971896145863364
aF-0.7603034739120769
aF-0.013765117032999763
aF-0.7111885150371848
aF1.7539653589142405
aF-1.2606290364909838
aF-0.23152582194250582
asg23
(dp145
g25
(dp146
g27
(lp147
(lp148
F0.09
aF0.05
aF-0.105
aa(lp149
F0.09
aF-0.05
aF-0.105
aa(lp150
F-0.09
aF-0.05
aF-0.105
aa(lp151
F-0.09
aF0.05
aF-0.105
aasg33
(lp152
(lp153
F2.7755575615628914e-17
aF-3.0357660829594124e-18
aF1.0
aa(lp154
F2.7755575615628914e-17
aF-3.0357660829594124e-18
aF1.0
aa(lp155
F2.7755575615628914e-17
aF-3.0357660829594124e-18
aF1.0
aa(lp156
F2.7755575615628914e-17
aF-3.0357660829594124e-18
aF1.0
aassg39
(dp157
g27
(lp158
(lp159
F0.09
aF0.05
aF-0.105
aa(lp160
F0.09
aF-0.05
aF-0.105
aa(lp161
F-0.09
aF-0.05
aF-0.105
aa(lp162
F-0.09
aF0.05
aF-0.105
aasg33
(lp163
(lp164
F-5.551115123125783e-17
aF-1.3877787807814457e-16
aF1.0000000000000002
aa(lp165
F-5.551115123125783e-17
aF-1.3877787807814457e-16
aF1.0000000000000002
aa(lp166
F-5.551115123125783e-17
aF-1.3877787807814457e-16
aF1.0000000000000002
aa(lp167
F-5.551115123125783e-17
aF-1.3877787807814457e-16
aF1.0000000000000002
aasssg33
(lp168
g153
ag154
ag155
ag156
ag164
ag165
ag166
ag167
asg27
(lp169
g148
ag149
ag150
ag151
ag159
ag160
ag161
ag162
asa(dp170
g2
(lp171
I0
aI0
aF0.5
ag4
(g8
S'\xaa\xe6/\xd2\xb6\xf6\x96\xbf'
p172
tp173
Rp174
ag4
(g8
S'\xc5\x84\x11\rs:\x93\xbf'
p175
tp176
Rp177
ag4
(g8
S'\x97]\x01\xdb\xe2\x9b;\xbf'
p178
tp179
Rp180
ag4
(g8
S'\xe1Z\x97\x8f~\xfc\xef?'
p181
tp182
Rp183
aF-0.22293182313705506
aF0.3068329636125594
aF0.09607671054086775
aF-0.342282862006681
aF0.08186066964335792
aF0.5532285774584016
aF-0.367212626242597
aF-1.4981659335166067
aF0.8402989353659558
aF1.3923221652559106
aF0.17
aF-2.705717539020417
aF-0.8059844731388904
aF-0.11904161330952379
aF-0.9288386139538132
aF1.4698176865703971
aF0.2908169449018858
aF0.17435502457402413
aF0.45567961404388435
aF-0.12662768276343153
aF-0.12242650173497305
aF0.3441660542026593
aF0.20571945601603447
aF0.12680564303350061
aF-0.13579622747502162
aF0.05388336677396177
aF0.12710509246715773
aF0.6532220535461979
aF-1.0131397515092126
aF-0.19324289970175124
asg23
(dp184
g25
(dp185
g27
(lp186
(lp187
F0.09
aF0.05
aF-0.105
aa(lp188
F0.09
aF-0.05
aF-0.105
aa(lp189
F-0.09
aF-0.05
aF-0.105
aa(lp190
F-0.09
aF0.05
aF-0.105
aasg33
(lp191
(lp192
F-5.551115123125783e-17
aF-6.245004513516506e-17
aF1.0
aa(lp193
F-5.551115123125783e-17
aF-6.245004513516506e-17
aF1.0
aa(lp194
F-5.551115123125783e-17
aF-6.245004513516506e-17
aF1.0
aa(lp195
F-5.551115123125783e-17
aF-6.245004513516506e-17
aF1.0
aassg39
(dp196
g27
(lp197
(lp198
F0.09
aF0.05
aF-0.105
aa(lp199
F0.09
aF-0.05
aF-0.105
aa(lp200
F-0.09
aF-0.05
aF-0.105
aa(lp201
F-0.09
aF0.05
aF-0.105
aasg33
(lp202
(lp203
F-5.551115123125783e-17
aF0.0
aF1.0
aa(lp204
F-5.551115123125783e-17
aF0.0
aF1.0
aa(lp205
F-5.551115123125783e-17
aF0.0
aF1.0
aa(lp206
F-5.551115123125783e-17
aF0.0
aF1.0
aasssg33
(lp207
g192
ag193
ag194
ag195
ag203
ag204
ag205
ag206
asg27
(lp208
g187
ag188
ag189
ag190
ag198
ag199
ag200
ag201
asa(dp209
g2
(lp210
I0
aI0
aF0.5
ag4
(g8
S'x%\x1bi\x89\xfd\xa9\xbf'
p211
tp212
Rp213
ag4
(g8
S'\xb1\xaf\rt3\xef\xc7?'
p214
tp215
Rp216
ag4
(g8
S'\x91C\xf7\xd0\xe1\xd0\x83?'
p217
tp218
Rp219
ag4
(g8
S'\xf9\xbe`\xb2^d\xef?'
p220
tp221
Rp222
aF0.362324083284856
aF0.3090268594452754
aF-0.06944489954700273
aF-0.031858440858334
aF-2.2771301502986763
aF1.2599872222006225
aF0.9896303504640842
aF-1.5832108553444202
aF0.5594242233574966
aF-0.04155863711249963
aF0.17
aF-0.2685420179899558
aF-0.8523367011254513
aF-0.49720805395138834
aF-1.7308286021486774
aF1.4210056708538465
aF1.3619799884617698
aF0.16544198700247426
aF0.25840847989092375
aF0.030877110103926242
aF-1.075640053455525
aF0.3649875696223796
aF0.39244203794194843
aF-0.03259940214075541
aF-0.26260792419324475
aF0.05582572181867851
aF-0.6535741713396908
aF1.0877454707146597
aF-0.2746138196830059
aF-0.13063352522199437
asg23
(dp223
g25
(dp224
g27
(lp225
(lp226
F0.09
aF0.05
aF-0.105
aa(lp227
F0.09
aF-0.05
aF-0.105
aa(lp228
F-0.09
aF-0.05
aF-0.105
aa(lp229
F-0.09
aF0.05
aF-0.105
aasg33
(lp230
(lp231
F0.0
aF8.673617379884035e-19
aF1.0
aa(lp232
F0.0
aF8.673617379884035e-19
aF1.0
aa(lp233
F0.0
aF8.673617379884035e-19
aF1.0
aa(lp234
F0.0
aF8.673617379884035e-19
aF1.0
aassg39
(dp235
g27
(lp236
(lp237
F0.09
aF0.05
aF-0.105
aa(lp238
F0.09
aF-0.05
aF-0.105
aa(lp239
F-0.09
aF-0.05
aF-0.105
aa(lp240
F-0.09
aF0.05
aF-0.105
aasg33
(lp241
(lp242
F1.6653345369377348e-16
aF0.0
aF1.0
aa(lp243
F1.6653345369377348e-16
aF0.0
aF1.0
aa(lp244
F1.6653345369377348e-16
aF0.0
aF1.0
aa(lp245
F1.6653345369377348e-16
aF0.0
aF1.0
aasssg33
(lp246
g231
ag232
ag233
ag234
ag242
ag243
ag244
ag245
asg27
(lp247
g226
ag227
ag228
ag229
ag237
ag238
ag239
ag240
asa(dp248
g2
(lp249
I0
aI0
aF0.5
ag4
(g8
S'\xfb\x8f\xb3\xd0~\x7f\xc6\xbf'
p250
tp251
Rp252
ag4
(g8
S'l\xe0\xb6\x81\xcb\x17\xb8\xbf'
p253
tp254
Rp255
ag4
(g8
S'\xcf\xdc\x18;\xdaI\x91\xbf'
p256
tp257
Rp258
ag4
(g8
S'\xe1\x95\x11sVZ\xef?'
p259
tp260
Rp261
aF-0.06016414113256807
aF0.9740923152790592
aF0.6009699938749578
aF-0.0842439177322275
aF1.0362209134790774
aF1.26688260150379
aF-0.5221886847164894
aF-1.461919109180332
aF0.33313204332572965
aF0.038009144996064226
aF0.17
aF-0.7204349057831729
aF-0.22145423353627502
aF1.5638869919007583
aF-0.20299373532424303
aF-1.567081938271123
aF0.7865753992400484
aF0.1720247589876059
aF0.508908763128393
aF0.4429562576068119
aF-1.8988936816786348
aF1.5591172450518567
aF0.07554794373022089
aF0.2126334153079812
aF-0.30604698730629537
aF-0.47890986484185183
aF0.3180068340968196
aF1.5961235085229637
aF-1.0116682558036905
aF0.4000513260512675
asg23
(dp262
g25
(dp263
g27
(lp264
(lp265
F0.09
aF0.05
aF-0.105
aa(lp266
F0.09
aF-0.05
aF-0.105
aa(lp267
F-0.09
aF-0.05
aF-0.105
aa(lp268
F-0.09
aF0.05
aF-0.105
aasg33
(lp269
(lp270
F0.0
aF5.551115123125783e-17
aF0.9999999999999999
aa(lp271
F0.0
aF5.551115123125783e-17
aF0.9999999999999999
aa(lp272
F0.0
aF5.551115123125783e-17
aF0.9999999999999999
aa(lp273
F0.0
aF5.551115123125783e-17
aF0.9999999999999999
aassg39
(dp274
g27
(lp275
(lp276
F0.09
aF0.05
aF-0.105
aa(lp277
F0.09
aF-0.05
aF-0.105
aa(lp278
F-0.09
aF-0.05
aF-0.105
aa(lp279
F-0.09
aF0.05
aF-0.105
aasg33
(lp280
(lp281
F2.220446049250313e-16
aF0.0
aF0.9999999999999999
aa(lp282
F2.220446049250313e-16
aF0.0
aF0.9999999999999999
aa(lp283
F2.220446049250313e-16
aF0.0
aF0.9999999999999999
aa(lp284
F2.220446049250313e-16
aF0.0
aF0.9999999999999999
aasssg33
(lp285
g270
ag271
ag272
ag273
ag281
ag282
ag283
ag284
asg27
(lp286
g265
ag266
ag267
ag268
ag276
ag277
ag278
ag279
asa(dp287
g2
(lp288
I0
aI0
aF0.5
ag4
(g8
S'\x82M\x153\xdb\x90\x8c\xbf'
p289
tp290
Rp291
ag4
(g8
S'\x01F\n3\xf5\x99\xc3?'
p292
tp293
Rp294
ag4
(g8
S'\xf3\xcc\x1b\x11_\xb5a?'
p295
tp296
Rp297
ag4
(g8
S'\x04\x1f\x86\xf8\x8c\x9e\xef?'
p298
tp299
Rp300
aF0.45058866478361126
aF0.7707284556628539
aF0.40269955035010807
aF0.41778380624295586
aF-1.7935630687961508
aF0.7072726786580914
aF-0.11936703715578978
aF-1.793117539827819
aF0.3814165913612195
aF0.015220335721932488
aF0.17
aF-2.1720642137719524
aF-1.0983300322250393
aF0.09082875075104124
aF-0.14475691700244475
aF0.9671962185333929
aF-0.10827273882551691
aF0.16735465949510908
aF-0.12885525860671893
aF0.4216187555608347
aF-1.7127868617527098
aF2.4546863640286247
aF-0.5482337401304682
aF-0.4554896497956694
aF-0.15448161833316998
aF0.07513662266705579
aF-1.6491293183967486
aF0.5406188720392328
aF0.41758590844005417
aF0.01567967834350037
asg23
(dp301
g25
(dp302
g27
(lp303
(lp304
F0.09
aF0.05
aF-0.105
aa(lp305
F0.09
aF-0.05
aF-0.105
aa(lp306
F-0.09
aF-0.05
aF-0.105
aa(lp307
F-0.09
aF0.05
aF-0.105
aasg33
(lp308
(lp309
F-5.551115123125783e-17
aF6.938893903907228e-18
aF1.0
aa(lp310
F-5.551115123125783e-17
aF6.938893903907228e-18
aF1.0
aa(lp311
F-5.551115123125783e-17
aF6.938893903907228e-18
aF1.0
aa(lp312
F-5.551115123125783e-17
aF6.938893903907228e-18
aF1.0
aassg39
(dp313
g27
(lp314
(lp315
F0.09
aF0.05
aF-0.105
aa(lp316
F0.09
aF-0.05
aF-0.105
aa(lp317
F-0.09
aF-0.05
aF-0.105
aa(lp318
F-0.09
aF0.05
aF-0.105
aasg33
(lp319
(lp320
F0.0
aF0.0
aF0.9999999999999999
aa(lp321
F0.0
aF0.0
aF0.9999999999999999
aa(lp322
F0.0
aF0.0
aF0.9999999999999999
aa(lp323
F0.0
aF0.0
aF0.9999999999999999
aasssg33
(lp324
g309
ag310
ag311
ag312
ag320
ag321
ag322
ag323
asg27
(lp325
g304
ag305
ag306
ag307
ag315
ag316
ag317
ag318
asa(dp326
g2
(lp327
I0
aI0
aF0.5
ag4
(g8
S't2g\xc5\xdb\xa2\xc2\xbf'
p328
tp329
Rp330
ag4
(g8
S'c\xfeO\xb4\xea\xf2\x8f?'
p331
tp332
Rp333
ag4
(g8
S"\xd0\x0fl5'\xcfb?"
p334
tp335
Rp336
ag4
(g8
S'\xedF\xd5\xc6\xad\xa7\xef?'
p337
tp338
Rp339
aF0.6042476757803603
aF0.8012041695692582
aF0.4181296412096487
aF0.7504804491194154
aF-2.592287637957422
aF0.4121885920630441
aF0.7593707056283348
aF-1.0469877973826105
aF-0.5514184061344332
aF-1.3089581339988197
aF0.17
aF-2.655169342828006
aF-1.1295172392500064
aF1.0151009974950929
aF-1.9902143148539726
aF-1.037175379601901
aF0.30608508262074796
aF0.1674322073219494
aF-0.39751486733627034
aF0.4864094549666259
aF-0.5195063735320318
aF0.7064135406789213
aF-0.46870166513882006
aF-0.2988571536527137
aF-0.6053671934730598
aF-0.1717554433449518
aF0.1262693977368321
aF1.323514247481191
aF-0.6435103037844656
aF0.1289780197581239
asg23
(dp340
g25
(dp341
g27
(lp342
(lp343
F0.09
aF0.05
aF-0.105
aa(lp344
F0.09
aF-0.05
aF-0.105
aa(lp345
F-0.09
aF-0.05
aF-0.105
aa(lp346
F-0.09
aF0.05
aF-0.105
aasg33
(lp347
(lp348
F0.0
aF-4.163336342344337e-17
aF1.0
aa(lp349
F0.0
aF-4.163336342344337e-17
aF1.0
aa(lp350
F0.0
aF-4.163336342344337e-17
aF1.0
aa(lp351
F0.0
aF-4.163336342344337e-17
aF1.0
aassg39
(dp352
g27
(lp353
(lp354
F0.09
aF0.05
aF-0.105
aa(lp355
F0.09
aF-0.05
aF-0.105
aa(lp356
F-0.09
aF-0.05
aF-0.105
aa(lp357
F-0.09
aF0.05
aF-0.105
aasg33
(lp358
(lp359
F0.0
aF8.326672684688674e-17
aF1.0
aa(lp360
F0.0
aF8.326672684688674e-17
aF1.0
aa(lp361
F0.0
aF8.326672684688674e-17
aF1.0
aa(lp362
F0.0
aF8.326672684688674e-17
aF1.0
aasssg33
(lp363
g348
ag349
ag350
ag351
ag359
ag360
ag361
ag362
asg27
(lp364
g343
ag344
ag345
ag346
ag354
ag355
ag356
ag357
asa(dp365
g2
(lp366
I0
aI0
aF0.5
ag4
(g8
S'\x9eb$\x00p\xa7\xb3?'
p367
tp368
Rp369
ag4
(g8
S"\xe3\x82')\xf3o\xc7?"
p370
tp371
Rp372
ag4
(g8
S'\xd5\x9b<\xf2\xb9`\x8d\xbf'
p373
tp374
Rp375
ag4
(g8
S'/B\\\x0e\x0c\\\xef?'
p376
tp377
Rp378
aF-0.4039530880190726
aF0.3258009938404939
aF0.09665382794604638
aF0.456825361784709
aF0.1799199311103581
aF1.349612030614276
aF1.004505756768214
aF-0.802349936854545
aF0.19830837690225267
aF0.19543586053798712
aF0.17
aF-0.009928363343262081
aF-0.5735829985750933
aF0.9249982103649053
aF-0.08302047137206303
aF-1.0518474425472073
aF1.4919360506118442
aF0.17361295039235286
aF0.0660586779723632
aF0.05065025287393071
aF-2.0375849572802793
aF2.329079712235419
aF-0.20582156756238157
aF-0.14113005516489552
aF0.28856202918033347
aF-0.26462381040322863
aF-0.7338919893086635
aF0.6069112813766218
aF-0.5240687012575646
aF-0.022253485289409958
asg23
(dp379
g25
(dp380
g27
(lp381
(lp382
F0.09
aF0.05
aF-0.105
aa(lp383
F0.09
aF-0.05
aF-0.105
aa(lp384
F-0.09
aF-0.05
aF-0.105
aa(lp385
F-0.09
aF0.05
aF-0.105
aasg33
(lp386
(lp387
F0.0
aF2.7755575615628914e-17
aF0.9999999999999999
aa(lp388
F0.0
aF2.7755575615628914e-17
aF0.9999999999999999
aa(lp389
F0.0
aF2.7755575615628914e-17
aF0.9999999999999999
aa(lp390
F0.0
aF2.7755575615628914e-17
aF0.9999999999999999
aassg39
(dp391
g27
(lp392
(lp393
F0.09
aF0.05
aF-0.105
aa(lp394
F0.09
aF-0.05
aF-0.105
aa(lp395
F-0.09
aF-0.05
aF-0.105
aa(lp396
F-0.09
aF0.05
aF-0.105
aasg33
(lp397
(lp398
F0.0
aF4.85722573273506e-17
aF1.0
aa(lp399
F0.0
aF4.85722573273506e-17
aF1.0
aa(lp400
F0.0
aF4.85722573273506e-17
aF1.0
aa(lp401
F0.0
aF4.85722573273506e-17
aF1.0
aasssg33
(lp402
g387
ag388
ag389
ag390
ag398
ag399
ag400
ag401
asg27
(lp403
g382
ag383
ag384
ag385
ag393
ag394
ag395
ag396
asa.