(dp0
S'q'
p1
(lp2
F0.0
aF0.0
aF0.4467552149459755
aF-0.31679550804158285
aF0.0600634466911748
aF0.813899819827778
aF-0.48332191315991685
aF0.38419964430335796
aF0.09897455544689529
aF0.7701587972349491
aF0.5394952430367294
aF-0.7719749779403142
aF1.612378298790683
aF0.9548276882919147
aF-1.004529030500232
aF1.4583167643303125
aF0.8234172897710079
aF0.17
aF-2.422377642244723
aF0.13839173027420681
aF-0.9751997851423452
aF-0.021507424523705243
aF-0.956846199037482
aF-0.7909165661799799
aF0.16649783680750888
aF-0.523599
aF0.610865
aF-0.9154675298603255
aF1.1037960010648176
aF-0.9898158883440943
aF-0.586550494724067
aF-0.3822522245230739
aF-0.5848094534475085
aF-1.9560381533081506
aF1.8136562639076603
aF-0.4973315903473613
aF0.27031316658643934
asS'contact_points'
p3
(dp4
S'LLEG_JOINT5'
p5
(dp6
S'P'
p7
(lp8
(lp9
F0.09
aF0.05
aF-0.105
aa(lp10
F0.09
aF-0.05
aF-0.105
aa(lp11
F-0.09
aF-0.05
aF-0.105
aa(lp12
F-0.09
aF0.05
aF-0.105
aasS'N'
p13
(lp14
(lp15
F1.3552527156068805e-20
aF-1.3552527156068805e-20
aF1.0
aa(lp16
F1.3552527156068805e-20
aF-1.3552527156068805e-20
aF1.0
aa(lp17
F1.3552527156068805e-20
aF-1.3552527156068805e-20
aF1.0
aa(lp18
F1.3552527156068805e-20
aF-1.3552527156068805e-20
aF1.0
aassS'RLEG_JOINT5'
p19
(dp20
g7
(lp21
(lp22
F0.09
aF0.05
aF-0.105
aa(lp23
F0.09
aF-0.05
aF-0.105
aa(lp24
F-0.09
aF-0.05
aF-0.105
aa(lp25
F-0.09
aF0.05
aF-0.105
aasg13
(lp26
(lp27
F1.0339757656912846e-25
aF1.2924697071141057e-25
aF1.0
aa(lp28
F1.0339757656912846e-25
aF1.2924697071141057e-25
aF1.0
aa(lp29
F1.0339757656912846e-25
aF1.2924697071141057e-25
aF1.0
aa(lp30
F1.0339757656912846e-25
aF1.2924697071141057e-25
aF1.0
aasssg13
(lp31
g15
ag16
ag17
ag18
ag27
ag28
ag29
ag30
asg7
(lp32
g9
ag10
ag11
ag12
ag22
ag23
ag24
ag25
as.