(lp0
(lp1
(lp2
(lp3
F1.0194297896829527
aF-0.8237062139971066
aF0.9460091080938743
aF0.9603362230680129
aF0.1555759881267989
aF0.148780471067685
aF0.17724226925514064
aF-0.023635761598615773
aF0.6844299725323008
aF-0.3878511642375658
aF0.5886035558098937
aF0.7442621308989825
aF0.4181593927692125
aF0.04494954714074753
aF-0.38289559779276655
aF-0.0003859788524524168
aF0.015666112491628106
aF0.16093774572951186
aF0.6875998786664433
aF-1.408766574969003
aF-0.9514177340615596
aF-0.9296188014215951
aF1.4114349024894446
aF-0.7862212295710782
aF0.1663390758064811
aF0.6122544179767899
aF-0.07921265114251921
aF-0.7008637546468363
aF0.5105431356870174
aF0.3907553077177087
aF-0.06374562730542718
aF-0.4135719445537503
aF-0.5175721926921688
aF-0.06605281069676594
aF0.2761903549339377
aF-0.2216747081689884
aF0.26890060099669966
aa(lp4
S'hrp2_rleg_rom'
p5
aS'hrp2_lleg_rom'
p6
aS'hrp2_rarm_rom'
p7
aaa(lp8
(lp9
F0.9550762708025455
aF-0.8444894958748957
aF0.7679189578852321
aF0.9162429666137494
aF0.20767254574756966
aF0.27108924636092385
aF0.2094792600259644
aF0.052391406413429244
aF1.0472
aF0.3026669329643832
aF0.38312981560477116
aF0.7791349414483209
aF0.3655018331981459
aF0.028754717725323856
aF-0.3353906855392722
aF-0.0008875519687697887
aF0.021193171724157283
aF0.1604077989135628
aF-1.2806201724805801
aF-0.4543473525880767
aF-1.4806215681213122
aF-0.3455958910276571
aF-0.4878388332375516
aF-0.23096370535870744
aF0.17086126605445925
aF0.5247185594485007
aF-0.2550675795199563
aF-1.5087272390795046
aF1.3400575679578364
aF0.24287825983168257
aF-0.14300203656312604
aF-0.6691465952902854
aF-0.610865
aF-1.0588338076019514
aF1.6594015540222642
aF-0.9576550135109034
aF0.3594266566455598
aa(lp10
g5
ag6
ag7
aaa(lp11
(lp12
F0.9898105178664367
aF-0.7573566947901363
aF0.7467469304569622
aF0.9050639113199256
aF0.30789533046773976
aF0.1299312831123042
aF0.2630164321315863
aF-0.10054102971943979
aF1.0472
aF0.3251244759779033
aF0.3527826292531899
aF0.7861897688750036
aF0.5646954140316398
aF0.0667084367379608
aF-0.32919724890597735
aF-0.000431219352384934
aF0.021811512523112236
aF0.16024593457829944
aF-1.0442593923730037
aF-0.7034032175808909
aF-1.5556050150034364
aF-0.13172762820786615
aF-0.42718707628467506
aF-0.31503240907792934
aF0.17097526897242918
aF0.3973412511039314
aF-0.27409138407541733
aF-1.2582186527924064
aF1.666892679571533
aF-0.031201322462212095
aF-0.09139850095329764
aF-0.6518003708930772
aF-0.45658052675502314
aF-0.5707411689569565
aF0.16028216125797853
aF0.13787094223626745
aF0.17716770825893718
aa(lp13
g5
ag6
ag7
aaa(lp14
(lp15
F1.3204827638490302
aF-0.6345919285447881
aF0.517205334964713
aF0.945290046474039
aF0.1825921285091149
aF0.2566006858648303
aF-0.08510540909553563
aF-0.11694894778923136
aF-0.08088324382676351
aF0.6918068612150587
aF-0.3029721341073044
aF-1.459860458993102
aF-0.174533
aF-0.5033394993127677
aF-1.7632567981198666
aF-0.7714762997267395
aF-0.0016411304134639263
aF0.16412860917378408
aF-0.002049779225155585
aF-0.32900799089549093
aF-0.48837276513265443
aF-0.601658834335738
aF-0.8247354441150584
aF-0.20756683452828656
aF0.16849557142975824
aF0.5542999162618881
aF0.16787614635480644
aF-0.2400592012526538
aF0.041055582523492264
aF-0.059651015953500926
aF-0.40888846391424355
aF0.03557456753287627
aF-0.5473864024711015
aF-0.5666203175960798
aF1.2690894386194949
aF-1.0551335374769146
aF0.389613135889142
aa(lp16
g5
ag6
ag7
aaa(lp17
(lp18
F1.221647987547748
aF-0.6788299831844704
aF0.5196734009008257
aF0.8201017074531426
aF0.07817183750401256
aF0.5664201102015335
aF0.02214976327117338
aF-0.6289626364972586
aF1.0194478211771418
aF0.6918068612150593
aF-0.30297213410730495
aF-1.5008086902972089
aF1.620927146651559
aF-0.27897551109007024
aF-0.7056179614734261
aF-1.5958210683510818
aF-0.5359394948603723
aF0.1641286091737845
aF-0.6715325815596991
aF-0.28601236147314674
aF-0.06614512159070794
aF-1.642383031265144
aF-1.4825875695363468
aF-0.029903495350654348
aF0.16849557142975824
aF0.6282578971452107
aF0.02268773673929012
aF-1.119737055648528
aF-0.0349066
aF0.17355495926721629
aF-0.4373760139599168
aF-0.15506032007976095
aF-0.1418943540792618
aF-1.5313171316699357
aF1.4849795078748098
aF-0.9918517015376301
aF0.28365714793324914
aa(lp19
g5
ag6
aS'hrp2_larm_rom'
p20
ag7
aaa(lp21
(lp22
F1.1974413692704866
aF-0.612799951961802
aF0.5400302591220363
aF0.7653096900984194
aF0.054675650549780234
aF0.6281310795035134
aF-0.1294719986721849
aF-0.381962956044137
aF0.42647674158114524
aF0.19064740684565765
aF-0.38938890683683436
aF-1.1357440773800793
aF1.581019323031574
aF-0.5778939532591603
aF-0.6552127031554885
aF-1.3822117922878678
aF-0.3820082116082839
aF0.16978729788669716
aF-0.46487632097047416
aF-0.2429664390049159
aF-0.10302625551428331
aF-1.490012590615668
aF-1.3608199311358402
aF0.08511801738432422
aF0.1675919259165376
aF-0.058993191734970106
aF-0.02341033201927122
aF-1.3454460305400207
aF1.1448215313548669
aF-1.1650166825449835
aF0.14157731975568838
aF-0.043316375270257404
aF-0.33431602164147445
aF-1.747925358668947
aF1.3239943525965288
aF-0.8055221545996728
aF0.42822427531956736
aa(lp23
g5
ag6
ag20
ag7
aaa(lp24
(lp25
F1.2660284631678835
aF-0.6206772451998659
aF0.5884809407838016
aF0.7531077907364703
aF0.0697597377116612
aF0.6362522274282026
aF-0.15213591824116998
aF-0.19593286935524357
aF1.035169756062073
aF0.043474766994500154
aF0.05501475472405787
aF-1.85215060396868
aF1.4414056848963117
aF-0.5303501491266426
aF-0.7271129377962802
aF-1.4999808475039462
aF-0.4246841259556649
aF0.0669565590643116
aF-0.5830860314401141
aF-0.3835754284447623
aF-0.3100776370260092
aF-1.8905827490386067
aF-1.5638231712452366
aF-0.06531997633698802
aF0.07791297378154141
aF-0.04707518022458507
aF-0.07379415347105328
aF-0.9706226784015863
aF0.440845937124
aF-0.8680500293705703
aF0.1479944782046807
aF0.12767609245020892
aF0.0967157824416619
aF-2.0880484729482403
aF1.2623098319409283
aF-0.8855971540469026
aF0.07023891216389594
aa(lp26
g5
ag6
ag20
ag7
aaa(lp27
(lp28
F1.291055089326735
aF-0.5825949091097875
aF0.5653879675146644
aF0.7842134208791184
aF0.11154193724918819
aF0.5904468950227828
aF-0.1547261157843874
aF-0.22821264075577335
aF1.0164079929943342
aF0.04347476699450018
aF0.05501475472405776
aF-1.7070883115498943
aF1.2375762576604072
aF-0.5918657677374947
aF-0.6554175095609001
aF-1.460382505016779
aF-0.28763886216163476
aF0.0669565590643116
aF-0.5338692732655085
aF-0.4717720359018249
aF-0.407030982299889
aF-1.8155864075789931
aF-1.5702435349204
aF-0.013795015474554235
aF0.07791297378154141
aF0.45337659123556806
aF0.09723050318918228
aF-1.0663300609649673
aF0.45244144726838853
aF-0.42804059204596445
aF-0.2592685487921221
aF-0.041090411623471795
aF0.03342042971716466
aF-2.0468083621567383
aF1.3986863862561119
aF-0.9571196842229591
aF0.1672346135258551
aa(lp29
g5
ag6
ag20
ag7
aaa(lp30
(lp31
F1.3397478891747459
aF-0.6486810919245505
aF0.4916191028350084
aF0.8288667510748109
aF0.14485873663570595
aF0.4785299135457194
aF-0.2510079226337703
aF-0.11879899919859806
aF0.6151558958919203
aF0.04347476699450038
aF0.05501475472405722
aF-1.2769496119077481
aF0.40466344977745955
aF-0.8340026563700246
aF-0.4783628855531358
aF-1.4541018090365565
aF0.0949043042128992
aF0.06695655906431164
aF-0.11027068301414436
aF-0.19483446248903163
aF-0.2961032731560645
aF-1.747492277515442
aF-1.0340017022917747
aF-0.08706525395952067
aF0.07791297378154141
aF0.5973118946019241
aF0.13641572108124736
aF-0.4990079876571806
aF0.2108943426187986
aF-0.45949790706296734
aF-0.39287039176807464
aF0.1497233065853716
aF-0.13614101198348538
aF-1.8260483340046827
aF1.759485494714456
aF-1.2826075425043406
aF0.06409312437039201
aa(lp32
g5
ag6
ag20
ag7
aaaa(lp33
(lp34
(lp35
F1.8390651604169395
aF-0.06024336174909901
aF0.67167341954985
aF0.4063583847441715
aF-0.02292997284115064
aF0.07102691244070698
aF-0.9106603412923789
aF-0.6111258317242589
aF0.7693142426850447
aF-0.6114471113137967
aF-0.13410239496298987
aF-0.8731445396864675
aF0.349065850399
aF0.250844537802598
aF0.7132264475148647
aF-0.349065850399
aF-0.19555889781210897
aF-0.6220615396974134
aF0.6036911021465533
aa(lp36
S'rhleg'
p37
aS'lhleg'
p38
aS'rfleg'
p39
aS'lfleg'
p40
aaa(lp41
(lp42
F1.5450765024826583
aF-0.35636337952719477
aF0.59722448976164
aF0.6291601688280616
aF0.1072382349387083
aF0.05218585907593246
aF-0.768071662698203
aF-0.5885288415491315
aF0.6125741268141248
aF-0.40845849743019663
aF-0.20513088094737505
aF-0.9671570739636793
aF0.8912679115628538
aF0.3350242838361206
aF1.0960217645820964
aF-1.2032220243277636
aF0.14669812964668738
aF0.014606075026600728
aF0.5816520597222082
aa(lp43
g37
ag38
ag39
ag40
aaa(lp44
(lp45
F1.609665282233927
aF0.09874518666312021
aF0.5435091800702317
aF0.6605170425806183
aF-0.17849314212038744
aF-0.09018135895644205
aF-0.7236883011167956
aF-0.6651179929991957
aF0.39723364487793805
aF-0.5062689297404714
aF-0.37449128621621575
aF-0.9192172337681342
aF0.349065850399
aF0.40100204393136535
aF0.7281722741031021
aF-0.9127545039100767
aF-0.48533924347729734
aF-0.4624307804270871
aF1.9696781222837785
aa(lp46
g37
ag38
ag39
ag40
aaa(lp47
(lp48
F1.5939175574752102
aF0.22579576816896077
aF0.6387968073190052
aF0.6805543530394841
aF-0.11589584022300611
aF0.05626110956028322
aF-0.7212826175148396
aF-0.8311066667712464
aF-0.14223028963829581
aF-0.349065850399
aF-0.6443333565933381
aF-0.8533551130636661
aF0.349065850399
aF0.5219650990795716
aF0.13997473127920138
aF-0.6586540732535714
aF-0.07990687928339417
aF-0.6489197351126127
aF1.184614206279842
aa(lp49
g37
ag38
ag39
ag40
aaa(lp50
(lp51
F1.6456063127185985
aF0.3002368058875217
aF0.6120373527004762
aF0.6022857153321131
aF-0.026345848416278798
aF-0.0735461128028528
aF-0.7944487287860063
aF0.1613857466354032
aF0.952312852313678
aF-1.1731106150653634
aF-0.26364360996602554
aF-0.7802019201765045
aF0.349065850399
aF0.36081956589508835
aF0.11534371930033861
aF-0.7654087794411615
aF-0.5732948160153729
aF-0.9771563955440012
aF1.23835084249643
aa(lp52
g37
ag38
ag39
ag40
aaa(lp53
(lp54
F1.6168814167988368
aF0.3522599694923609
aF0.6632176906895751
aF0.7061489544844943
aF-0.01333064321194719
aF-0.024607565113527383
aF-0.7075100110748925
aF0.15552207420965883
aF0.727467210876339
aF-1.182543249608435
aF0.3225172803634554
aF-0.8162112944393322
aF0.6210390999298038
aF0.22177211120501159
aF-0.08594290566753464
aF-0.6818414461714187
aF-0.34827180432591337
aF-0.8349680677673063
aF1.1185173667463046
aa(lp55
g37
ag38
ag39
ag40
aaa(lp56
(lp57
F1.4734711768603028
aF0.39950699376124366
aF0.6270746684468718
aF0.7224583930537071
aF0.03674028319572342
aF-0.05980081399555271
aF-0.6878429214162363
aF0.08060286161257153
aF0.6661122581852416
aF-1.306897230865604
aF0.2266330977375893
aF-0.9097654847552036
aF0.5801510811816365
aF0.28687479933403565
aF-0.19725571091268884
aF-0.6764352801204335
aF-0.6798189544587244
aF-0.4330015586045482
aF1.2357578913542984
aa(lp58
g37
ag38
ag39
ag40
aaa(lp59
(lp60
F1.4497908294045123
aF0.5791317004642833
aF0.5904591192923339
aF0.7736672211857706
aF0.11111002658619136
aF-0.037877930102640345
aF-0.6226225624452132
aF0.31322750921218595
aF0.14827931063420913
aF-1.3439190997757842
aF-0.09604833755872226
aF-0.8855087928710474
aF0.5786773171929102
aF0.03747134857904
aF-0.8220717112664488
aF-0.35856357390986304
aF-0.6753343040658925
aF-0.8341087548247228
aF1.4595353566231648
aa(lp61
g37
ag38
ag39
ag40
aaa(lp62
(lp63
F1.5822895532209522
aF0.20416404741447003
aF0.5736766523883468
aF0.6916785179859941
aF-0.07949319392381615
aF-0.008574851141343489
aF-0.7177660703908991
aF-0.6946735338653464
aF0.02962406706049057
aF-0.6284234131467066
aF-0.15940723533359805
aF-0.4223610684830779
aF1.8443667652837041
aF0.42173201072085736
aF0.4350704209264911
aF-1.17099646954065
aF-0.68591543679357
aF0.15269312392759454
aF0.614495015929316
aa(lp64
g37
ag38
ag39
ag40
aaaa.
