(lp0
(lp1
(lp2
(lp3
F-0.05
aF-0.82
aF0.65
aF1.0
aF0.0
aF0.0
aF0.0
aF0.0
aF0.0
aF0.0
aF0.0
aF0.261799388
aF0.174532925
aF0.0
aF-0.523598776
aF0.0
aF0.0
aF0.17
aF0.261799388
aF-0.174532925
aF0.0
aF-0.523598776
aF0.0
aF0.0
aF0.17
aF0.0
aF0.0
aF-0.453785606
aF0.872664626
aF-0.41887902
aF0.0
aF0.0
aF0.0
aF-0.453785606
aF0.872664626
aF-0.41887902
aF0.0
aa(lp4
S'hrp2_rleg_rom'
p5
aS'hrp2_lleg_rom'
p6
aaa(lp7
(lp8
F0.07986182268404057
aF-0.836096371631187
aF0.689952416187804
aF0.9849708987009143
aF-0.03786887434888324
aF0.1670224688393671
aF-0.022400267200742525
aF-0.7535950761218301
aF0.10875847000325888
aF-0.5882194735484395
aF0.11309402750536086
aF0.7461256904013249
aF0.0796134895891062
aF0.8518723798893275
aF-1.9190803986339262
aF0.571560991875087
aF1.0287900159577321
aF0.0972742687908609
aF-1.5405311987154346
aF-1.496585510335026
aF-0.14132674943990237
aF-1.5259784076586413
aF0.11653721423121827
aF0.6500448167645118
aF-0.09480857096209987
aF0.06631314249497737
aF0.09375378140878439
aF-0.28712825681832266
aF0.31257871888378586
aF-0.36405966399291634
aF-0.02818119952330922
aF0.06590979769536273
aF0.09260875983711161
aF-0.17320801024812352
aF0.06704744894771274
aF-0.23240602277500186
aF-0.02696941442641818
aa(lp9
g5
ag6
aS'hrp2_larm_rom'
p10
aaa(lp11
(lp12
F-0.005946985750535268
aF-0.7849176930495559
aF0.6925131645181262
aF0.9716795262830487
aF-0.06088255980042723
aF0.03622931263862086
aF-0.22543213839253395
aF-0.36270729476560376
aF0.03529768533625311
aF-0.007506798789621885
aF-0.4905922206793281
aF0.14652472173225087
aF0.41720330724053806
aF0.6556151266821364
aF-1.1224416338268481
aF0.3492373107856747
aF1.1728907390896168
aF0.09101087411617428
aF0.3445236596643286
aF-0.3859881973084214
aF-0.035640176234252224
aF-0.5481698886742838
aF7.92009149574069e-06
aF-0.003208735379763251
aF0.10221784228667921
aF0.12273805858750617
aF0.12041112076791165
aF-1.6624293383733852
aF1.6469307142258942
aF-0.04364650059490571
aF0.008539070234563476
aF0.4541167246088604
aF0.03271148444119739
aF-0.1604818972466045
aF0.1533884640043189
aF-0.09097191517481673
aF0.06978515575175699
aa(lp13
g5
ag6
ag10
aaa(lp14
(lp15
F0.20135951419133022
aF-0.8639496158302599
aF0.9922640369998289
aF0.9557522513900418
aF-0.25039472808400903
aF0.05365844282429589
aF-0.1447787471429176
aF-0.4104872713740077
aF0.28093051953846004
aF0.0028406099561181087
aF-0.49803371389842144
aF0.00745267624565101
aF0.3024648899266321
aF0.9385088022088899
aF-0.37569946432316026
aF-0.2177281619298603
aF0.18218661764052255
aF0.09109030524620007
aF0.8048832254881013
aF-0.7481068503260128
aF-0.09643016084128292
aF-0.3729361486338949
aF0.0015244535861222155
aF0.016466733222626276
aF0.10206994323709137
aF-0.03176553911266181
aF0.5364108144489302
aF-0.43943933336367075
aF0.5907991429003824
aF-0.16570912080617128
aF-0.018652189066153506
aF0.3045799872978279
aF0.2634139088326401
aF-0.5751278657480173
aF0.042277875356465204
aF0.35051155531436995
aF0.2220514627952688
aa(lp16
g5
ag6
ag10
aaa(lp17
(lp18
F0.24227733341402943
aF-0.890656690325882
aF1.030938138201266
aF0.9659445376446543
aF-0.20105488902084453
aF0.1384890484861472
aF0.0857255227144908
aF-0.6510011922615567
aF0.5245862422185469
aF-0.356111265440425
aF0.6711811590174649
aF-0.4126799630502004
aF0.42875518994630507
aF0.6589609670821794
aF-0.04098723288596795
aF-0.19803093111334827
aF-0.09535765110409819
aF0.07957523160883376
aF-2.8602107954800373
aF-0.6636906718983367
aF0.7178445828633805
aF-1.4935836139829806
aF-0.05181140872840847
aF0.4422975965581012
aF-0.005772302038344935
aF-0.37187191809186876
aF0.5630043032013542
aF-1.5017803007613488
aF1.3901469693315605
aF-0.03840441625172374
aF-0.09011114398810284
aF-0.1628131499500805
aF0.2714228206262372
aF-0.5142098423489128
aF0.038865601690237866
aF0.23098203314035765
aF0.1583625482882957
aa(lp19
g5
ag6
ag10
aaa(lp20
(lp21
F0.2424846783503171
aF-0.8929333595467741
aF1.0314347835287074
aF0.9628689761909398
aF-0.20460183096034953
aF0.15373355069376574
aF0.08595010673507866
aF-0.6450547484337906
aF0.5597095907367629
aF-0.3556961739879226
aF0.6722670577108887
aF0.24885329808897125
aF0.17698149697226767
aF0.0002016645784210196
aF-0.5263302906700238
aF2.2500038327798747e-05
aF-0.00029740846791134003
aF0.0795716456952108
aF-2.851645105234762
aF-0.6631167229653858
aF0.7204431396350712
aF-1.495912876401217
aF-0.051979939941246604
aF0.4422433155850113
aF-0.005766510456168163
aF-0.35936474057949086
aF0.5856514348911926
aF-1.5317030296948855
aF1.388135519428961
aF-0.03908593466512743
aF-0.0966578539580154
aF-0.1594888709108613
aF0.2854527647306718
aF-0.5398442778208382
aF0.030380111885839924
aF0.23411402079936042
aF0.15461858164700915
aa(lp22
g5
ag6
aaa(lp23
(lp24
F0.2916624915876212
aF-0.7700269000884055
aF1.0259866237250495
aF0.993126964697523
aF0.00399025667392981
aF0.012147239814874328
aF0.11634154205287482
aF0.5795834091458417
aF0.30389290052014845
aF0.38476031562132884
aF0.6625562067871275
aF-0.8695051578445976
aF1.65806
aF0.48816610199799737
aF-0.7693121362958014
aF-1.535948698296807
aF1.2830374927308799
aF-0.013484295696849224
aF0.0033909140052961985
aF-1.330828599654507
aF1.3160264576388985
aF-1.5157710713220736
aF0.36661536888146756
aF0.20826300241669946
aF0.1515641035690288
aF-0.48451784922466345
aF-0.2608664600556247
aF-1.317401708214833
aF1.3716491438733693
aF-0.0806973765584293
aF0.26209243255369236
aF-0.24281972866333326
aF-0.36770270058535415
aF-0.19713621752257876
aF0.010123624683409377
aF0.16015490932630755
aF0.3627539377952583
aa(lp25
g5
ag6
aS'hrp2_rarm_rom'
p26
aaaa(lp27
a.