(lp0
(lp1
(lp2
(lp3
F0.9659368819469651
aF-0.9571937097797352
aF0.7267293548974076
aF0.9644199931376854
aF0.17765456121582082
aF-0.028030552142691227
aF-0.1937710552742501
aF0.25782381092956225
aF0.29620018716798835
aF-0.37039648159918137
aF0.003181262952046502
aF-0.13442399706646466
aF0.03810271088104269
aF-0.002018107579311044
aF-0.039843549545253897
aF0.00034636378719445516
aF-0.004281766757577283
aF0.16638951229937576
aF-1.0979823515078186
aF-0.25182210893145257
aF-0.9187089630546384
aF-0.1696449016912364
aF1.179757248654974
aF1.4385331392517022
aF0.17435750696145488
aF0.17308494519992643
aF0.05412969220130685
aF-0.45210122468674047
aF0.19103732377672042
aF-0.05466731758253465
aF-0.2807089447159847
aF-0.6120407557507442
aF-0.14439994621011
aF-1.1144625708692197
aF1.6879053832112385
aF-0.4755818355892955
aF-0.14749698328942878
aa(lp4
S'hrp2_rleg_rom'
p5
aS'hrp2_lleg_rom'
p6
aS'hrp2_rarm_rom'
p7
aaa(lp8
(lp9
F1.2982603962868138
aF-0.9651669960191426
aF0.800983210912085
aF0.9255916403821363
aF0.14875422566373475
aF0.014572570973853982
aF-0.34776419565145095
aF0.6558727272866336
aF0.818441547223222
aF0.13297814781844725
aF-0.39677038869743003
aF0.005696250539915014
aF0.022290254385859014
aF-5.294636748858712e-05
aF0.0014995359249177363
aF3.4215504119159825e-05
aF0.00014435703390420967
aF0.17584410248027352
aF0.23217609866791175
aF-0.4473647031779912
aF-0.4025622844216111
aF-1.355613318492657
aF-0.37497249811745825
aF1.0470577928566716
aF0.17350180378303762
aF0.4498591881764451
aF-0.033542480215403236
aF0.15299413642382365
aF0.09158351146259915
aF-0.5938269254356124
aF-0.12497459397012421
aF-0.10739124412661578
aF-0.12158249648832131
aF-0.34348809770609334
aF1.8671984464594908
aF0.45897744769910653
aF-0.2018888013146472
aa(lp10
g6
ag7
aaa(lp11
(lp12
F1.527274258726266
aF-0.9362124753887294
aF0.7541173657487766
aF0.9590846655528866
aF0.13325286856162114
aF0.21327590504801264
aF-0.13005254956115986
aF-0.5181861719007534
aF0.6401463429950127
aF0.05353761328545025
aF-0.440966781579797
aF0.578821381648295
aF0.16248996492276904
aF0.006430858795828633
aF0.0349066
aF-0.0008866494753418097
aF0.020777124827861645
aF0.1615379329455332
aF-0.813303880598769
aF-1.1454253728599135
aF1.6057
aF-0.8840630620667692
aF-1.142259165140702
aF0.060829077971387965
aF0.16618248712953698
aF-0.07960514837815033
aF-0.10741580902087275
aF0.0503414568084412
aF0.0515614424399136
aF-0.9143788242642452
aF0.08381524870130225
aF0.14085185721160937
aF0.06367566602063661
aF-1.933039243201208
aF1.7932889046261486
aF-0.7371088173298117
aF-0.18662349569547443
aa(lp13
g5
ag6
ag7
aaa(lp14
(lp15
F0.9659368819469651
aF-0.9571937097797352
aF0.7267293548974076
aF0.9644199931376854
aF0.17765456121582082
aF-0.028030552142691227
aF-0.1937710552742501
aF0.25782381092956225
aF0.29620018716798835
aF-0.37039648159918137
aF0.003181262952046502
aF-0.13442399706646466
aF0.03810271088104269
aF-0.002018107579311044
aF-0.039843549545253897
aF0.00034636378719445516
aF-0.004281766757577283
aF0.16638951229937576
aF-1.0979823515078186
aF-0.25182210893145257
aF-0.9187089630546384
aF-0.1696449016912364
aF1.179757248654974
aF1.4385331392517022
aF0.17435750696145488
aF0.17308494519992643
aF0.05412969220130685
aF-0.45210122468674047
aF0.19103732377672042
aF-0.05466731758253465
aF-0.2807089447159847
aF-0.6120407557507442
aF-0.14439994621011
aF-1.1144625708692197
aF1.6879053832112385
aF-0.4755818355892955
aF-0.14749698328942878
aa(lp16
g5
ag6
ag7
aaa(lp17
(lp18
F1.527274258726266
aF-0.9362124753887294
aF0.7541173657487766
aF0.9590846655528866
aF0.13325286856162114
aF0.21327590504801264
aF-0.13005254956115986
aF-0.5181861719007534
aF0.6401463429950127
aF0.05353761328545025
aF-0.440966781579797
aF0.578821381648295
aF0.16248996492276904
aF0.006430858795828633
aF0.0349066
aF-0.0008866494753418097
aF0.020777124827861645
aF0.1615379329455332
aF-0.813303880598769
aF-1.1454253728599135
aF1.6057
aF-0.8840630620667692
aF-1.142259165140702
aF0.060829077971387965
aF0.16618248712953698
aF-0.07960514837815033
aF-0.10741580902087275
aF0.0503414568084412
aF0.0515614424399136
aF-0.9143788242642452
aF0.08381524870130225
aF0.14085185721160937
aF0.06367566602063661
aF-1.933039243201208
aF1.7932889046261486
aF-0.7371088173298117
aF-0.18662349569547443
aa(lp19
g5
ag6
ag7
aaaa(lp20
a.
