(lp0
(lp1
(lp2
(lp3
F0.1
aF-0.82
aF0.648702
aF1.0
aF0.0
aF0.0
aF0.0
aF0.0
aF0.0
aF0.0
aF0.0
aF0.261799388
aF0.174532925
aF0.0
aF-0.523598776
aF0.0
aF0.0
aF0.17
aF0.261799388
aF-0.174532925
aF0.0
aF-0.523598776
aF0.0
aF0.0
aF0.17
aF0.0
aF0.0
aF-0.453785606
aF0.872664626
aF-0.41887902
aF0.0
aF0.0
aF0.0
aF-0.453785606
aF0.872664626
aF-0.41887902
aF0.0
aa(lp4
S'hrp2_rleg_rom'
p5
aS'hrp2_lleg_rom'
p6
aaa(lp7
(lp8
F0.10142085980751747
aF-0.8231413824442411
aF0.6489724903640451
aF0.9999978628584898
aF-0.0013830386745784466
aF0.0015340760383559474
aF8.996213720180584e-05
aF-0.0015343607201066013
aF0.0022236114672800683
aF-5.1213029633991156e-05
aF3.664437204850044e-05
aF0.26133899116386444
aF0.1700725292150036
aF-0.0007372116672745213
aF-0.5237722637686385
aF-8.600400617196644e-06
aF-1.9324116277172075e-05
aF0.17
aF-0.15479581811740384
aF0.07800228928301813
aF-0.41022150674759966
aF-0.40773622430725875
aF0.14234111540742275
aF0.3441584754019906
aF0.1699981084371911
aF-0.0001581969961484952
aF0.008542284685490882
aF-0.4530963692012935
aF0.8703520218620394
aF-0.42032366621936856
aF-0.005775962857710564
aF-0.00015820364167356136
aF0.008540083092876016
aF-0.45334494366522515
aF0.8709264336801132
aF-0.42064950351761615
aF-0.005773761255154834
aa(lp9
g5
ag6
aS'hrp2_rarm_rom'
p10
aaa(lp11
(lp12
F0.1459302993500535
aF-0.8292179669100546
aF0.6506866203226004
aF0.9997109103596747
aF-0.01045938002675398
aF-0.017429760427773413
aF0.012841360080483866
aF0.059489587205459105
aF0.009855707391218887
aF-0.000288636243962148
aF-0.001288082693151781
aF0.2802506800122896
aF0.14302890270831592
aF-0.00478614900290344
aF-0.5162206169874551
aF-0.00011219757825657363
aF0.0008339014410538528
aF0.17
aF0.027529956501631682
aF0.06492683965644584
aF-0.3236436032514094
aF-0.5077860215976896
aF-0.03996887704547174
aF0.30589999363960624
aF0.1699836753184273
aF0.3240198295286536
aF-0.004478324883540686
aF-0.9483159302809473
aF1.0291791700083217
aF-0.054822269396573864
aF0.03574313276738355
aF-0.026635751599580364
aF0.037257418799186155
aF-0.3158333465563158
aF0.8406717697185839
aF-0.48968952285695766
aF-0.016799556384565265
aa(lp13
g5
ag6
ag10
aaa(lp14
(lp15
F0.20945598044443792
aF-0.8233794156922021
aF0.6616999207018105
aF0.9993323123840743
aF-0.005424822135450027
aF-0.025919787038729086
aF0.025172710814780834
aF0.10498739923909302
aF0.030018149270467816
aF-0.0002158653263634456
aF-0.002313722152415401
aF0.2952487613868634
aF0.14121770524438942
aF-0.004748817297449948
aF-0.5079644039976889
aF-0.00016449229783223673
aF0.001775511097652642
aF0.17
aF-0.10829644766657485
aF0.045562770605360105
aF-0.475166543837766
aF-0.4938362601033721
aF0.047071315920279154
aF0.41517844348140104
aF0.1699775086447808
aF0.29829364976485745
aF0.024780033503842357
aF-0.8512414616553804
aF1.1083896549776477
aF-0.21140455618787773
aF0.0020068599759157832
aF-0.05092513758574693
aF0.015451368685463098
aF-0.10008219991114183
aF0.6698271932928851
aF-0.5176371931304041
aF-0.005920830119313585
aa(lp16
g5
ag6
ag10
aaa(lp17
(lp18
F0.2671276502551296
aF-0.8239296620074708
aF0.6691311252677574
aF0.9996285648049914
aF-0.011509430831090108
aF-0.01971778443167725
aF0.014882016159219991
aF0.07630391234074962
aF0.0019397831409817359
aF-0.0002080985665909633
aF-0.0015393493818509746
aF0.2836518605901604
aF0.1495951827949446
aF-0.0036598119620361966
aF-0.5151329938229012
aF-0.00010472642244444217
aF0.0009551697093587207
aF0.17
aF0.05518868708277131
aF0.05065510059967018
aF-0.31156789573502053
aF-0.5721011018093283
aF-0.0770634377758786
aF0.3603152033985655
aF0.16998631439605866
aF0.31769250863013965
aF0.07495785872881379
aF-0.7808912901948046
aF1.1545603488278307
aF-0.34384735259775107
aF-0.04029233190152232
aF-0.2948382456632515
aF0.022050712418816436
aF-0.714228609836411
aF1.1933879294704843
aF-0.43489632386804217
aF-0.010832780315371595
aa(lp19
g5
ag6
ag10
aaa(lp20
(lp21
F0.33323144406058963
aF-0.8202933516729437
aF0.6826312663247437
aF0.9997091004945938
aF-0.004230927332625384
aF-0.013639846630807775
aF0.019436260599307698
aF0.10124366267958063
aF0.023158791497302975
aF-0.00016400849655061212
aF-0.002087237928915126
aF0.29122878055590473
aF0.15138607572574767
aF-0.0032276344527917295
aF-0.5122032326382134
aF-0.00011849690822185806
aF0.0012852280226914444
aF0.17
aF-0.07593322770755305
aF0.05380668660206321
aF-0.4347740103215933
aF-0.599060911836992
aF0.02400349660109243
aF0.471380242484985
aF0.1699860590371495
aF0.3083289638335851
aF0.09356882281455135
aF-0.6410239206363225
aF1.1178368056585588
aF-0.4536000041465332
aF-0.07674904333243249
aF-0.3023374505001555
aF-0.030561364048706074
aF-0.5764964272194405
aF1.1444993558841219
aF-0.5394337656430779
aF0.031032277543906455
aa(lp22
g5
ag6
ag10
aaa(lp23
(lp24
F0.4012956827545084
aF-0.8303975359518457
aF0.688469882014081
aF0.9993489071043016
aF-0.014235308830653768
aF-0.02821063635769987
aF0.01741487433853607
aF0.0963842109440413
aF-0.007376433062059678
aF-0.00035475122457157286
aF-0.002800630554247164
aF0.3016187556942168
aF0.13072416114677085
aF-0.006370332675719828
aF-0.5077924478525379
aF-0.00018901761935515818
aF0.0017851918457666178
aF0.17
aF0.09959660219708937
aF0.07636141360710597
aF-0.3507319481050587
aF-0.6282389846910403
aF-0.057122710032380966
aF0.3921755727147789
aF0.16997522184607344
aF0.3070801652037252
aF0.1849181705031204
aF-0.47562381403268916
aF1.0692158341830023
aF-0.5487218126280395
aF-0.13976560869460805
aF-0.020904335164668546
aF0.23249338353697044
aF-1.2829013784370946
aF1.2970090801205905
aF0.04362310319984077
aF-0.20382319482970387
aa(lp25
g5
ag6
ag10
aaa(lp26
(lp27
F0.47500370554683924
aF-0.8210409657937454
aF0.7041369801696198
aF0.9996404251622805
aF-0.0015855435472902338
aF-0.022196969806834697
aF0.014959978757637458
aF0.11869629512177864
aF0.008445341289035185
aF-0.00015127530273994501
aF-0.003141097570726656
aF0.3065461050586851
aF0.14474878450196896
aF-0.003973215626759343
aF-0.50425688149684
aF-0.0001794517259516183
aF0.0021902910082924948
aF0.17
aF-0.01773676753304765
aF0.07280946639349019
aF-0.45005587708101924
aF-0.6636458669580502
aF0.03761595365974472
aF0.5029546058944108
aF0.16997863085441128
aF0.3120265476887203
aF0.18314984625784222
aF-0.25144498796816406
aF0.8821012805866865
aF-0.5890195210338108
aF-0.16573299466303182
aF-0.011524579841075041
aF0.1808890999033288
aF-1.232245420153861
aF1.4640469961208937
aF-0.18669390218993323
aF-0.1773559252651266
aa(lp28
g5
ag6
ag10
aaa(lp29
(lp30
F0.5432784940962938
aF-0.8306326249624121
aF0.7144058500546584
aF0.9997768216644259
aF-0.01622188975760291
aF-0.008490223752044506
aF0.010539129751106395
aF0.07238581057970435
aF-0.010410826863869592
aF-0.0002846329241942982
aF-0.0017577943328323591
aF0.28704983801888945
aF0.14045809059505063
aF-0.005062426889887432
aF-0.5130027659299903
aF-0.00013673673965505567
aF0.001199360073094808
aF0.17
aF0.15311942440968132
aF0.07343736371658428
aF-0.272544623147031
aF-0.7067649469947256
aF-0.09867102567539227
aF0.38737874646715015
aF0.16998109741123768
aF0.26261983942107214
aF0.26008269742145984
aF-0.7037302344065897
aF1.356632574811589
aF-0.6450938679546913
aF-0.22424988571884327
aF0.001722067083406361
aF0.2330172561538829
aF-1.1549339184009613
aF1.5559219729632292
aF-0.38405775970939954
aF-0.20030518804663383
aa(lp31
g5
ag6
ag10
aaa(lp32
(lp33
F0.6111374666215078
aF-0.8234724393705578
aF0.7293592515111607
aF0.9999083384691866
aF-0.005580252238563347
aF-0.0012654939452747707
aF0.01227085856079131
aF0.09186551956270449
aF0.0023231167882562134
aF-0.0001527485370984259
aF-0.0022876118294028434
aF0.2939550209312168
aF0.1519411452112183
aF-0.0030874593130156523
aF-0.5113606171238981
aF-0.00012242583396121617
aF0.0013792088555945898
aF0.17
aF0.02955904181880182
aF0.08165213703121205
aF-0.37826499764426486
aF-0.7506327999697809
aF-0.003816926990557581
aF0.5135655443336173
aF0.1699865431264841
aF0.26117195620200523
aF0.25265372861799773
aF-0.5137816377469815
aF1.2371008833707087
aF-0.723896596222526
aF-0.24122241820433324
aF0.0014498761248192297
aF0.19202149831724658
aF-1.0263300195356118
aF1.5960646662014137
aF-0.5673045928543019
aF-0.180796993072504
aa(lp34
g5
ag6
ag10
aaa(lp35
(lp36
F0.6760006043695562
aF-0.8267838532447923
aF0.7394368934213847
aF0.9997891335496668
aF-0.01597495020663204
aF-0.0030541747596353327
aF0.012536403728333416
aF0.07856912335947835
aF-0.012035416544958663
aF-0.00023651550325599335
aF-0.0018446046632934387
aF0.2879524677570145
aF0.1459682815160471
aF-0.004170612689974224
aF-0.5135595783902697
aF-0.00012201941635975001
aF0.001132274471077303
aF0.17
aF0.18629110171349333
aF0.057025740931539615
aF-0.2488567351975382
aF-0.7462436784149504
aF-0.13855457079524833
aF0.3898843996118412
aF0.16998458697921712
aF0.3292094350664681
aF0.047185641569842424
aF-1.0645518506808893
aF1.5205044545543651
aF-0.46085488862440377
aF-0.01502850613036159
aF0.00019077325423713968
aF0.21971749226873521
aF-0.8616583649401599
aF1.587404264527515
aF-0.7199308820534229
aF-0.18765755266466827
aa(lp37
g5
ag6
ag10
aaa(lp38
(lp39
F0.7460269986289266
aF-0.8218887587011682
aF0.7539321261999503
aF0.9998597909018058
aF-0.006509662089037731
aF0.006939500183537783
aF0.013779193535413004
aF0.08715754366695704
aF-0.0043989979893421394
aF-0.00013497409707407596
aF-0.0020334122817000076
aF0.29031090441195484
aF0.1551089327225741
aF-0.0026493339536127814
aF-0.5130849630817432
aF-0.0001054359926429377
aF0.0011833185608792888
aF0.17
aF0.07759854739603658
aF0.030242391118071494
aF-0.3035762427099762
aF-0.7998525304623109
aF-0.09970054905449659
aF0.525837238053455
aF0.1699888601503804
aF0.3276799902768609
aF0.06747392152682294
aF-0.9105303878478473
aF1.5065381381491794
aF-0.6134262660547235
aF-0.05983783221376224
aF0.0014600674020770548
aF0.18790071003362963
aF-0.6849757749649631
aF1.5224975421511904
aF-0.8518028616768826
aF-0.1750459845987798
aa(lp40
g5
ag6
ag10
aaa(lp41
(lp42
F0.8212432825804733
aF-0.8273879694152793
aF0.7682023246889974
aF0.9997741953192036
aF-0.014876983135436898
aF0.011511279159416635
aF0.009885555054762919
aF0.06679280332659399
aF-0.017998821876879314
aF-0.0001731739087433132
aF-0.0013800781023805395
aF0.2821188757174821
aF0.14953148736674846
aF-0.003656185200115398
aF-0.5135451436363502
aF-0.0001133677957732156
aF0.0011440110491204773
aF0.17
aF0.2401910056259287
aF0.007104212614217995
aF-0.16197729375740846
aF-0.780660745220052
aF-0.22604939434486265
aF0.3576904466193093
aF0.16998407438149257
aF0.2770891134869461
aF0.16960843420524288
aF-0.6926096451720508
aF1.422935447274562
aF-0.7611462971656662
aF-0.1475090045101718
aF0.011452091192274172
aF0.21484007330766985
aF-0.4652416781992793
aF1.3795631724285953
aF-0.9383719631054835
aF-0.18549473543328965
aa(lp43
g5
ag6
ag10
aaa(lp44
(lp45
F0.8741452908036509
aF-0.8081446604408756
aF0.779840351141178
aF0.9998242908451156
aF-0.0018608183839971674
aF-0.005099352580362847
aF0.017942168048043636
aF0.12944311757412158
aF-0.018154911266250864
aF0.00015653272221569323
aF-0.0030083850933377405
aF0.30420223910375555
aF0.1744955662697474
aF0.000759996170403443
aF-0.5060767676676101
aF-0.0001055970176800107
aF0.001979739980834631
aF0.1699966059139164
aF0.10342248353451858
aF-0.027452649007666387
aF-0.30541353955536726
aF-0.7772683804867306
aF-0.16760436922064645
aF0.5323936790678357
aF0.1699932387790349
aF0.2548688455533732
aF0.1423317584843495
aF-0.48961142481173625
aF1.3281585554991924
aF-0.8296288091700941
aF-0.13599140212505997
aF-0.010933596934489382
aF0.14687063176366974
aF-0.2606127448705354
aF1.24697978402873
aF-0.9760759918576313
aF-0.143039148157013
aa(lp46
g5
ag6
ag10
aaa(lp47
(lp48
F0.9466722876748335
aF-0.8367741171750737
aF0.7910826953411868
aF0.9991826459798906
aF-0.018229543051314287
aF-0.03209965117618601
aF0.016472283604046418
aF0.1615501739060937
aF-0.038758257671652425
aF-0.0004693774441183516
aF-0.006182050789003386
aF0.3483185048861165
aF0.11974913053601982
aF-0.007419778546855084
aF-0.4977348954691101
aF-0.0002765298897054451
aF0.0028847862179225852
aF0.17
aF0.23393717334113878
aF0.032933935317238705
aF-0.2806073159980044
aF-0.6836920387267692
aF-0.20535879690517334
aF0.37223480323676833
aF0.16997537663522416
aF-0.08505595852351887
aF0.23366207611703885
aF-0.8495421962787276
aF0.6901063535307039
aF0.22733664332492662
aF-0.20115781301475974
aF-0.02094167198571663
aF0.2394059532600824
aF0.04874062015860853
aF0.9714561640247937
aF-0.9544747786783315
aF-0.20271556948448263
aa(lp49
g5
ag6
ag10
aaa(lp50
(lp51
F1.0240855268853137
aF-0.8452957460687716
aF0.8041025832449077
aF0.9989753744698783
aF-0.03267579513297244
aF0.02909120214726831
aF0.01158428128203327
aF0.08433918811067023
aF-0.007597629956289164
aF-0.00042118624030789624
aF-0.0014526371647177508
aF0.2835401394755142
aF0.12658176186853903
aF-0.00734793742702791
aF-0.5126360642599833
aF-0.00016791250531651998
aF0.0012491549860339788
aF0.17
aF0.3431915267970224
aF-0.04170466225542379
aF0.08226342030363756
aF-0.6571533348615477
aF-0.4810787819368745
aF0.06980425797748759
aF0.16997360940483125
aF-0.0469479383860138
aF0.2757084555742395
aF-0.9537796972250141
aF0.9188399049570327
aF-0.022123772626990123
aF-0.20790107717044987
aF-0.2829771815111789
aF0.09409865715205731
aF-0.48178294441024405
aF0.848977403127471
aF-0.40563914506159066
aF-0.015513205684244226
aa(lp52
g5
ag6
ag10
aaa(lp53
(lp54
F1.09166088589583
aF-0.831917306754584
aF0.8156842683938484
aF0.9991741168723606
aF-0.015045578448729164
aF0.035197812840617
aF0.0136319005541579
aF0.07588865964562008
aF-0.02676513554400848
aF-0.0002671187128512313
aF-0.001266360412028461
aF0.28192363244470897
aF0.1357693402480096
aF-0.005827897778551476
aF-0.5102408595669328
aF-0.00016114756547193509
aF0.0015323712022332237
aF0.17
aF0.19251990813932882
aF0.051226100057247384
aF-0.2532634638695463
aF-0.9353705421675992
aF-0.13988040420305953
aF0.5145347790768279
aF0.1699738818331172
aF-0.051627548510512225
aF0.2039624287149183
aF-0.9001327104095044
aF1.0327263704212253
aF-0.20284432295283006
aF-0.17072607469768478
aF-0.2900874602268193
aF0.008849415839099092
aF-0.33070024971823614
aF0.7271400287749213
aF-0.4559197044907489
aF0.03926530353125007
aa(lp55
g5
ag6
ag10
aaa(lp56
(lp57
F1.1508245605136955
aF-0.8395496741504984
aF0.8234121503632158
aF0.9989153094136202
aF-0.024615619162422546
aF0.036526355083712006
aF0.015103022765020747
aF0.07448455319476276
aF-0.011932297673970098
aF-0.0003413086842830792
aF-0.0017843063400959762
aF0.28749292456607556
aF0.13542921282813494
aF-0.0058737290389955996
aF-0.5129280566869835
aF-0.00014804111636203008
aF0.001207613445279459
aF0.17
aF0.31809736887722173
aF0.032327761862559014
aF-0.15647311571875946
aF-0.9163628020030977
aF-0.24527239085410302
aF0.3588867163605181
aF0.16997954548969657
aF-0.052903981463399107
aF0.23174346431858636
aF-0.8127067186428163
aF1.082511483557302
aF-0.34211794457726136
aF-0.17920394345174778
aF-0.004053062872750668
aF0.21364462496578598
aF-0.9211812866349502
aF0.9692169250266206
aF-0.12260908403188883
aF-0.1646403204393626
aa(lp58
g5
ag6
ag10
aaa(lp59
(lp60
F1.2667146289550333
aF-0.82
aF0.8536342578613225
aF0.9961740027219145
aF0.0
aF0.0873919709679679
aF0.0
aF0.0
aF0.0
aF0.0
aF0.0
aF0.261799388
aF0.174532925
aF0.0
aF-0.523598776
aF0.0
aF0.0
aF0.17
aF0.3062951191020244
aF0.04290294041681426
aF-0.13525482223071084
aF-1.0747374994744296
aF-0.1443535891054684
aF0.4085134977615991
aF0.17
aF-0.01522612216343923
aF0.12825454244452433
aF-0.6302891159381228
aF0.9653163567508739
aF-0.5113742009361278
aF-0.12361727731729838
aF0.033273165356511966
aF0.11791700163110973
aF-0.8126001737154493
aF0.9921413024557498
aF-0.35572534047396137
aF-0.12187155723015347
aa(lp61
g5
ag6
ag10
aaa(lp62
(lp63
F1.335344905042733
aF-0.82
aF0.865689097225851
aF0.9957109782277198
aF0.0
aF0.09251836781059808
aF0.0
aF0.0
aF0.0
aF0.0
aF0.0
aF0.261799388
aF0.174532925
aF0.0
aF-0.523598776
aF0.0
aF0.0
aF0.17
aF0.41590709280576116
aF-0.014294510293932933
aF-0.03986601486540212
aF-0.9667713679840996
aF-0.25129820781637163
aF0.181868324741662
aF0.17000000000000004
aF-0.015288128827221619
aF0.12109975354056911
aF-0.4482405431446404
aF0.8299387839663714
aF-0.5682498641666932
aF-0.11618350449258093
aF-0.26776748791925353
aF-0.013425308393682193
aF-0.48240927984710624
aF0.8779785089320304
aF-0.574526018161949
aF0.06196772543470363
aa(lp64
g5
ag6
ag10
aaa(lp65
(lp66
F1.4039751773171674
aF-0.82
aF0.8777439359205831
aF0.9952215729099263
aF0.0
aF0.09764231314133034
aF0.0
aF0.0
aF0.0
aF0.0
aF0.0
aF0.261799388
aF0.174532925
aF0.0
aF-0.523598776
aF0.0
aF0.0
aF0.17
aF0.34360297607879486
aF-0.024958217062802407
aF-0.09274803726249799
aF-1.1120783941987331
aF-0.2277092885499601
aF0.3958655087636253
aF0.16999999999999998
aF-0.01543765829474926
aF0.11426432678547181
aF-0.22001038099717027
aF0.5833659813660421
aF-0.5601107200111999
aF-0.10905960905823044
aF-0.2736143100680299
aF-0.040816799958858625
aF-0.25915104291463864
aF0.6354395786893234
aF-0.5653023703235346
aF0.09261753917268743
aa(lp67
g5
ag6
ag10
aaa(lp68
(lp69
F1.4039751773171674
aF-0.82
aF0.8777439359205831
aF0.9952215729099263
aF0.0
aF0.09764231314133034
aF0.0
aF0.0
aF0.0
aF0.0
aF0.0
aF0.261799388
aF0.174532925
aF0.0
aF-0.523598776
aF0.0
aF0.0
aF0.17
aF0.34360297607879486
aF-0.024958217062802407
aF-0.09274803726249799
aF-1.1120783941987331
aF-0.2277092885499601
aF0.3958655087636253
aF0.16999999999999998
aF0.40593780721425066
aF0.00639096833511058
aF-0.2823564026938339
aF0.6673702478660422
aF-0.5650683610638829
aF-0.08311533217536479
aF-0.2736143100680299
aF-0.040816799958858625
aF-0.25915104291463864
aF0.6354395786893234
aF-0.5653023703235346
aF0.09261753917268743
aa(lp70
g5
ag6
ag10
aaa(lp71
(lp72
F1.4039751773171674
aF-0.82
aF0.8777439359205831
aF0.9952215729099263
aF0.0
aF0.09764231314133034
aF0.0
aF0.0
aF0.0
aF0.0
aF0.0
aF0.261799388
aF0.174532925
aF0.0
aF-0.523598776
aF0.0
aF0.0
aF0.17
aF0.34360297607879486
aF-0.024958217062802407
aF-0.09274803726249799
aF-1.1120783941987331
aF-0.2277092885499601
aF0.3958655087636253
aF0.16999999999999998
aF0.40593780721425066
aF0.00639096833511058
aF-0.2823564026938339
aF0.6673702478660422
aF-0.5650683610638829
aF-0.08311533217536479
aF-0.2707479148379336
aF-0.026849113755244795
aF-0.41179504052637117
aF0.7529109150533897
aF-0.5300692022971684
aF0.07836535594275344
aa(lp73
g5
ag6
ag10
aaa(lp74
(lp75
F1.4726054495916012
aF-0.8199999999999998
aF0.8897987746153151
aF0.9947057998891031
aF0.0
aF0.10276367150692226
aF0.0
aF0.0
aF0.0
aF0.0
aF0.0
aF0.261799388
aF0.174532925
aF0.0
aF-0.523598776
aF0.0
aF0.0
aF0.17
aF0.44253032908407747
aF-0.08579455367748148
aF0.016681947798691966
aF-0.9870863844994584
aF-0.34214639922606155
aF0.1547352885950745
aF0.17
aF0.35807550297937546
aF-0.05194133838793783
aF-0.9678273818683983
aF1.2540309619131034
aF-0.4788451061327764
aF-0.020723659364313415
aF-0.2768044685224819
aF-0.05302774535450349
aF-0.1532809142191251
aF0.4319564820043071
aF-0.4777557551596584
aF0.10786841159076593
aa(lp76
g5
ag6
ag10
aaa(lp77
(lp78
F1.5412357218660353
aF-0.82
aF0.9018536133100472
aF0.9941636728302978
aF0.0
aF0.10788230722054776
aF0.0
aF0.0
aF0.0
aF0.0
aF0.0
aF0.261799388
aF0.174532925
aF0.0
aF-0.523598776
aF0.0
aF0.0
aF0.17
aF0.4413680656776652
aF-0.16728624574630196
aF0.2660951164435255
aF-0.7254872963155002
aF-0.5689609107820464
aF-0.15705210285470614
aF0.17
aF0.36726396673408734
aF-0.007985534525158244
aF-0.8164294048195249
aF1.1985548277945175
aF-0.5840946035453703
aF-0.06925639259073836
aF-0.29995317057965887
aF-0.15775066186947395
aF-0.7444656434645699
aF1.1000781743472232
aF-0.5670485724155356
aF0.2177406295132309
aa(lp79
g5
ag6
ag10
aaa(lp80
(lp81
F1.6098659941404694
aF-0.8200000000000001
aF0.9139084520047793
aF0.9935952060967892
aF0.0
aF0.11299808466751546
aF0.0
aF0.0
aF0.0
aF0.0
aF0.0
aF0.261799388
aF0.174532925
aF0.0
aF-0.523598776
aF0.0
aF0.0
aF0.17
aF0.46588671414062627
aF-0.09533575612309714
aF0.020500601662962376
aF-1.0277833076734584
aF-0.35097218650763434
aF0.1513667367808128
aF0.17
aF0.3767787066304942
aF0.033053223472570094
aF-0.6421098773681849
aF1.08168089154117
aF-0.6512506194459948
aF-0.11501084775140676
aF-0.30765232185488456
aF-0.181758343407306
aF-0.5566320818238104
aF0.9506206600367927
aF-0.6163917143717328
aF0.24546240561484434
aa(lp82
g5
ag6
ag10
aaa(lp83
(lp84
F1.6784962664149035
aF-0.8199999999999998
aF0.9259632906995112
aF0.9930004147497079
aF0.0
aF0.11811086830886186
aF0.0
aF0.0
aF0.0
aF0.0
aF0.0
aF0.261799388
aF0.174532925
aF0.0
aF-0.523598776
aF0.0
aF0.0
aF0.17
aF0.462834878439978
aF-0.1765919246983184
aF0.26124026138866846
aF-0.7630073948073196
aF-0.5666173764785265
aF-0.16241182364231385
aF0.16999999999999996
aF0.38654630843283794
aF0.07127193371404328
aF-0.44135061763674716
aF0.8893469626538393
aF-0.6697273336028275
aF-0.15806950351264248
aF-0.27340787650608994
aF-0.027547257314334002
aF-0.5251053574667721
aF0.9711612657509556
aF-0.6748017939863723
aF0.09019923752777392
aa(lp85
g5
ag6
ag10
aaa(lp86
(lp87
F1.6784962664149035
aF-0.8199999999999998
aF0.9259632906995112
aF0.9930004147497079
aF0.0
aF0.11811086830886186
aF0.0
aF0.0
aF0.0
aF0.0
aF0.0
aF0.261799388
aF0.174532925
aF0.0
aF-0.523598776
aF0.0
aF0.0
aF0.17
aF0.462834878439978
aF-0.1765919246983184
aF0.26124026138866846
aF-0.7630073948073196
aF-0.5666173764785265
aF-0.16241182364231385
aF0.16999999999999996
aF0.36686195238640934
aF-0.02515934026288921
aF-1.0488701087785774
aF1.3547823289933225
aF-0.5269949772110009
aF-0.05967890794375873
aF-0.27340787650608994
aF-0.027547257314334002
aF-0.5251053574667721
aF0.9711612657509556
aF-0.6748017939863723
aF0.09019923752777392
aa(lp88
g5
ag6
ag10
aaa(lp89
(lp90
F1.8157568109637716
aF-0.82
aF0.9500729680889755
aF0.9917319219461938
aF0.0
aF0.12832691241901945
aF0.0
aF0.0
aF0.0
aF0.0
aF0.0
aF0.261799388
aF0.174532925
aF0.0
aF-0.523598776
aF0.0
aF0.0
aF0.17
aF0.4979510193521225
aF-0.08001655900897307
aF-0.016225953414624367
aF-0.8054822116635895
aF0.4676249718866025
aF-0.18691115401465624
aF0.17
aF0.3890884676980854
aF0.06059361082116583
aF-0.7142718645887641
aF1.1817164036006034
aF-0.7080545624680006
aF-0.15554557806033614
aF-0.2886339087605249
aF-0.08002992293390884
aF0.07684731318795877
aF0.14551783337484672
aF-0.47166770063672675
aF0.15007502476334644
aa(lp91
g5
ag6
ag10
aaa(lp92
(lp93
F1.8157568109637716
aF-0.82
aF0.9500729680889755
aF0.9917319219461938
aF0.0
aF0.12832691241901945
aF0.0
aF0.0
aF0.0
aF0.0
aF0.0
aF0.261799388
aF0.174532925
aF0.0
aF-0.523598776
aF0.0
aF0.0
aF0.17
aF0.4979510193521225
aF-0.08001655900897307
aF-0.016225953414624367
aF-0.8054822116635895
aF0.4676249718866025
aF-0.18691115401465624
aF0.17
aF0.3890884676980854
aF0.06059361082116583
aF-0.7142718645887641
aF1.1817164036006034
aF-0.7080545624680006
aF-0.15554557806033614
aF-0.26989915408744036
aF-0.00804541315002171
aF-0.6807728839397194
aF1.203537398004756
aF-0.7713142951663218
aF0.07570566241602449
aa(lp94
g5
ag6
ag10
aaa(lp95
(lp96
F1.8157568109637716
aF-0.82
aF0.9500729680889755
aF0.9917319219461938
aF0.0
aF0.12832691241901945
aF0.0
aF0.0
aF0.0
aF0.0
aF0.0
aF0.261799388
aF0.174532925
aF0.0
aF-0.523598776
aF0.0
aF0.0
aF0.17
aF0.4979510193521225
aF-0.08001655900897307
aF-0.016225953414624367
aF-0.8054822116635895
aF0.4676249718866025
aF-0.18691115401465624
aF0.17
aF0.41095219709614206
aF0.14339801752915698
aF-0.7675192734809478
aF1.1292946849958223
aF-0.6043734697344284
aF-0.24115396974616735
aF-0.26989915408744036
aF-0.00804541315002171
aF-0.6807728839397194
aF1.203537398004756
aF-0.7713142951663218
aF0.07570566241602449
aa(lp97
g5
ag6
ag10
aaa(lp98
(lp99
F1.8157568109637716
aF-0.82
aF0.9500729680889755
aF0.9917319219461938
aF0.0
aF0.12832691241901945
aF0.0
aF0.0
aF0.0
aF0.0
aF0.0
aF0.261799388
aF0.174532925
aF0.0
aF-0.523598776
aF0.0
aF0.0
aF0.17
aF0.486157986201876
aF-0.18252213764361908
aF0.24640882842437223
aF-0.8080977870424292
aF-0.5552092964728091
aF-0.1598799498981337
aF0.17
aF0.41095219709614206
aF0.14339801752915698
aF-0.7675192734809478
aF1.1292946849958223
aF-0.6043734697344284
aF-0.24115396974616735
aF-0.26989915408744036
aF-0.00804541315002171
aF-0.6807728839397194
aF1.203537398004756
aF-0.7713142951663218
aF0.07570566241602449
aa(lp100
g5
ag6
ag10
aaa(lp101
(lp102
F1.8157568109637716
aF-0.82
aF0.9500729680889755
aF0.9917319219461938
aF0.0
aF0.12832691241901945
aF0.0
aF0.0
aF0.0
aF0.0
aF0.0
aF0.261799388
aF0.174532925
aF0.0
aF-0.523598776
aF0.0
aF0.0
aF0.17
aF0.486157986201876
aF-0.18252213764361908
aF0.24640882842437223
aF-0.8080977870424292
aF-0.5552092964728091
aF-0.1598799498981337
aF0.17
aF0.41095219709614206
aF0.14339801752915698
aF-0.7675192734809478
aF1.1292946849958223
aF-0.6043734697344284
aF-0.24115396974616735
aF-0.31192860518528526
aF-0.17189898549190302
aF-0.6929748459852499
aF1.1075241026999458
aF-0.6668890441175869
aF0.24480953107421424
aa(lp103
g5
ag6
ag10
aaa(lp104
(lp105
F1.8157568109637716
aF-0.82
aF0.9500729680889755
aF0.9917319219461938
aF0.0
aF0.12832691241901945
aF0.0
aF0.0
aF0.0
aF0.0
aF0.0
aF0.261799388
aF0.174532925
aF0.0
aF-0.523598776
aF0.0
aF0.0
aF0.17
aF0.486157986201876
aF-0.18252213764361908
aF0.24640882842437223
aF-0.8080977870424292
aF-0.5552092964728091
aF-0.1598799498981337
aF0.17
aF0.41095219709614206
aF0.14339801752915698
aF-0.7675192734809478
aF1.1292946849958223
aF-0.6043734697344284
aF-0.24115396974616735
aF-0.31192860518528526
aF-0.17189898549190302
aF-0.6929748459852499
aF1.1075241026999458
aF-0.6668890441175869
aF0.24480953107421424
aa(lp106
g5
ag6
ag10
aaaa(lp107
a.