(lp0
F0.4616409885547986
aF-0.82
aF1.4226312908365222
aF0.98877108
aF0.0
aF0.14943813
aF0.0
aF0.0
aF0.0
aF0.0
aF0.0
aF-0.32097880194809736
aF0.08191470717917887
aF-0.18751044265195396
aF-0.748816687398982
aF0.12264555242078569
aF0.7579289630647416
aF0.17
aF0.261799388
aF-0.17453292499999995
aF-3.328084486435046e-18
aF-0.523598776
aF0.0
aF0.0
aF0.17
aF0.4586489672596516
aF-0.06458494066635867
aF-1.7129414052045964
aF1.5461384057224838
aF-0.10184293861436716
aF-0.06887236783455189
aF-0.2131169438761307
aF-0.24297611907576017
aF-2.161381659605518
aF2.0398934364523007
aF-0.1850755418503465
aF0.29474773845279045
a.