(lp0
(lp1
(lp2
(lp3
F0.8335324329880299
aF-0.8131393641838958
aF0.9716499811068945
aF0.9897938709663446
aF0.015373463593481122
aF-0.058836336444590895
aF0.12887992523422
aF0.5410425502169985
aF-0.0872665
aF0.7357880429843181
aF0.19396951246714167
aF-1.44966871329932
aF-0.09761657712047699
aF-0.5483035504772961
aF-1.7027671928871329
aF-0.8546186896651977
aF0.3911801985975285
aF0.1636000798858024
aF-2.9638966520896135
aF-0.23912566676206962
aF-0.21345445709276106
aF-0.062179590631759867
aF-1.1127154797056482
aF0.3058437425926737
aF0.17031950548270675
aF0.785398
aF0.06206645618202706
aF-0.664731885924378
aF0.2628074738424799
aF0.6725828562288046
aF0.30931480224570906
aF-0.12301675585150165
aF-0.3029825093148146
aF0.07384400782282222
aF0.3351836609562416
aF0.07625837810248501
aF0.2886987013412593
aa(lp4
S'hrp2_rleg_rom'
p5
aS'hrp2_lleg_rom'
p6
aaa(lp7
(lp8
F1.0194297896829527
aF-0.8237062139971066
aF0.9460091080938743
aF0.9603362230680129
aF0.1555759881267989
aF0.148780471067685
aF0.17724226925514064
aF-0.023635761598615773
aF0.6844299725323008
aF-0.3878511642375658
aF0.5886035558098937
aF0.7442621308989825
aF0.4181593927692125
aF0.04494954714074753
aF-0.38289559779276655
aF-0.0003859788524524168
aF0.015666112491628106
aF0.16093774572951186
aF0.6875998786664433
aF-1.408766574969003
aF-0.9514177340615596
aF-0.9296188014215951
aF1.4114349024894446
aF-0.7862212295710782
aF0.1663390758064811
aF0.6122544179767899
aF-0.07921265114251921
aF-0.7008637546468363
aF0.5105431356870174
aF0.3907553077177087
aF-0.06374562730542718
aF-0.4135719445537503
aF-0.5175721926921688
aF-0.06605281069676594
aF0.2761903549339377
aF-0.2216747081689884
aF0.26890060099669966
aa(lp9
g5
ag6
aS'hrp2_rarm_rom'
p10
aaa(lp11
(lp12
F0.9550762708025455
aF-0.8444894958748957
aF0.7679189578852321
aF0.9162429666137494
aF0.20767254574756966
aF0.27108924636092385
aF0.2094792600259644
aF0.052391406413429244
aF1.0472
aF0.3026669329643832
aF0.38312981560477116
aF0.7791349414483209
aF0.3655018331981459
aF0.028754717725323856
aF-0.3353906855392722
aF-0.0008875519687697887
aF0.021193171724157283
aF0.1604077989135628
aF-1.2806201724805801
aF-0.4543473525880767
aF-1.4806215681213122
aF-0.3455958910276571
aF-0.4878388332375516
aF-0.23096370535870744
aF0.17086126605445925
aF0.5247185594485007
aF-0.2550675795199563
aF-1.5087272390795046
aF1.3400575679578364
aF0.24287825983168257
aF-0.14300203656312604
aF-0.6691465952902854
aF-0.610865
aF-1.0588338076019514
aF1.6594015540222642
aF-0.9576550135109034
aF0.3594266566455598
aa(lp13
g5
ag6
ag10
aaa(lp14
(lp15
F0.9898105178664367
aF-0.7573566947901363
aF0.7467469304569622
aF0.9050639113199256
aF0.30789533046773976
aF0.1299312831123042
aF0.2630164321315863
aF-0.10054102971943979
aF1.0472
aF0.3251244759779033
aF0.3527826292531899
aF0.7861897688750036
aF0.5646954140316398
aF0.0667084367379608
aF-0.32919724890597735
aF-0.000431219352384934
aF0.021811512523112236
aF0.16024593457829944
aF-1.0442593923730037
aF-0.7034032175808909
aF-1.5556050150034364
aF-0.13172762820786615
aF-0.42718707628467506
aF-0.31503240907792934
aF0.17097526897242918
aF0.3973412511039314
aF-0.27409138407541733
aF-1.2582186527924064
aF1.666892679571533
aF-0.031201322462212095
aF-0.09139850095329764
aF-0.6518003708930772
aF-0.45658052675502314
aF-0.5707411689569565
aF0.16028216125797853
aF0.13787094223626745
aF0.17716770825893718
aa(lp16
g5
ag6
ag10
aaa(lp17
(lp18
F1.3204827638490302
aF-0.6345919285447881
aF0.517205334964713
aF0.945290046474039
aF0.1825921285091149
aF0.2566006858648303
aF-0.08510540909553563
aF-0.11694894778923136
aF-0.08088324382676351
aF0.6918068612150587
aF-0.3029721341073044
aF-1.459860458993102
aF-0.174533
aF-0.5033394993127677
aF-1.7632567981198666
aF-0.7714762997267395
aF-0.0016411304134639263
aF0.16412860917378408
aF-0.002049779225155585
aF-0.32900799089549093
aF-0.48837276513265443
aF-0.601658834335738
aF-0.8247354441150584
aF-0.20756683452828656
aF0.16849557142975824
aF0.5542999162618881
aF0.16787614635480644
aF-0.2400592012526538
aF0.041055582523492264
aF-0.059651015953500926
aF-0.40888846391424355
aF0.03557456753287627
aF-0.5473864024711015
aF-0.5666203175960798
aF1.2690894386194949
aF-1.0551335374769146
aF0.389613135889142
aa(lp19
g5
ag6
ag10
aaa(lp20
(lp21
F1.221647987547748
aF-0.6788299831844704
aF0.5196734009008257
aF0.8201017074531426
aF0.07817183750401256
aF0.5664201102015335
aF0.02214976327117338
aF-0.6289626364972586
aF1.0194478211771418
aF0.6918068612150593
aF-0.30297213410730495
aF-1.5008086902972089
aF1.620927146651559
aF-0.27897551109007024
aF-0.7056179614734261
aF-1.5958210683510818
aF-0.5359394948603723
aF0.1641286091737845
aF-0.6715325815596991
aF-0.28601236147314674
aF-0.06614512159070794
aF-1.642383031265144
aF-1.4825875695363468
aF-0.029903495350654348
aF0.16849557142975824
aF0.6282578971452107
aF0.02268773673929012
aF-1.119737055648528
aF-0.0349066
aF0.17355495926721629
aF-0.4373760139599168
aF-0.15506032007976095
aF-0.1418943540792618
aF-1.5313171316699357
aF1.4849795078748098
aF-0.9918517015376301
aF0.28365714793324914
aa(lp22
g5
ag6
aS'hrp2_larm_rom'
p23
ag10
aaa(lp24
(lp25
F1.1974413692704866
aF-0.612799951961802
aF0.5400302591220363
aF0.7653096900984194
aF0.054675650549780234
aF0.6281310795035134
aF-0.1294719986721849
aF-0.381962956044137
aF0.42647674158114524
aF0.19064740684565765
aF-0.38938890683683436
aF-1.1357440773800793
aF1.581019323031574
aF-0.5778939532591603
aF-0.6552127031554885
aF-1.3822117922878678
aF-0.3820082116082839
aF0.16978729788669716
aF-0.46487632097047416
aF-0.2429664390049159
aF-0.10302625551428331
aF-1.490012590615668
aF-1.3608199311358402
aF0.08511801738432422
aF0.1675919259165376
aF-0.058993191734970106
aF-0.02341033201927122
aF-1.3454460305400207
aF1.1448215313548669
aF-1.1650166825449835
aF0.14157731975568838
aF-0.043316375270257404
aF-0.33431602164147445
aF-1.747925358668947
aF1.3239943525965288
aF-0.8055221545996728
aF0.42822427531956736
aa(lp26
g5
ag6
ag23
ag10
aaa(lp27
(lp28
F1.2660284631678835
aF-0.6206772451998659
aF0.5884809407838016
aF0.7531077907364703
aF0.0697597377116612
aF0.6362522274282026
aF-0.15213591824116998
aF-0.19593286935524357
aF1.035169756062073
aF0.043474766994500154
aF0.05501475472405787
aF-1.85215060396868
aF1.4414056848963117
aF-0.5303501491266426
aF-0.7271129377962802
aF-1.4999808475039462
aF-0.4246841259556649
aF0.0669565590643116
aF-0.5830860314401141
aF-0.3835754284447623
aF-0.3100776370260092
aF-1.8905827490386067
aF-1.5638231712452366
aF-0.06531997633698802
aF0.07791297378154141
aF-0.04707518022458507
aF-0.07379415347105328
aF-0.9706226784015863
aF0.440845937124
aF-0.8680500293705703
aF0.1479944782046807
aF0.12767609245020892
aF0.0967157824416619
aF-2.0880484729482403
aF1.2623098319409283
aF-0.8855971540469026
aF0.07023891216389594
aa(lp29
g5
ag6
ag23
ag10
aaa(lp30
(lp31
F1.291055089326735
aF-0.5825949091097875
aF0.5653879675146644
aF0.7842134208791184
aF0.11154193724918819
aF0.5904468950227828
aF-0.1547261157843874
aF-0.22821264075577335
aF1.0164079929943342
aF0.04347476699450018
aF0.05501475472405776
aF-1.7070883115498943
aF1.2375762576604072
aF-0.5918657677374947
aF-0.6554175095609001
aF-1.460382505016779
aF-0.28763886216163476
aF0.0669565590643116
aF-0.5338692732655085
aF-0.4717720359018249
aF-0.407030982299889
aF-1.8155864075789931
aF-1.5702435349204
aF-0.013795015474554235
aF0.07791297378154141
aF0.45337659123556806
aF0.09723050318918228
aF-1.0663300609649673
aF0.45244144726838853
aF-0.42804059204596445
aF-0.2592685487921221
aF-0.041090411623471795
aF0.03342042971716466
aF-2.0468083621567383
aF1.3986863862561119
aF-0.9571196842229591
aF0.1672346135258551
aa(lp32
g5
ag6
ag23
ag10
aaa(lp33
(lp34
F1.3397478891747459
aF-0.6486810919245505
aF0.4916191028350084
aF0.8288667510748109
aF0.14485873663570595
aF0.4785299135457194
aF-0.2510079226337703
aF-0.11879899919859806
aF0.6151558958919203
aF0.04347476699450038
aF0.05501475472405722
aF-1.2769496119077481
aF0.40466344977745955
aF-0.8340026563700246
aF-0.4783628855531358
aF-1.4541018090365565
aF0.0949043042128992
aF0.06695655906431164
aF-0.11027068301414436
aF-0.19483446248903163
aF-0.2961032731560645
aF-1.747492277515442
aF-1.0340017022917747
aF-0.08706525395952067
aF0.07791297378154141
aF0.5973118946019241
aF0.13641572108124736
aF-0.4990079876571806
aF0.2108943426187986
aF-0.45949790706296734
aF-0.39287039176807464
aF0.1497233065853716
aF-0.13614101198348538
aF-1.8260483340046827
aF1.759485494714456
aF-1.2826075425043406
aF0.06409312437039201
aa(lp35
g5
ag6
ag23
ag10
aaa(lp36
(lp37
F1.2033368062792722
aF-0.6853381572407427
aF0.48662120062874664
aF0.8225408468157739
aF0.21433125255546517
aF0.4704690975542168
aF-0.23695463224869862
aF-0.2155826100238167
aF0.9357304338876193
aF0.043474766994500445
aF0.05501475472405743
aF-1.5209612330402453
aF0.8305024068035625
aF-0.6069127645303176
aF-0.8038285175626282
aF-1.3298478883899474
aF-0.2330880568752378
aF0.06695655906431168
aF-0.14374495065197293
aF-0.6831704680932178
aF-0.4187635701007245
aF-1.537496015562311
aF-1.3985312117045203
aF0.24170576387892517
aF0.07791297378154141
aF0.5868881234445725
aF0.12025266606409733
aF-0.7291449355921844
aF0.3084213647912561
aF-0.30337744626052543
aF-0.5154524808775804
aF0.280511483097878
aF-0.19615885929841914
aF-2.0959119471156145
aF1.7520974364699042
aF-0.9767687765595751
aF-0.15997958850211133
aa(lp38
g5
ag6
ag23
ag10
aaa(lp39
(lp40
F1.1957340261850748
aF-0.7102463888286398
aF0.45041466339854247
aF0.8737551617412869
aF0.21852677641395002
aF0.35643033482877706
aF-0.24850630119663136
aF0.02405726913011167
aF0.49342582416285474
aF0.044212252427673356
aF0.06588147163211372
aF-1.3511928221593643
aF-0.0815125440480966
aF-0.883128000919085
aF-0.2348796099109094
aF-1.6057
aF1.4617668560905055
aF0.06705127006137433
aF0.2252561027569866
aF-0.3457663034426242
aF-0.6637225060583518
aF-1.3279261766884767
aF-1.0186665113744084
aF0.3570880003204053
aF0.07788698305519645
aF0.5248407641072527
aF0.2621450529149577
aF-0.5000976227949808
aF0.3235649050146226
aF-0.3213416763167316
aF-0.5854156319561578
aF0.3573920695172072
aF-0.1306881487001443
aF-1.9234171882968492
aF1.8928900108511384
aF-1.0280054429105532
aF-0.2603148623994117
aa(lp41
g5
ag6
ag23
ag10
aaa(lp42
(lp43
F1.012155159308555
aF-0.4946435921859963
aF0.5634384813192083
aF0.8340422756455309
aF0.32313842770458845
aF0.3527143831598321
aF-0.2748592419563328
aF-0.5158864606761939
aF0.7229246929713297
aF0.4202404340659348
aF0.30996708068319084
aF-2.0495369791553157
aF0.6512715560567917
aF-1.6057
aF-0.25124434972190085
aF-0.4794118232768484
aF1.1411935998121703
aF0.03643295653463949
aF-0.6369559980472653
aF-0.7901334652354244
aF0.014484419322179986
aF-1.4255862766696508
aF-0.49308172054984667
aF0.5642710514883528
aF-0.044486475419014
aF0.3746066793011668
aF-0.23386122140518295
aF-1.1353144545328377
aF0.8109781077775178
aF-0.13120754493420017
aF-0.2832069054468522
aF-0.023267578805751435
aF-0.5254891022314245
aF-1.9568228410521442
aF0.8086242158087052
aF-0.054204850921862245
aF0.11573433366274513
aa(lp44
g5
ag6
ag23
ag10
aaa(lp45
(lp46
F1.037414297595395
aF-0.5916787252899152
aF0.55847042531987
aF0.8566195749108545
aF0.2628921928581998
aF0.1335277962985786
aF-0.4233921662352756
aF-0.7352310137358706
aF0.6691386403246147
aF0.5847812848483253
aF-0.49549776531455575
aF-1.244253891377777
aF0.33596346367832464
aF-0.34784245073396586
aF-0.6118707819796212
aF0.4263294960258587
aF0.031981752499875504
aF-0.0029706517717992386
aF-1.2704378362875937
aF0.01647367442828768
aF0.21844671141288727
aF-0.43158143530556
aF0.5932597948629361
aF0.5862847705060077
aF-0.04178294438049738
aF0.5920904459944748
aF0.04871820498150899
aF-0.09193296143627229
aF-0.012576993576871809
aF0.16382861952716563
aF-0.4192620407975345
aF0.523599
aF-0.40427880957668255
aF-1.3517182472772697
aF1.0586392947695293
aF-0.25492266779998524
aF-0.03245205519844349
aa(lp47
g5
ag6
ag23
ag10
aaa(lp48
(lp49
F0.9676546319491084
aF-0.5228823767293468
aF0.5930670646465904
aF0.8279950552054697
aF0.28952845811638506
aF0.22654007868385564
aF-0.42341121058133596
aF-0.6085866332960872
aF0.5995190984523797
aF0.5847812848483254
aF-0.4954977653145559
aF-1.4638407671379523
aF0.43509497935616637
aF-0.47958837507369245
aF-0.7328693557998809
aF0.4335732509580172
aF0.23884157797440095
aF-0.0029706517717992273
aF-1.3224876041472287
aF0.07782346175618883
aF0.12697517487543197
aF-0.4755198252504119
aF0.5596569980585007
aF0.6117044096921597
aF-0.04178294438049738
aF0.6498752326421767
aF-0.12937623034677792
aF-0.3941518406084749
aF-0.0349066
aF0.3232529203550147
aF-0.33737275470113254
aF0.4902537763941381
aF-0.44417107691499647
aF-1.1239210096881156
aF1.390038282308371
aF-0.6980429854804749
aF-0.18027135644837147
aa(lp50
g5
ag6
ag23
ag10
aaaa(lp51
(lp52
(lp53
F1.8390651604169395
aF-0.06024336174909901
aF0.67167341954985
aF0.4063583847441715
aF-0.02292997284115064
aF0.07102691244070698
aF-0.9106603412923789
aF-0.6111258317242589
aF0.7693142426850447
aF-0.6114471113137967
aF-0.13410239496298987
aF-0.8731445396864675
aF0.349065850399
aF0.250844537802598
aF0.7132264475148647
aF-0.349065850399
aF-0.19555889781210897
aF-0.6220615396974134
aF0.6036911021465533
aa(lp54
S'rhleg'
p55
aS'lhleg'
p56
aS'rfleg'
p57
aS'lfleg'
p58
aaa(lp59
(lp60
F1.5450765024826583
aF-0.35636337952719477
aF0.59722448976164
aF0.6291601688280616
aF0.1072382349387083
aF0.05218585907593246
aF-0.768071662698203
aF-0.5885288415491315
aF0.6125741268141248
aF-0.40845849743019663
aF-0.20513088094737505
aF-0.9671570739636793
aF0.8912679115628538
aF0.3350242838361206
aF1.0960217645820964
aF-1.2032220243277636
aF0.14669812964668738
aF0.014606075026600728
aF0.5816520597222082
aa(lp61
g55
ag56
ag57
ag58
aaa(lp62
(lp63
F1.6027493098128978
aF0.09831908128427928
aF0.5527973302482401
aF0.6144530004273883
aF-0.1454697743422414
aF-0.041287537797371564
aF-0.7743264132400676
aF-0.7897159208987145
aF0.4093929835286984
aF-0.4661774113084259
aF-0.4686299418867664
aF-0.9319671890963805
aF0.349065850399
aF0.5079351428900943
aF0.6537740753773793
aF-0.95563676873676
aF-0.45895725076302196
aF-0.6674891307643699
aF1.7670999865232992
aa(lp64
g55
ag56
ag57
ag58
aaa(lp65
(lp66
F1.5939175574752102
aF0.22579576816896077
aF0.6387968073190052
aF0.6805543530394841
aF-0.11589584022300611
aF0.05626110956028322
aF-0.7212826175148396
aF-0.8311066667712464
aF-0.14223028963829581
aF-0.349065850399
aF-0.6443333565933381
aF-0.8533551130636661
aF0.349065850399
aF0.5219650990795716
aF0.13997473127920138
aF-0.6586540732535714
aF-0.07990687928339417
aF-0.6489197351126127
aF1.184614206279842
aa(lp67
g55
ag56
ag57
ag58
aaa(lp68
(lp69
F1.6456063127185985
aF0.3002368058875217
aF0.6120373527004762
aF0.6022857153321131
aF-0.026345848416278798
aF-0.0735461128028528
aF-0.7944487287860063
aF0.1613857466354032
aF0.952312852313678
aF-1.1731106150653634
aF-0.26364360996602554
aF-0.7802019201765045
aF0.349065850399
aF0.36081956589508835
aF0.11534371930033861
aF-0.7654087794411615
aF-0.5732948160153729
aF-0.9771563955440012
aF1.23835084249643
aa(lp70
g55
ag56
ag57
ag58
aaa(lp71
(lp72
F1.7372314233691912
aF0.2528777001988965
aF0.6534187969129781
aF0.6605966100102251
aF-0.08107662923017515
aF0.00586654197848539
aF-0.7463271954852551
aF-0.5498626599382143
aF-0.0640831356079084
aF-0.4618318821413303
aF-0.28677539931400714
aF-0.8479318658838875
aF0.349065850399
aF0.26442089653147105
aF0.14003838375449498
aF-0.7432580984522922
aF-0.41454959975211525
aF-0.5573241105075899
aF0.8337793150180468
aa(lp73
g55
ag56
ag57
ag58
aaa(lp74
(lp75
F1.6690184635915908
aF0.27792554022899363
aF0.6801860553286033
aF0.7460264834016459
aF-0.0007892346947745444
aF0.0702594319905167
aF-0.6621989696370268
aF-0.4668991221158263
aF-0.5526421943516727
aF-0.3955156764665872
aF-0.43751133392956215
aF-0.7683530125273554
aF0.6293105711948649
aF0.15743890671497665
aF0.06362565198479611
aF-1.1188414216868632
aF-0.22910616774780068
aF-0.5186792190322375
aF0.6240445654320219
aa(lp76
g55
ag56
ag57
ag58
aaa(lp77
(lp78
F1.7185529562833484
aF0.26494752720794024
aF0.6930466318416828
aF0.7241563407372382
aF0.02691514305870547
aF0.032816939886277215
aF-0.6883285681276661
aF-0.3471637364386326
aF-0.46347043201064353
aF-0.366244950605247
aF-0.2511551383074286
aF-0.7223612576439039
aF0.7049047172100062
aF0.051674714541736826
aF0.09688745233738326
aF-1.1259039688026613
aF0.17880942860672142
aF-0.7344430553947617
aF0.4802344709594772
aa(lp79
g55
ag56
ag57
ag58
aaa(lp80
(lp81
F1.7477705951303564
aF0.23361101594337733
aF0.6762405013112645
aF0.6485888548948162
aF-0.07955457970962837
aF0.021401002001684658
aF-0.7566674059762184
aF-0.5770744874151988
aF-0.031067962061472196
aF-0.46032296598747646
aF-0.288756718683701
aF-0.81675756950934
aF0.349065850399
aF0.2886071013799645
aF0.08881058954028674
aF-0.622939857685264
aF0.23038932243893276
aF-0.8298349264088553
aF0.997226666734039
aa(lp82
g55
ag56
ag57
ag58
aaa(lp83
(lp84
F1.6077296466643707
aF0.3669283019122892
aF0.5567741498910294
aF0.617817536949615
aF-0.087031633503403
aF-0.04506543108448526
aF-0.7801897799435789
aF-0.4388637294909313
aF0.5574830541063739
aF-1.202682018097465
aF-0.4951004089386394
aF-0.8963542001526864
aF0.39144970886100106
aF0.5005188954236347
aF-0.05464292038111446
aF-0.48887494564490985
aF0.4385486033724772
aF-1.1581683457993819
aF1.3070811796904995
aa(lp85
g55
ag56
ag57
ag58
aaa(lp86
(lp87
F1.8442959121826206
aF0.014114102124641401
aF0.6856436594253924
aF0.8561096315098761
aF-0.017081582597553997
aF-0.06062058913431242
aF-0.5129421629628393
aF0.3610480344763875
aF0.5601255056643893
aF-0.5513544464831311
aF0.04239493518648913
aF-0.8366318320700392
aF0.6819397372813122
aF0.3425501519682436
aF0.02067599240044303
aF-0.349065850399
aF0.25811955732114966
aF-0.4492905960433423
aF1.3342638982486394
aa(lp88
g55
ag56
ag57
ag58
aaa(lp89
(lp90
F1.9840606994286132
aF0.25984279562289003
aF0.5988489332059734
aF0.8647335512036824
aF-0.17460537226703612
aF0.02641089901550202
aF-0.47016094458318264
aF-0.3521255731678609
aF1.1291335964930747
aF-0.349065850399
aF0.11601025215324054
aF-0.9830229203057814
aF0.4432750428774023
aF0.2729072929145782
aF-0.12458595926196807
aF-0.49502265302294046
aF0.2634743864087108
aF-0.7707803189293039
aF1.4770753867282258
aa(lp91
g55
ag56
ag57
ag58
aaa(lp92
(lp93
F1.9305110780480454
aF0.2119849980066754
aF0.5851261369898594
aF0.8392443145438012
aF-0.12618339687434138
aF0.06868341130845776
aF-0.5244323787393288
aF-0.399783708919898
aF1.104824037273362
aF-0.3519529889690951
aF0.02433835267772296
aF-1.0882078506251336
aF0.4547345462627619
aF-0.08329717710246816
aF-0.2651180168164697
aF-0.5112076768484752
aF0.2732114819187475
aF-0.8704068754158569
aF1.4060938245047914
aa(lp94
g55
ag56
ag57
ag58
aaa(lp95
(lp96
F1.7838995105423163
aF0.00034625252791050206
aF0.698881272686424
aF0.7679503239522194
aF-0.0212771874569578
aF-0.04804502074597312
aF-0.6383504188274037
aF-0.10177045538288038
aF0.28019368532629607
aF-0.7707089850793994
aF-0.04948585533475366
aF-0.8180853660710395
aF0.7993131211080235
aF0.1887315316484693
aF-0.0535309722571147
aF-0.4477812986952701
aF0.15536816343507917
aF-0.5080053443696464
aF1.3140392916484491
aa(lp97
g55
ag56
ag57
ag58
aaa(lp98
(lp99
F1.7224647145919785
aF-0.1891493208891738
aF0.7321239856416152
aF0.868281332889182
aF-0.039516386498928066
aF-0.07554827595174099
aF-0.4886905361831475
aF-0.05224632527728317
aF0.24277725313527046
aF-0.3579588782653131
aF-0.2826655619238011
aF-0.6407298948323586
aF0.7363383044122659
aF0.11127183627764999
aF0.25568205822465645
aF-0.349065850399
aF-0.0005076117316873367
aF-0.6845772517463764
aF0.4749324318739977
aa(lp100
g55
ag56
ag57
ag58
aaaa.