(lp0
(lp1
(lp2
(lp3
F-0.05
aF-0.82
aF0.65
aF1.0
aF0.0
aF0.0
aF0.0
aF0.0
aF0.0
aF0.0
aF0.0
aF0.261799388
aF0.174532925
aF0.0
aF-0.523598776
aF0.0
aF0.0
aF0.17
aF0.261799388
aF-0.174532925
aF0.0
aF-0.523598776
aF0.0
aF0.0
aF0.17
aF0.0
aF0.0
aF-0.453785606
aF0.872664626
aF-0.41887902
aF0.0
aF0.0
aF0.0
aF-0.453785606
aF0.872664626
aF-0.41887902
aF0.0
aa(lp4
F-0.04976589439672613
aF-0.820053382136418
aF0.6501239803701784
aF0.9999999899612839
aF-9.093135657114058e-05
aF0.0001081464434195608
aF-1.064270460131812e-05
aF-1.443667204782046e-05
aF0.0003926779045145225
aF-2.8415761299412837e-08
aF1.7834132760464606e-06
aF0.2617511398996415
aF0.17465065330004012
aF1.7469942007163597e-05
aF-0.523677571135051
aF7.041498462412825e-07
aF-9.165306055414096e-06
aF0.16999892924495563
aF0.261752511218091
aF-0.17462877688007575
aF-1.36057175370901e-05
aF-0.5236768937633266
aF-4.1414850455446926e-07
aF-9.245622571948117e-06
aF0.17000005979501384
aF2.1441882126830593e-05
aF0.0002799644545327964
aF-0.45312090891381834
aF0.8717749852940182
aF-0.41887036944589723
aF-9.811690397456435e-05
aF2.1434005364217217e-05
aF0.00027995694160385195
aF-0.45306576307209456
aF0.8716471208829355
aF-0.4186422566536635
aF1.8646926544445454e-05
aa(lp5
F-0.04953178879345224
aF-0.8201067642728359
aF0.6502479607403567
aF0.9999999598451361
aF-0.00018186271131661303
aF0.00021629288466781875
aF-2.1285408988958064e-05
aF-2.887334409564092e-05
aF0.000785355809029045
aF-5.6831522598825674e-08
aF3.5668265520929213e-06
aF0.26170289179928297
aF0.17476838160008024
aF3.493988401432719e-05
aF-0.5237563662701018
aF1.408299692482565e-06
aF-1.8330612110828193e-05
aF0.16999785848991122
aF0.261705634436182
aF-0.1747246287601515
aF-2.72114350741802e-05
aF-0.5237550115266532
aF-8.282970091089385e-07
aF-1.8491245143896234e-05
aF0.17000011959002764
aF4.2883764253661186e-05
aF0.0005599289090655928
aF-0.45245621182763673
aF0.8708853445880366
aF-0.41886171889179447
aF-0.0001962338079491287
aF4.2868010728434434e-05
aF0.0005599138832077039
aF-0.4523459201441892
aF0.8706296157658711
aF-0.418405493307327
aF3.729385308889091e-05
aa(lp6
F-0.049297642804841446
aF-0.8201601556181559
aF0.6503719624982719
aF0.9999999096411658
aF-0.0002728097488919849
aF0.0003244579778128517
aF-3.192994891201974e-05
aF-4.331250660014681e-05
aF0.0011781014540386953
aF-8.525218587443255e-08
aF5.350547483082398e-06
aF0.2616546353756901
aF0.17488613020931837
aF5.241283974471742e-05
aF-0.5238351749980271
aF2.112571010950016e-06
aF-2.7497499264549717e-05
aF0.1699967875501519
aF0.26165874956760354
aF-0.1748204971755447
aF-4.081949972077643e-05
aF-0.5238331427660016
aF-1.2425169580315082e-06
aF-2.7738462669478333e-05
aF0.17000017939535667
aF6.432934529936408e-05
aF0.0008399416600025163
aF-0.45179140007518737
aF0.8699955504109753
aF-0.4188530668453927
aF-0.00029436763797830226
aF6.430571365271107e-05
aF0.0008399191199196348
aF-0.4516259530368588
aF0.869611935119958
aF-0.4181686891171688
aF5.5943996397055965e-05
aa(lp7
F-0.049002960007384175
aF-0.820209574969451
aF0.6505492291813668
aF0.9999997768413975
aF-0.00035689319844072517
aF0.0005632003044493893
aF-4.1830813196693805e-05
aF-5.758576053176677e-05
aF0.00165638422695103
aF-1.2693112879532995e-07
aF5.423727349653441e-06
aF0.2616220228157242
aF0.17503304273539028
aF7.457715043332561e-05
aF-0.5239283058693367
aF2.95674782028363e-06
aF-3.837290308449901e-05
aF0.16999578550902497
aF0.2616279491755136
aF-0.17494733666729337
aF-5.933867452849008e-05
aF-0.5239251006616994
aF-1.7197081589828002e-06
aF-3.8688661121386565e-05
aF0.17000025869842056
aF8.449671614954896e-05
aF0.0010988648797684024
aF-0.45106547999698693
aF0.868686247665335
aF-0.4187471697290804
aF-0.0003851507010639399
aF8.446530565125673e-05
aF0.0010988336051647148
aF-0.4508489518455645
aF0.868184104689588
aF-0.41785096886012224
aF7.459035385620413e-05
aa(lp8
F-0.047677470839464484
aF-0.8201604129844888
aF0.651588171901682
aF0.9999954477004486
aF-0.00027114027001186986
aF0.003004896650493556
aF-4.071183456925963e-05
aF-5.433523958129423e-05
aF0.003314163173937918
aF-1.7185582544424062e-07
aF-3.988363844281704e-05
aF0.2620643584707262
aF0.17575080862556203
aF0.00019205711388593772
aF-0.5242430880593857
aF6.189722480363016e-06
aF-7.613038486591623e-05
aF0.16999632157610114
aF0.2620812232233033
aF-0.1756786934594229
aF-0.00017726095977814633
aF-0.5242287755094278
aF-3.0729748781235065e-06
aF-7.639025723998159e-05
aF0.17000072181518613
aF8.200412650193172e-05
aF0.0008369041497693799
aF-0.4493275934366571
aF0.8603309301488802
aF-0.41701315249644927
aF-0.00029479252996804877
aF8.195389979402613e-05
aF0.0008368567291077338
aF-0.4491676850680752
aF0.8599624398465225
aF-0.41654022711804206
aF-9.524273096668932e-05
aa(lp9
F-0.046379238830030464
aF-0.8200996662042377
aF0.6526262693014472
aF0.9999850816551102
aF-0.00016492238732136654
aF0.0054596917748274965
aF-3.2148911020856326e-05
aF-5.060637848808531e-05
aF0.004890319957722362
aF-1.1722645294362573e-07
aF-8.657855725535308e-05
aF0.2625271228966475
aF0.1764600527556943
aF0.0003085354361375898
aF-0.5245443996132992
aF9.324478687509928e-06
aF-0.00011234130153295011
aF0.16999702819189136
aF0.26255477837279656
aF-0.1763913064799732
aF-0.00029257144957563186
aF-0.5245194148511112
aF-4.359870059315731e-06
aF-0.00011258133942048786
aF0.17000118358975902
aF6.57292435495435e-05
aF0.0005124793295430827
aF-0.4477117832677129
aF0.8520848975871081
aF-0.4152925613850289
aF-0.00018292828765914198
aF6.570488334204096e-05
aF0.0005124532201167503
aF-0.4476180692355176
aF0.8518649375525287
aF-0.4150647145852029
aF-0.00010622254141903902
aa(lp10
F-0.04434010360395819
aF-0.8200324890448208
aF0.654199062790956
aF0.999957995783398
aF-4.621042773098043e-05
aF0.009165371184296648
aF-2.2461088899231513e-05
aF-5.280437013334775e-05
aF0.007418671469780155
aF-2.8076214466486906e-08
aF-0.00015489432503022765
aF0.26318778092251016
aF0.17756888517901964
aF0.0004896469588495286
aF-0.5250297625001418
aF1.43159638678731e-05
aF-0.00017051660546859812
aF0.16999798214321504
aF0.2632320637726152
aF-0.1774904506397478
aF-0.0004694210041163209
aF-0.5249887721968324
aF-6.474926054849948e-06
aF-0.00017078277162309918
aF0.17000189868037546
aF4.459508488439139e-05
aF0.00015183803177500603
aF-0.4450215137974654
aF0.8393833708501329
aF-0.41269285799621863
aF-5.976275568580548e-05
aF4.4583687233231e-05
aF0.00015182893726922549
aF-0.4450040001527433
aF0.839325347051286
aF-0.4125892520519377
aF-1.2134325817883567e-05
aa(lp11
F-0.041492804030637126
aF-0.819958070320934
aF0.6563327242458206
aF0.9998992646952511
aF8.623219385927448e-05
aF0.014193407814210034
aF-1.4160667381257266e-05
aF-5.891370416052625e-05
aF0.01099398815523572
aF1.320991484100891e-07
aF-0.0002509890996986543
aF0.2641190080971995
aF0.17914257146414933
aF0.0007469190829713946
aF-0.5257147102121213
aF2.1382931468137346e-05
aF-0.0002526216453943014
aF0.1699992227574369
aF0.26418685538367737
aF-0.17904428787028143
aF-0.0007196311235220004
aF-0.5256512970621893
aF-9.460383493940316e-06
aF-0.0002529416197328107
aF0.17000290522420777
aF2.1447273037453242e-05
aF-0.0002484906520450658
aF-0.4410658620299399
aF0.8217621757606263
aF-0.4090840819410909
aF7.577036754800345e-05
aF2.1442981509034363e-05
aF-0.00024850555464809416
aF-0.44113816519932697
aF0.8218903735563737
aF-0.4090935776604893
aF0.00011080292997095583
aa(lp12
F-0.039736044873957696
aF-0.8199110512957818
aF0.6576439843018511
aF0.9998505483601572
aF0.00016975751370976508
aF0.0172873374150511
aF-9.559151333385474e-06
aF-6.163552106446038e-05
aF0.013201563214430185
aF2.455466848797773e-07
aF-0.00031191777360013685
aF0.26471486053509513
aF0.18012417969603584
aF0.0009077468320160648
aF-0.5261366142958138
aF2.5759835088746992e-05
aF-0.00030323931949599413
aF0.17
aF0.26479745794765835
aF-0.18001502016538368
aF-0.000876293010802953
aF-0.5260591467284489
aF-1.1288686497383333e-05
aF-0.0003035848185028557
aF0.170003532171911
aF7.701285843757412e-06
aF-0.0005010238612645065
aF-0.43859843343710764
aF0.8108571130583035
aF-0.4068350773781455
aF0.00016132491958099573
aF7.700501878947012e-06
aF-0.0005010466219876651
aF-0.4387280147106192
aF0.811105550421019
aF-0.4069539334677401
aF0.00016134769377184656
aa(lp13
F-0.03835465064780756
aF-0.820690895577824
aF0.6590173832863006
aF0.999783502490568
aF-0.002647897408465787
aF0.020595702322529143
aF-0.001324323543738597
aF-0.02680144575702549
aF0.018162465107950863
aF-0.02079429111895286
aF0.003977332480235986
aF0.27975463711528276
aF0.17772890810977598
aF0.03535710454317073
aF-0.5918062506908991
aF0.021193621390018447
aF0.04129593142780364
aF0.1673311932314421
aF0.19957157193660827
aF-0.22585915746808774
aF-0.005914544536335983
aF-0.5625898081624241
aF0.004296299839688947
aF0.024092129598626055
aF0.16018040950533052
aF0.0028867891730623937
aF0.00646301904604008
aF-0.4377765148157563
aF0.8014125082059813
aF-0.40485984068125275
aF-0.001251432888629144
aF0.002885392501623287
aF0.00644363597213456
aF-0.43584872227800464
aF0.7964603535173297
aF-0.4018219119187945
aF-0.0012942037316646922
aa(lp14
F-0.03716142262334209
aF-0.8214844841262993
aF0.6603743264287872
aF0.9997004967151456
aF-0.00546351508447623
aF0.023707117237583702
aF-0.0026531985783357203
aF-0.05356037456555513
aF0.023071648707711844
aF-0.04159909103536103
aF0.008269006924088072
aF0.2948054013617616
aF0.1753008391572695
aF0.0698169372319476
aF-0.6574875530009479
aF0.04237178726684939
aF0.08291747369534268
aF0.16466107260610294
aF0.13434109687116408
aF-0.27169407658129935
aF-0.010950426127050059
aF-0.5991142589075831
aF0.008606062505566798
aF0.048502329823790054
aF0.15035249023878727
aF0.005757422504180589
aF0.013461083550220455
aF-0.437001669406474
aF0.792217021554179
aF-0.40268508781023615
aF-0.002689092626677429
aF0.005755322849593232
aF0.013427246281449284
aF-0.4330800332319827
aF0.782175325588705
aF-0.39655064050590044
aF-0.0027211425559025807
aa(lp15
F-0.03546954813131284
aF-0.8222236529720841
aF0.6617473455425992
aF0.9995840225062625
aF-0.008318697450729969
aF0.027330396107401393
aF-0.0039535644089152625
aF-0.08032217474834046
aF0.02813014706268511
aF-0.062396917199578336
aF0.012563257180314284
aF0.30979345425510957
aF0.17291478080284278
aF0.10427077341474493
aF-0.7231748183919386
aF0.06354324457452323
aF0.12452213450503366
aF0.16199182247511565
aF0.06907979188704672
aF-0.3175092846612431
aF-0.01598202275785723
aF-0.6356546138326646
aF0.012914162147543932
aF0.0729012992342386
aF0.14052780501165008
aF0.0086527985252525
aF0.020410513836045138
aF-0.436256528565624
aF0.7827305896280367
aF-0.4012375206168231
aF-0.004027241952166461
aF0.00864878998510112
aF0.020347226707045803
aF-0.43014253332535257
aF0.7672410049634331
aF-0.3918403269840898
aF-0.004062755676683475
aa(lp16
F-0.03349488868689395
aF-0.8229374280688007
aF0.6631338991667883
aF0.9994353941653145
aF-0.01119136905926518
aF0.031244747740170453
aF-0.005235636241654024
aF-0.10708261030911576
aF0.033268752095750406
aF-0.08319390510454348
aF0.01685864538304381
aF0.3247576920117511
aF0.1705613219619608
aF0.1387290548693214
aF-0.7888807613350859
aF0.08471406757057166
aF0.16612313871247156
aF0.15932266464303088
aF0.003784962560807427
aF-0.36333729809388876
aF-0.02101469342434911
aF-0.6722173370503408
aF0.017221961577505506
aF0.09729686867913322
aF0.130703452224629
aF0.011563017828135154
aF0.02733108996557103
aF-0.4354998428853256
aF0.7730103299638619
aF-0.4001644154447529
aF-0.00531916741461931
aF0.011556231211886958
aF0.027230173011582585
aF-0.4270844305761465
aF0.7518770001253084
aF-0.3874176330357552
aF-0.005349924600368035
aa(lp17
F-0.031047200965817295
aF-0.823612708008778
aF0.6645414834631124
aF0.9992446852388124
aF-0.01407713114880041
aF0.03563499307102712
aF-0.006483877654154571
aF-0.13383675891086103
aF0.03850623977126356
aF-0.10399329631319307
aF0.021155275009172147
aF0.3396978253659609
aF0.16826792382017158
aF0.17320467527473457
aF-0.8546407951931523
aF0.10588763812042261
aF0.20772500976384412
aF0.15665318317244953
aF-0.0616061379501209
aF-0.40923416214958813
aF-0.0260584371322438
aF-0.7088396693397198
aF0.02153026151717985
aF0.12168975471104751
aF0.12087784245356507
aF0.014499972182575437
aF0.03417481309148855
aF-0.4346795579221279
aF0.7628418112196556
aF-0.39968300687903924
aF-0.006540938360631325
aF0.014488649251418574
aF0.034022960993938284
aF-0.4237871147096066
aF0.7357536077693613
aF-0.38341923692329466
aF-0.006699755155402622
aa(lp18
F-0.028561013213773603
aF-0.8243273957009888
aF0.6659703913875104
aF0.9990161009531418
aF-0.016986077614010026
aF0.040236571775881275
aF-0.007702044884155239
aF-0.16057711080973283
aF0.04390489491585652
aF-0.12480983772363644
aF0.025456740350588026
aF0.35465246353614044
aF0.16592711579702416
aF0.2076919931401723
aF-0.9203235693810246
aF0.12709123379127912
aF0.2493909667487047
aF0.15397982849843384
aF-0.12684514947782688
aF-0.4550672558676842
aF-0.031063620939710244
aF-0.7454793483957046
aF0.02584622889091752
aF0.14615333650488269
aF0.1110272134483936
aF0.017448711636542394
aF0.0411151875237485
aF-0.43404950790644153
aF0.7522638791531452
aF-0.39903705637444453
aF-0.00783281755133972
aF0.01743094595959206
aF0.040907703231697116
aF-0.42057498955446276
aF0.7190449387233429
aF-0.37914558898205375
aF-0.00831077088645747
aa(lp19
F-0.025348472778500473
aF-0.8251560314812351
aF0.667507879119229
aF0.9986844983831673
aF-0.020132273436493844
aF0.046335119180746405
aF-0.008776160091155028
aF-0.18730859660438917
aF0.0502385883281824
aF-0.1457171753281779
aF0.029792147564103855
aF0.3695668439389188
aF0.1634292610793764
aF0.24226041084710845
aF-0.9857437452560098
aF0.1484397649013253
aF0.29136121048921837
aF0.15128779829466427
aF-0.19149644248254916
aF-0.5005104911954134
aF-0.03587447829765078
aF-0.7822043595630122
aF0.030196697073376577
aF0.17093380251457407
aF0.10106388395238265
aF0.02046961904528365
aF0.04862756735421632
aF-0.4344336158634272
aF0.7399449200124972
aF-0.39870000417407553
aF-0.009325579729137527
aF0.020437409864220504
aF0.048327035306532276
aF-0.41769184000217013
aF0.6993863463890225
aF-0.37478349956807894
aF-0.009538584690327492
aa(lp20
F-0.022284849756963387
aF-0.8259818295267422
aF0.669040165005879
aF0.998310805567771
aF-0.023300252366580242
aF0.052299272308816924
aF-0.009870149049020545
aF-0.2140380339530564
aF0.05662380518549606
aF-0.16662240411880716
aF0.034130842862745224
aF0.38445328204064855
aF0.16088520360298111
aF0.2768081400209865
aF-1.0511086852418048
aF0.16978621537458383
aF0.3333308359211962
aF0.14859599862882764
aF-0.2560381239729439
aF-0.5458221434204159
aF-0.04065555250741654
aF-0.8188643196127491
aF0.034545843041476613
aF0.19571805878936668
aF0.09110156043620711
aF0.02346817216705615
aF0.05620290972250353
aF-0.43495189754711233
aF0.7279649354426198
aF-0.3982918268293187
aF-0.010814582010653509
aF0.023423507513052236
aF0.05581411312429164
aF-0.4150233273707865
aF0.6802066110982758
aF-0.3704082021854925
aF-0.010736293510612465
aa(lp21
F-0.018665649853781118
aF-0.8268064107587497
aF0.6706026202743933
aF0.9978622682946645
aF-0.026393639875393442
aF0.05878499440724407
aF-0.010890074402656137
aF-0.24076810650094685
aF0.06292319295560499
aF-0.18753162722280073
aF0.03845902529120914
aF0.3994199644171542
aF0.15849804628879743
aF0.3114143141862603
aF-1.1166409920971807
aF0.19113660986358819
aF0.37529643799949053
aF0.14590381409477626
aF-0.3208969761389271
aF-0.59154287334599
aF-0.045525132323366586
aF-0.8557299426399647
aF0.038897948112511904
aF0.2204867973742412
aF0.08113733466498865
aF0.026543449412510748
aF0.06355018319674381
aF-0.4350384819937149
aF0.7147519041244068
aF-0.3981724146904064
aF-0.012296966840666118
aF0.026479652537328837
aF0.06305484944161961
aF-0.411633566921056
aF0.6592960926688429
aF-0.36605768726552285
aF-0.012245595416963288
aa(lp22
F-0.015167236716808745
aF-0.8276328208667239
aF0.6721547761792468
aF0.997368657430764
aF-0.029494772528225535
aF0.06514300566368061
aF-0.011925115570309255
aF-0.26749847320062936
aF0.06920996414500984
aF-0.20843936776671004
aF0.04278862382495083
aF0.414375143986837
aF0.15607998383408989
aF0.3460100511929661
aF-1.1821429889088768
aF0.21248547302094606
aF0.41726118344056906
aF0.14321180465110495
aF-0.3857080359458336
aF-0.6371960706825447
aF-0.050382225027940465
aF-0.8925578901662046
aF0.04324966751381971
aF0.2452572267897477
aF0.07117382878044871
aF0.029603667594826206
aF0.0709346285443286
aF-0.4351960441766051
aF0.7017991485241807
aF-0.3979842103314855
aF-0.013783435932360514
aF0.029521995305302515
aF0.07033696102749655
aF-0.40837715235478106
aF0.6387523194999973
aF-0.3617000695902556
aF-0.01369831671186598
aa(lp23
F-0.011301811199525138
aF-0.8286488942526093
aF0.6736701856378009
aF0.9967853777677133
aF-0.032585021599423385
aF0.07205881326950982
aF-0.01283177563831256
aF-0.29472500905170623
aF0.07533432429160501
aF-0.22971247648353235
aF0.047183491654658724
aF0.4296662548135629
aF0.15366687468346305
aF0.38117736609454644
aF-1.248144390578358
aF0.23423143766161506
aF0.46001453376652746
aF0.14046930168981073
aF-0.4519556338858207
aF-0.6840413125796375
aF-0.05536574826608429
aF-0.9301809992796546
aF0.04766107055471803
aF0.2703893578777441
aF0.06106138960309788
aF0.03284707337881654
aF0.07849866680812256
aF-0.435314895593557
aF0.6873791648742196
aF-0.397569759190156
aF-0.015597511032243754
aF0.03273157350352578
aF0.07776960351261467
aF-0.4043617054440793
aF0.6154509601740165
aF-0.3565394816790539
aF-0.015383050535820793
aa(lp24
F-0.007232760932143052
aF-0.8297670467027618
aF0.6752255595004709
aF0.9960959245575803
aF-0.03586211635187045
aF0.07949493295653039
aF-0.013688437631106404
aF-0.3224077783427184
aF0.08174159398923041
aF-0.2513465037956193
aF0.05166272443028952
aF0.44512009509341055
aF0.15111011664829535
aF0.41683363747334823
aF-1.3144718579983197
aF0.2563696368068765
aF0.5035588725095712
aF0.13767677822918442
aF-0.5191876127500364
aF-0.7314969518725702
aF-0.06032953734530588
aF-0.968362969363131
aF0.05212615659748728
aF0.29590661540499713
aF0.050800422598057136
aF0.03618418682252223
aF0.08657777246284076
aF-0.4359154780720321
aF0.6723795507436263
aF-0.39717792565259064
aF-0.01759431029262147
aF0.036030243591621006
aF0.08569777867092794
aF-0.4004916578878666
aF0.5909635146344062
aF-0.3511409780109068
aF-0.016999836771987492
aa(lp25
F-0.0029513136187050105
aF-0.8309353915926289
aF0.6767492400394005
aF0.9953324676233102
aF-0.03900936247734786
aF0.0870738666077694
aF-0.014480686723210038
aF-0.3500940855286482
aF0.08790508275943354
aF-0.2729740434570657
aF0.05612711625455188
aF0.46067740689236847
aF0.14867700367835926
aF0.4525296175308724
aF-1.3809205892369951
aF0.27850064122189727
aF0.5470797083285689
aF0.13488526345645638
aF-0.5867052687540153
aF-0.7793536194835201
aF-0.06539085501250315
aF-1.0067164251653478
aF0.05659303021526285
aF0.32139738785015715
aF0.04054266427969684
aF0.03959251881200618
aF0.09441892143583695
aF-0.43613459436152224
aF0.6565556058351343
aF-0.3966764437944589
aF-0.019673126889355262
aF0.039391896768255504
aF0.09337786497489983
aF-0.3959586916466936
aF0.5651581071007317
aF-0.34539747888639855
aF-0.01893860219154429
aa(lp26
F0.001411020590175044
aF-0.832127602943152
aF0.6782573475304156
aF0.9944988010199579
aF-0.04210394130094158
aF0.09469380017809445
aF-0.01524719989453861
aF-0.3778013584381171
aF0.09394282712804872
aF-0.2946125506351416
aF0.06058779423129803
aF0.4762909266174973
aF0.14629440109349665
aF0.4882672972363926
aF-1.4474647355337664
aF0.3006425866157164
aF0.5906182116640363
aF0.13209240640805833
aF-0.654398821885259
aF-0.8274160878785366
aF-0.07050034169404122
aF-1.0451677829335302
aF0.06106384942504586
aF0.3468929515974573
aF0.030279755714274974
aF0.04303093427094227
aF0.1021734315794919
aF-0.43618960611681407
aF0.6404132498532986
aF-0.3961294317395646
aF-0.02179145249897233
aF0.042780209503696355
aF0.10096743823387916
aF-0.3911435317793633
aF0.5388245102979307
aF-0.33951609667751337
aF-0.02091235702699663
aa(lp27
F0.005835996566007555
aF-0.8333419933397673
aF0.6797394744211962
aF0.9935997074912827
aF-0.04512835214361042
aF0.10231027813689368
aF-0.015989374396495733
aF-0.4055023416040683
aF0.09980932534812784
aF-0.3162357713986767
aF0.06503841713097046
aF0.4919522702039551
aF0.14396550513495412
aF0.5240096208652205
aF-1.5140338286039745
aF0.32276853214567996
aF0.6341207083090548
aF0.1293016278944816
aF-0.7222033344836857
aF-0.8756397466278752
aF-0.07565935751055453
aF-1.0836681781494133
aF0.06553401673813676
aF0.3723615769806772
aF0.020024226557094096
aF0.04649272527744369
aF0.10980459930180073
aF-0.43605334097263776
aF0.6240159345484013
aF-0.3955379444458555
aF-0.023945951419092486
aF0.04618860897038286
aF0.10843115909187018
aF-0.3860275886597433
aF0.5120405572152633
aF-0.33350365006992405
aF-0.0229190371232516
aa(lp28
F0.010411250409922324
aF-0.8346078334481142
aF0.6811413542886273
aF0.9926477439472883
aF-0.047942850079592654
aF0.1098806149254946
aF-0.01667902953409978
aF-0.4332675455942279
aF0.10521596272510172
aF-0.3378725593663416
aF0.0694724068639504
aF0.5077976966783633
aF0.14176633728049878
aF0.5598634027642976
aF-1.580850880878574
aF0.34490736009477135
aF0.6776346698872306
aF0.12650946131166715
aF-0.7904611225071402
aF-0.924397603769185
aF-0.08096443557882964
aF-1.1223689040326867
aF0.07001471233338402
aF0.3978220114744746
aF0.009762852264479196
aF0.050014933424092814
aF0.11703904310730623
aF-0.4353604282214299
aF0.6069951125797939
aF-0.3948322076238588
aF-0.02618260152414235
aF0.04964938044060992
aF0.11549438918242771
aF-0.3800736476823207
aF0.4841227406256808
aF-0.32711571777571047
aF-0.025221159748652598
aa(lp29
F0.014835801550512045
aF-0.8358246065877875
aF0.6825942435559986
aF0.991625676504764
aF-0.0508943497685986
aF0.11740914558045533
aF-0.017417674706116885
aF-0.4609972999298764
aF0.11095834799303783
aF-0.3595026739247196
aF0.07391975471894907
aF0.5235125156811832
aF0.13945529127422981
aF0.5956428397925102
aF-1.6474938320758272
aF0.36704009988275427
aF0.7211465709607027
aF0.12371792884810404
aF-0.8583691548813096
aF-0.9727287604665209
aF-0.08615753021547
aF-1.1608964097633108
aF0.0744889320087589
aF0.42329363131302333
aF-0.0004956435417716959
aF0.05347971827905936
aF0.12452964386273094
aF-0.4350772531360078
aF0.590580219070204
aF-0.3942241265343031
aF-0.028339160823596273
aF0.05305992866000884
aF0.12281982186703994
aF-0.3747779220314516
aF0.4572559391217719
aF-0.3210261446689553
aF-0.02741295810677853
aa(lp30
F0.019393636972677784
aF-0.8373775646089144
aF0.6838413054731605
aF0.9905473771618345
aF-0.05364038105745876
aF0.12495655133932523
aF-0.01801286748974574
aF-0.4895693026354722
aF0.11560690399715416
aF-0.38166646940561777
aF0.07845444127647253
aF0.539801230745479
aF0.1372286396372974
aF0.6322339536935095
aF-1.715356824106143
aF0.38966024931147514
aF0.7656148243095391
aF0.12086496020892515
aF-0.9290072289989603
aF-1.0233243845696502
aF-0.09184070409960675
aF-1.200624477551975
aF0.07905373449914117
aF0.4491611134532958
aF-0.010926838223336087
aF0.057236713459421926
aF0.13201278255272697
aF-0.43436530037452536
aF0.573118514939319
aF-0.39316466787131277
aF-0.031072032805907396
aF0.056737041171222656
aF0.13010905441964407
aF-0.36792614232567217
aF0.42726014070955126
aF-0.3135591666794625
aF-0.029748069291733514
aa(lp31
F0.02389318775827084
aF-0.8390340793434576
aF0.6849691703101224
aF0.9894471941743641
aF-0.05616802319774333
aF0.1322673554128515
aF-0.01856743931257692
aF-0.5184703611645333
aF0.11976501218434052
aF-0.40401444940005227
aF0.08301044848922114
aF0.5563945870106386
aF0.1350788908815943
aF0.6691378632964584
aF-1.7837761972379966
aF0.41242605841201174
aF0.8103583657868878
aF0.11799406056501038
aF-1.0006883239866187
aF-1.0748078202528382
aF-0.09776831375821059
aF-1.2407239599318327
aF0.08365285962997666
aF0.47512498171488227
aF-0.021404219394741165
aF0.061070032581030775
aF0.1391720833289154
aF-0.43327600069270616
aF0.5554572406218728
aF-0.3918571162272364
aF-0.03397736765174999
aF0.06048195372373978
aF0.13707307137360983
aF-0.3602076654265507
aF0.3961409469645435
aF-0.3052476716989557
aF-0.03251255720199094
aa(lp32
F0.028399190075661312
aF-0.8406136598961743
aF0.6860306480212853
aF0.9883546833582432
aF-0.05835239052392786
aF0.1392239989987629
aF-0.01914932131337453
aF-0.5467980000291998
aF0.12348009898147519
aF-0.42589864795591414
aF0.08745426399086648
aF0.5728372112086695
aF0.13307337966153954
aF0.7054291421516441
aF-1.8488379848972865
aF0.43474491172630675
aF0.8542000270932909
aF0.1151796982047767
aF-1.0714077539671347
aF-1.126023961688974
aF-0.10376740359167932
aF-1.2803238133890698
aF0.0881953909774994
aF0.500669936146815
aF-0.031722683035671474
aF0.06484831421501193
aF0.14548935911281122
aF-0.4312524298094217
aF0.5373707026354977
aF-0.3903399911940095
aF-0.03673763936328785
aF0.06417493713028655
aF0.14321344363027702
aF-0.3514319520086436
aF0.3643052643048001
aF-0.29659158419941334
aF-0.03506910237177944
aa(lp33
F0.03294023811422389
aF-0.8419283083807838
aF0.6869459226624324
aF0.9873957969420528
aF-0.05963768038168081
aF0.1452578659399812
aF-0.019825227424263007
aF-0.5732719674821339
aF0.12610158151671658
aF-0.4463191107908491
aF0.09155544999179555
aF0.5886816477053324
aF0.1314574801801048
aF0.7397400261180135
aF-1.9038410207304768
aF0.4556632601267254
aF0.895226325374615
aF0.11254226065308663
aF-1.1387686918858317
aF-1.175992494583913
aF-0.10985981058227945
aF-1.3182413384330238
aF0.09254978957758253
aF0.5249065050682845
aF-0.041539426724292346
aF0.0684301922956038
aF0.14950180126301593
aF-0.4266957299755997
aF0.5181722125523655
aF-0.38832254118507503
aF-0.03900779714711007
aF0.06768392528442918
aF0.14710251581608447
aF-0.33997851223650005
aF0.3309179111123834
aF-0.2873060064770114
aF-0.036840125215825956
aa(lp34
F0.03748334352255405
aF-0.8432435524807722
aF0.687861611978421
aF0.986397510856431
aF-0.060921199085807204
aF0.1512887342939962
aF-0.0205006574017788
aF-0.5997579292455893
aF0.12872425174230356
aF-0.4667488253321127
aF0.0956584940783511
aF0.6045332626912683
aF0.12984084859834608
aF0.7740664549926888
aF-1.9588689762698865
aF0.4765910858057858
aF0.9362712110536153
aF0.10990362818246228
aF-1.206160148388788
aF-1.2259836662503507
aF-0.1159549778022028
aF-1.3561760424121105
aF0.09690616098393413
aF0.5491540546232434
aF-0.05136061799230669
aF0.07201369318388492
aF0.15351606129250844
aF-0.422136965680799
aF0.498965024390564
aF-0.3863041771491098
aF-0.04127898344988925
aF0.07119450322271015
aF0.1509933499871145
aF-0.3285198833625189
aF0.29751543142703074
aF-0.2780162218255661
aF-0.03861195044047405
aa(lp35
F0.04194229085493371
aF-0.844523399567601
aF0.6887140037344094
aF0.9854493872344341
aF-0.06179893303121915
aF0.15689823818018392
aF-0.021291780842272793
aF-0.6306598824307532
aF0.1324885696534016
aF-0.49066279347745284
aF0.10048907277667057
aF0.6228310025187856
aF0.12771011042719135
aF0.8110835119560906
aF-1.9958397330333466
aF0.4991293086680486
aF0.9804477741286269
aF0.1070633975793503
aF-1.2784839842350646
aF-1.2789850992129819
aF-0.12228204244045915
aF-1.3957729524373035
aF0.10145502398440427
aF0.5744411654549655
aF-0.06160806051926876
aF0.07563054505009872
aF0.15662382307905515
aF-0.41647350184541404
aF0.47905606179264765
aF-0.3838058262922232
aF-0.043476261033727884
aF0.07474695135760681
aF0.15400117587781018
aF-0.3153774071113816
aF0.262137228778282
aF-0.267569219212126
aF-0.040457671389416264
aa(lp36
F0.046180871443954365
aF-0.8457103847018862
aF0.6893999152200958
aF0.9847076530062924
aF-0.06161263288628048
aF0.16141076733528606
aF-0.022389411959526873
aF-0.6732030382340937
aF0.13926119478445909
aF-0.5237616285925505
aF0.10723746296406653
aF0.6475774346153849
aF0.12422454360852611
aF0.8551988157153424
aF-1.9852571508638683
aF0.5259160933870243
aF1.032886454136368
aF0.10369130375158792
aF-1.3638214296501405
aF-1.3399314270282696
aF-0.1292218079257344
aF-1.4397599161923762
aF0.10651226589718119
aF0.6024740163447171
aF-0.07298130306981465
aF0.07933631124290877
aF0.15734470508291318
aF-0.4078984962085934
aF0.45729270248533815
aF-0.38004241297005303
aF-0.04547950363076482
aF0.0784107352152682
aF0.15468396715524255
aF-0.29779566136363206
aF0.22154438387524114
aF-0.2540709282402175
aF-0.042498583536378615
aa(lp37
F0.050420957877984784
aF-0.8468977915376356
aF0.6900860703902811
aF0.9839438298115806
aF-0.06142490094789675
aF0.16592132207714716
aF-0.023486936782642288
aF-0.715761308389402
aF0.14603622603321148
aF-0.556872222765814
aF0.11398825065918333
aF0.6723326584030938
aF0.12073773846884989
aF0.8993297923652293
aF-1.9746708090092275
aF0.5527123946753443
aF1.0853437640894292
aF0.10031801191648405
aF-1.4491891929897252
aF-1.400899407309914
aF-0.13616403890883505
aF-1.4837625072425953
aF0.11157130450164239
aF0.6305168264950598
aF-0.08435858620427299
aF0.08304339398719437
aF0.1580658431952833
aF-0.3993204441204489
aF0.4355216112863446
aF-0.37627766261605067
aF-0.047483457921918396
aF0.08207582070929656
aF0.15536700100865436
aF-0.28020766933047125
aF0.18093711750924915
aF-0.24056784171619586
aF-0.04454022076035845
aa(lp38
F0.05430502878439758
aF-0.8479854986909131
aF0.6907146130804519
aF0.9832249979139865
aF-0.06125173668343022
aF0.17004992617759765
aF-0.024491852467676344
aF-0.7547462068128897
aF0.15224239710371534
aF-0.5872027119016605
aF0.12017221376699387
aF0.695009329266187
aF0.11754370018447496
aF0.9397553462175526
aF-1.9649733410347683
aF0.5772587655696054
aF1.1333965372079442
aF0.0972279558812083
aF-1.52738911912133
aF-1.4567482590064547
aF-0.14252337091929815
aF-1.5240704552913038
aF0.11620556490263227
aF0.6562050441136478
aF-0.09478058469513036
aF0.08643921444009436
aF0.15872643151237084
aF-0.3914626414393876
aF0.4155785126626472
aF-0.3728290165689964
aF-0.04931915176475633
aF0.08543317017807593
aF0.15599268446096307
aF-0.26409643923621023
aF0.14373940837406554
aF-0.2281985312479486
aF-0.046410433518160966
aa(lp39
F0.06056387868958219
aF-0.8448348460189569
aF0.690716603927499
aF0.9836361165671573
aF-0.05506713901366257
aF0.1698315200137344
aF-0.024183779592034826
aF-0.7531766466343621
aF0.13935626382790933
aF-0.5874447384941525
aF0.11859373377095705
aF0.7076695897819211
aF0.10747048959323179
aF0.9168992731720337
aF-1.9543221322837705
aF0.5744066984253089
aF1.107396125342014
aF0.09723690727275003
aF-1.5303552503988116
aF-1.4647776769978946
aF-0.14247556309493362
aF-1.5242729608937235
aF0.11628254007892935
aF0.6550385836099972
aF-0.09478620610110636
aF0.08159670694263468
aF0.1413709555481927
aF-0.36705422794091297
aF0.39106268613392603
aF-0.371103450971385
aF-0.043676845661178076
aF0.08077487253205912
aF0.13912057394166022
aF-0.244165174935938
aF0.1277700976714933
aF-0.23038119991001452
aF-0.04207742013735658
aa(lp40
F0.06571276780944882
aF-0.8425057186547487
aF0.6906262876022775
aF0.9839854085072833
aF-0.05048576557755066
aF0.1692937728496845
aF-0.023738613968022387
aF-0.7527005795414534
aF0.1308395433522282
aF-0.5876440746965437
aF0.11722315149757134
aF0.7177508111421259
aF0.09954360523906614
aF0.8992277600348225
aF-1.9456586415456854
aF0.5728492290522657
aF1.086482815601407
aF0.09724591671939103
aF-1.533104426013442
aF-1.4726506920881934
aF-0.14228931525700972
aF-1.5246279898208734
aF0.11635072613187519
aF0.6538388543603483
aF-0.09479172642987292
aF0.07755967595154858
aF0.12864685560327802
aF-0.3463642060403604
aF0.3707096047121398
aF-0.36953108271000884
aF-0.039526278073576594
aF0.07686260766441286
aF0.1267242322197128
aF-0.2255327323660866
aF0.11137718429397159
aF-0.2308732192793468
aF-0.037698864877219504
aa(lp41
F0.06981328489526226
aF-0.8406147098262579
aF0.6904868274850593
aF0.9842714946940777
aF-0.04676571911123649
aF0.16874794822281286
aF-0.023382091850090124
aF-0.7527296660790708
aF0.12407999677586928
aF-0.5878085628758972
aF0.11604812689485311
aF0.72603008619854
aF0.0935253722176744
aF0.8852873619376054
aF-1.9381295395491966
aF0.5721717340407083
aF1.0696289619752182
aF0.09725364119520186
aF-1.535199451634532
aF-1.4792283471264795
aF-0.1420506732390224
aF-1.5249885004575536
aF0.11640333653711925
aF0.6528052066140115
aF-0.09479635155884925
aF0.07430777163891551
aF0.11833051100200324
aF-0.3294713950473942
aF0.3540659064872781
aF-0.36805661528689604
aF-0.03617034586692677
aF0.07370350512162839
aF0.11665294473220274
aF-0.21073085116011236
aF0.09885583128162431
aF-0.23143636953481286
aF-0.034601448059379356
aa(lp42
F0.07411633969700873
aF-0.8386078644826412
aF0.6903084665577791
aF0.9845712291375933
aF-0.04280904952509314
aF0.16810004455141442
aF-0.023005544007029824
aF-0.753052854525043
aF0.11694621306451916
aF-0.5879854200373343
aF0.11475341917529423
aF0.7349207812994529
aF0.08737143633258927
aF0.8707249742893042
aF-1.9297835980264926
aF0.5718235141534016
aF1.0517560537839286
aF0.09726212768108118
aF-1.5373355107173856
aF-1.486360756108771
aF-0.141742100732308
aF-1.52542673534434
aF0.11645779132700962
aF0.651664998033592
aF-0.09480137415248051
aF0.07086539529188159
aF0.10737287087873455
aF-0.31145248665038466
aF0.33627715224870625
aF-0.36634509564009216
aF-0.032614759337964344
aF0.07035494653395603
aF0.10594474100573308
aF-0.1951958994521256
aF0.08598282146798374
aF-0.23221338144602832
aF-0.03119016723207566
aa(lp43
F0.07661660855583692
aF-0.837433519172063
aF0.6901619691145664
aF0.9847472654691771
aF-0.04049671378737978
aF0.1676720749006497
aF-0.022779697581660707
aF-0.7534891821728077
aF0.11293151322554058
aF-0.5880907242349965
aF0.1139458173639113
aF0.7402535699264992
aF0.08391080508718977
aF0.8624126012865015
aF-1.9247571694766445
aF0.5719989662547805
aF1.0412752106934797
aF0.0972674100407566
aF-1.5385033420572087
aF-1.4907112244023764
aF-0.14150097492611627
aF-1.5257504700178919
aF0.11648826134918047
aF0.6509486127283972
aF-0.0948044438008452
aF0.0688570425099347
aF0.10097491364876135
aF-0.3007841751302931
aF0.32569399886122213
aF-0.36522401786924436
aF-0.03054178477071263
aF0.06839616832981502
aF0.09967964461028082
aF-0.18627893517133234
aF0.07890983270499828
aF-0.23285432855381555
aF-0.029257489384182277
aa(lp44
F0.07750966841134671
aF-0.8370206631805415
aF0.6900823392203473
aF0.9848112734741199
aF-0.039690602794040734
aF0.16750023706960557
aF-0.02269542398268033
aF-0.7537067219681977
aF0.11163761580797184
aF-0.5881287885285893
aF0.11364841234503976
aF0.7421767772466785
aF0.08273352964052509
aF0.8595460068946358
aF-1.9230020924882225
aF0.57220401344532
aF1.0375836281669835
aF0.09726938610048734
aF-1.5389216766390341
aF-1.492324067273878
aF-0.14140161021317613
aF-1.5258780591488044
aF0.1164990285022027
aF0.6506795082307548
aF-0.09480558153460183
aF0.06815366727763154
aF0.09874387853615697
aF-0.29692392406468165
aF0.32185290902772146
aF-0.36479189001643
aF-0.0298177033296133
aF0.06770725913103852
aF0.097487710006038
aF-0.18314579592462615
aF0.07655939081252063
aF-0.23311858655135892
aF-0.02868908603187386
aa(lp45
F0.07812367520969096
aF-0.8367419618228169
aF0.6900304727340453
aF0.9848560283873278
aF-0.03914476854856785
aF0.16737237619506345
aF-0.022644604903508767
aF-0.7537893661555184
aF0.11071632521287092
aF-0.5881555157009573
aF0.11347051868348298
aF0.7434160306671058
aF0.08197075744151507
aF0.8575404747477218
aF-1.9217665593404385
aF0.5722610289045059
aF1.0351256575049246
aF0.09727063361153174
aF-1.5392878065134277
aF-1.4933856528187466
aF-0.14136981916481134
aF-1.5259118996343963
aF0.11650784660491925
aF0.6505167026361925
aF-0.09480632753545135
aF0.06768836909637393
aF0.09723295511928982
aF-0.29423359347117856
aF0.3191784492986834
aF-0.36447902626724715
aF-0.02932840702944852
aF0.06725168164170653
aF0.09600365191878307
aF-0.1808535816082423
aF0.0747163871524869
aF-0.23311844425879072
aF-0.02840336769500134
aa(lp46
F0.079495331192004
aF-0.836116064237725
aF0.6899684557723652
aF0.9849432510449951
aF-0.0379147832534808
aF0.16715732117565626
aF-0.022532008546417487
aF-0.7537825656049981
aF0.10849358270218311
aF-0.5882118913544292
aF0.11309774777071172
aF0.7461119813326191
aF0.08006670714536215
aF0.852898691300307
aF-1.919187513464044
aF0.5720542308145168
aF1.0295953838717629
aF0.09727317818683151
aF-1.5400683057815383
aF-1.4955806495126336
aF-0.1413183710772651
aF-1.5259794522523564
aF0.11652684827250788
aF0.6501844815474183
aF-0.09480786971271157
aF0.0666283456823067
aF0.09382300316822066
aF-0.2884733868966219
aF0.3134894135675049
aF-0.3639252854364538
aF-0.02822034637000092
aF0.06622006298384567
aF0.09267044384544423
aF-0.17576951330980775
aF0.07042143016223443
aF-0.2330293727938473
aF-0.02771577903028778
aaa(lp47
(lp48
F0.07986182268404057
aF-0.836096371631187
aF0.689952416187804
aF0.9849708987009143
aF-0.03786887434888324
aF0.1670224688393671
aF-0.022400267200742525
aF-0.7535950761218301
aF0.10875847000325888
aF-0.5882194735484395
aF0.11309402750536086
aF0.7461256904013249
aF0.0796134895891062
aF0.8518723798893275
aF-1.9190803986339262
aF0.571560991875087
aF1.0287900159577321
aF0.0972742687908609
aF-1.5405311987154346
aF-1.496585510335026
aF-0.14132674943990237
aF-1.5259784076586413
aF0.11653721423121827
aF0.6500448167645118
aF-0.09480857096209987
aF0.06631314249497737
aF0.09375378140878439
aF-0.28712825681832266
aF0.31257871888378586
aF-0.36405966399291634
aF-0.02818119952330922
aF0.06590979769536273
aF0.09260875983711161
aF-0.17320801024812352
aF0.06704744894771274
aF-0.23240602277500186
aF-0.02696941442641818
aa(lp49
F0.07969586570823564
aF-0.8359806256120876
aF0.6899837334131339
aF0.9849672569420642
aF-0.03783971048067661
aF0.16703314116869167
aF-0.022529731780131734
aF-0.7535892805937041
aF0.10859094451965381
aF-0.588223446623487
aF0.11307207167489658
aF0.7456653180595314
aF0.07968921787366978
aF0.8521134499935796
aF-1.918864385537125
aF0.5714156063267479
aF1.0292143634978732
aF0.09727410192979914
aF-1.5406684762944414
aF-1.4968925009947773
aF-0.14150943241545996
aF-1.5259123099247645
aF0.11654979087554729
aF0.6500666085667305
aF-0.09480875931192531
aF0.06649492566981284
aF0.09346295386294888
aF-0.2874882376100088
aF0.3127441856513431
aF-0.36388700319583983
aF-0.027981463912207766
aF0.06609147321136319
aF0.09231863199597598
aF-0.1735359308320552
aF0.06704846913499328
aF-0.23204179174481968
aF-0.026529021545117826
aa(lp50
F0.07952990873243071
aF-0.8358648795929884
aF0.6900150506384637
aF0.9849635977111068
aF-0.037810545941240066
aF0.16704381053505382
aF-0.02265919595987122
aF-0.7535834850655783
aF0.10842341903604874
aF-0.5882274196985344
aF0.1130501158444323
aF0.7452049457177379
aF0.07976494615823337
aF0.8523545200978315
aF-1.918648372440324
aF0.5712702207784088
aF1.0296387110380145
aF0.09727393506873738
aF-1.5408057538734476
aF-1.4971994916545288
aF-0.14169211539101756
aF-1.525846212190888
aF0.11656236751987631
aF0.6500884003689493
aF-0.09480894766175077
aF0.06667670884464832
aF0.09317212631711339
aF-0.28784821840169494
aF0.31290965241890034
aF-0.3637143423987633
aF-0.02778172830110632
aF0.06627314872736365
aF0.09202850415484037
aF-0.17386385141598687
aF0.06704948932227384
aF-0.23167756071463752
aF-0.02608862866381747
aa(lp51
F0.07936395175662578
aF-0.835749133573889
aF0.6900463678637936
aF0.9849599210081071
aF-0.037781380731090976
aF0.1670544769382643
aF-0.022788659737664457
aF-0.7535776895374523
aF0.10825589355244367
aF-0.5882313927735819
aF0.11302816001396801
aF0.7447445733759445
aF0.07984067444279695
aF0.8525955902020836
aF-1.918432359343523
aF0.5711248352300697
aF1.0300630585781556
aF0.09727376820767564
aF-1.5409430314524544
aF-1.49750648231428
aF-0.14187479836657516
aF-1.525780114457011
aF0.11657494416420533
aF0.6501101921711682
aF-0.09480913601157621
aF0.0668584920194838
aF0.09288129877127788
aF-0.2882081991933811
aF0.3130751191864576
aF-0.3635416816016868
aF-0.02758199269000487
aF0.0664548242433641
aF0.09173837631370475
aF-0.17419177199991853
aF0.06705050950955438
aF-0.23131332968445534
aF-0.025648235782517112
aa(lp52
F0.07893527177658703
aF-0.8355027167338626
aF0.6901125602254166
aF0.9849783682459481
aF-0.03786055328870632
aF0.16689516402344562
aF-0.023026003079339066
aF-0.7543698544454427
aF0.10799874015641947
aF-0.5882322268901286
aF0.11302926568307166
aF0.7437784977583516
aF0.07975116879010376
aF0.8536762193312001
aF-1.917625416507217
aF0.5708040724205524
aF1.031200262952132
aF0.09727341452941471
aF-1.5410712328063496
aF-1.4977466847136254
aF-0.1420856035862578
aF-1.5257250808767482
aF0.11658832796328936
aF0.6501503704741147
aF-0.09480926838721554
aF0.06719506688805012
aF0.0925700096519897
aF-0.2891166036050261
aF0.31417320713570673
aF-0.3634171222775258
aF-0.02715860869308951
aF0.06679077375292952
aF0.091424497827043
aF-0.1747523249586464
aF0.0672549946637301
aF-0.23059939727121623
aF-0.02504481042098775
aa(lp53
F0.07752633694976692
aF-0.834763331707932
aF0.690294852350927
aF0.9850975516354575
aF-0.038338107803947336
aF0.16599127525950372
aF-0.023662201705750736
aF-0.7584575757086975
aF0.10727187223587978
aF-0.5882241591018176
aF0.11311049204676157
aF0.7411077334753521
aF0.07919075409576187
aF0.8579524533063656
aF-1.9140458334853303
aF0.5699724258033025
aF1.0348100742172817
aF0.09727249543929178
aF-1.5411240164708833
aF-1.497654003197181
aF-0.1423256127285302
aF-1.5257400060033535
aF0.11659999607546685
aF0.6502432176866346
aF-0.09480914810412158
aF0.06809333204731315
aF0.0921752747520279
aF-0.2917985992897284
aF0.3186491995246315
aF-0.36342237620912116
aF-0.025893782272893184
aF0.06768618900472179
aF0.09101586089841586
aF-0.17597918075755714
aF0.06825550142848648
aF-0.22871719407324892
aF-0.024293685211463318
aa(lp54
F0.07617391120332685
aF-0.8340616973226297
aF0.6904705133781174
aF0.9852105962899562
aF-0.038824976739514426
aF0.16511772619423234
aF-0.024265997519402994
aF-0.762430718524877
aF0.10660954037186249
aF-0.5882141798699855
aF0.1131980063912292
aF0.7385316994442042
aF0.07853798369970856
aF0.8621277133048474
aF-1.9107319432729404
aF0.5691349089045624
aF1.038368016554845
aF0.09727154608028983
aF-1.5411521419425442
aF-1.4974932763307223
aF-0.14254367489381678
aF-1.525773827920486
aF0.11660984292384577
aF0.6503372827417773
aF-0.09480898092027513
aF0.06895258202491862
aF0.09186758070420958
aF-0.2944534123422987
aF0.32312643339787805
aF-0.36351796615063564
aF-0.02469352066655201
aF0.06854229815277624
aF0.09069306429699481
aF-0.17719045152241727
aF0.06931218930741202
aF-0.22689409614102315
aF-0.023310273185150113
aa(lp55
F0.07409942474056784
aF-0.8329773052916482
aF0.6907379815441166
aF0.9853798411539607
aF-0.039511140627444784
aF0.16379887750535724
aF-0.025206470234804244
aF-0.7683797081254988
aF0.10546643033562798
aF-0.5882042452599355
aF0.11330515617389444
aF0.7346175124739375
aF0.07781911228905175
aF0.8683744515186264
aF-1.9054042236953508
aF0.567912579012462
aF1.043660045535368
aF0.09727020169175335
aF-1.5412739603555285
aF-1.497467334305218
aF-0.14293930651726208
aF-1.5257802159414302
aF0.11663031923728077
aF0.6504734259932254
aF-0.09480887543725178
aF0.07028293688171468
aF0.09125869694868347
aF-0.29835529451124726
aF0.3295701768742124
aF-0.3634517893960177
aF-0.022838664973593464
aF0.06986893956766364
aF0.09006345883046464
aF-0.17901079646983903
aF0.07077645042340917
aF-0.22394434577339753
aF-0.021492006995524456
aa(lp56
F0.07024743437713456
aF-0.8309400411321791
aF0.6912259114478521
aF0.9856955688121485
aF-0.04069073924680484
aF0.16131147372458254
aF-0.026965122073648755
aF-0.7794176465276208
aF0.10308969090717254
aF-0.5881954414558858
aF0.11345997025402034
aF0.7274867044699647
aF0.07697275156276068
aF0.8797604151389538
aF-1.894791622127033
aF0.5657834494425148
aF1.053116920914839
aF0.09726800589220118
aF-1.5415958780485133
aF-1.4977320865577404
aF-0.14371511192427142
aF-1.525730611999265
aF0.11667358952443387
aF0.6506991138510206
aF-0.09480890358880746
aF0.07274379971205075
aF0.08990787924089771
aF-0.30518635384774623
aF0.34086160618914796
aF-0.36298939898769994
aF-0.019354966443055715
aF0.0723249896324812
aF0.08867919695777003
aF-0.18215126660773232
aF0.073171391812458
aF-0.21829690863286066
aF-0.018057409666947067
aa(lp57
F0.06634520283997669
aF-0.8276088640475714
aF0.6914054480413482
aF0.9862855099066214
aF-0.04212434043087344
aF0.1552714923953699
aF-0.03684014849066468
aF-0.7609459340224836
aF0.11473520927753598
aF-0.5613406247424082
aF0.08563742874947868
aF0.693879154818665
aF0.09075773321798197
aF0.8761576241975506
aF-1.8701075714723776
aF0.5586600327916835
aF1.0651725391963118
aF0.09697328876520765
aF-1.4527325877654835
aF-1.429015452116095
aF-0.13801467352501373
aF-1.47830840041571
aF0.11104709347924535
aF0.6193948110926416
aF-0.08534278864954845
aF0.08514777336314999
aF0.09941321541650196
aF-0.3870497757657778
aF0.4498357040612293
aF-0.3770845272405056
aF-0.030887925418519077
aF0.09021776002673541
aF0.08372449868206147
aF-0.1831013794360863
aF0.08113157377071549
aF-0.21373313358366697
aF-0.012223187413329074
aa(lp58
F0.06241368707379098
aF-0.8239607551856262
aF0.6916461978547747
aF0.9867234680613649
aF-0.04363821437227967
aF0.14921046535673343
aF-0.046997243018910125
aF-0.7425058160276329
aF0.12780010923867066
aF-0.5344768294255526
aF0.057831029620827694
aF0.6593704216180014
aF0.10368586718790203
aF0.8738995299762427
aF-1.847301758010223
aF0.5513950776215142
aF1.0785104930208342
aF0.0966780853529809
aF-1.3626628113420811
aF-1.358855518983983
aF-0.13183984612992428
aF-1.4305605542492354
aF0.10538488806785476
aF0.5881325645262944
aF-0.07587374473113216
aF0.09764122337732864
aF0.10819277353994931
aF-0.46739659111285814
aF0.5582718142399272
aF-0.3911552383456215
aF-0.042419338877731944
aF0.10831661686128971
aF0.0781029394224783
aF-0.1847043521862903
aF0.09010610123159632
aF-0.20955457365089347
aF-0.005846260307381146
aa(lp59
F0.05837753796278193
aF-0.8199730433504419
aF0.6919586209682218
aF0.9870471621406832
aF-0.044487941145051065
aF0.14320725354471708
aF-0.05701232616616629
aF-0.724490012901344
aF0.14015164588850537
aF-0.5076325265479303
aF0.029966696742359796
aF0.624627730806328
aF0.11730810156205324
aF0.8707593637443127
aF-1.8227857466068416
aF0.5446814428940383
aF1.090820982583751
aF0.096383370770195
aF-1.2722463897697516
aF-1.28852430045949
aF-0.1254747627404971
aF-1.3825517405797456
aF0.09971842018612481
aF0.556835285594076
aF-0.06640611271487126
aF0.11038205644054319
aF0.11778546906610811
aF-0.5473215451579097
aF0.6668943089937519
aF-0.4052806445555048
aF-0.05393115254154044
aF0.12580320084122676
aF0.07070145566470055
aF-0.18620950380764312
aF0.09841370404979012
aF-0.2048703665991545
aF0.0011124560991737592
aa(lp60
F0.05426888668922535
aF-0.8160450559298347
aF0.6922658520231794
aF0.9872946931163255
aF-0.04456818593133931
aF0.13725133444801685
aF-0.06652019948383248
aF-0.7068735696814881
aF0.1499180909696331
aF-0.48080750518496457
aF0.002009276410277365
aF0.5908093101494168
aF0.13270868980148712
aF0.8650242967544595
aF-1.7940962879356106
aF0.5386088557797073
aF1.1004725919959117
aF0.09608963350215402
aF-1.1830277849269044
aF-1.219885390008394
aF-0.11953917237830915
aF-1.334707563089298
aF0.09409109020984874
aF0.5254340060943367
aF-0.05693955817600936
aF0.12327574878677695
aF0.1291331822618651
aF-0.6287843434233349
aF0.7764461953449376
aF-0.419497707810279
aF-0.06542978200647004
aF0.142426247524457
aF0.062379993162527764
aF-0.1867417501094673
aF0.10471125809620153
aF-0.19915516715694012
aF0.007976327598044227
aa(lp61
F0.05016296714442659
aF-0.812247102612151
aF0.6925473817130913
aF0.9874430562026151
aF-0.04453100589112656
aF0.1312252895931214
aF-0.07584934833447608
aF-0.6894075589157094
aF0.15859428388317542
aF-0.4539840734066305
aF-0.025972709177550485
aF0.5575192265208201
aF0.14869933201194185
aF0.8584950653099724
aF-1.7638955770601732
aF0.5325716349105606
aF1.1093566884623838
aF0.0957961849885483
aF-1.0946361477001303
aF-1.1522544551461507
aF-0.11393385400406507
aF-1.2870830917518081
aF0.08848769585176584
aF0.4939934894536579
aF-0.04747308538562178
aF0.13618416066677533
aF0.14111760008462162
aF-0.7112606584695349
aF0.8864143450260135
aF-0.43373713384324103
aF-0.07692604741948623
aF0.1588848512196795
aF0.05423685759117075
aF-0.18674193320834964
aF0.11030491830150096
aF-0.193131060935533
aF0.014634865241673603
aa(lp62
F0.04606911506165239
aF-0.808651153489641
aF0.6927866832088913
aF0.9874821629127282
aF-0.04454688626829664
aF0.1251540603723621
aF-0.08503536926074283
aF-0.671924769926226
aF0.16658549547990298
aF-0.4271599851912572
aF-0.053959104848494976
aF0.5247129280748601
aF0.1650586786211805
aF0.8514155897010537
aF-1.7328345092591408
aF0.5264683953024408
aF1.1177150371935363
aF0.0955029022441702
aF-1.0069402225019555
aF-1.0854483851353711
aF-0.10860711873909557
aF-1.2397065155106834
aF0.0829012542067954
aF0.4625306867071047
aF-0.0380071191301875
aF0.1490399824102978
aF0.15342827794747158
aF-0.7946414250824523
aF0.9966753680395978
aF-0.4479824602674974
aF-0.08842416739268703
aF0.17532527212643792
aF0.04670971248288301
aF-0.18640862886948123
aF0.11546058836875281
aF-0.18694525378676172
aF0.020971127517713767
aa(lp63
F0.041992685219443854
aF-0.8052905694754482
aF0.6929766522604264
aF0.9874028767913091
aF-0.04470057949568563
aF0.11909147110416493
aF-0.09409908930081325
aF-0.6542637915163062
aF0.17428484688350943
aF-0.40033803504575793
aF-0.08193293089875177
aF0.4923083813207179
aF0.18162522955333915
aF0.8439101668350366
aF-1.701474936059974
aF0.520304369692331
aF1.1256593238618793
aF0.09520973912865509
aF-0.9197041290636123
aF-1.019185564202823
aF-0.10345845173991601
aF-1.192543321923826
aF0.07732376666928935
aF0.43106374788289453
aF-0.028543105952580902
aF0.161789797094962
aF0.1657981448592227
aF-0.8786820198982381
aF1.107089287277822
aF-0.4622224647748557
aF-0.09992630176322952
aF0.19181257748605068
aF0.04000480665051076
aF-0.18596288909202588
aF0.1203817385431117
aF-0.18070720488223785
aF0.026931870576592305
aa(lp64
F0.037939801389602325
aF-0.8021784795011037
aF0.6931156647343528
aF0.9871985657376764
aF-0.04502163636237972
aF0.1131000545731155
aF-0.10305543032895695
aF-0.6362638003464318
aF0.1820391297672772
aF-0.37351075652408366
aF-0.10989370254648761
aF0.46020764712124207
aF0.1982899658117234
aF0.8360173738157762
aF-1.6702833205663439
aF0.5141479946723481
aF1.1332341277923823
aF0.09491655483070734
aF-0.8326291765283849
aF-0.9531281729132889
aF-0.09837477605502276
aF-1.145499119420039
aF0.07174589305902095
aF0.39959501856130325
aF-0.019078408564076194
aF0.17439496713243174
aF0.17801180108328266
aF-0.9631166497634623
aF1.2175674175087823
aF-0.4764566779405651
aF-0.1114391528001429
aF0.20836977447569616
aF0.034184624668312145
aF-0.1856114962081572
aF0.1252266492210112
aF-0.17450452578276335
aF0.032496978475645484
aa(lp65
F0.03394333972083055
aF-0.7995949342958852
aF0.6931524138259533
aF0.9868658231015535
aF-0.04555430086091117
aF0.10740115475502438
aF-0.11173918213614245
aF-0.6173646419992517
aF0.1899784353103879
aF-0.3466760422340549
aF-0.137834372302233
aF0.42874521978154834
aF0.21528632948508233
aF0.8269030282086899
aF-1.6395281715767398
aF0.5083037459576861
aF1.1396813856897485
aF0.09462339832318112
aF-0.7456682954082469
aF-0.8872125513628032
aF-0.09332121574781692
aF-1.0985363048743713
aF0.06616489305097234
aF0.36812060816352965
aF-0.009612054971573117
aF0.1866649454876678
aF0.1898631306931903
aF-1.048001909886645
aF1.3280994827344166
aF-0.49069245214390467
aF-0.12297886674866265
aF0.22491826422415226
aF0.02997742120092126
aF-0.18564548190971045
aF0.12985705894475488
aF-0.1683773832698272
aF0.03711397261359232
aa(lp66
F0.0299862238074707
aF-0.7970892482263667
aF0.6931758542254947
aF0.9863984473689016
aF-0.04621435461934336
aF0.10183978780923156
aF-0.12046158754685565
aF-0.5980201062284353
aF0.19879872908687715
aF-0.31984257279798217
aF-0.16574498993589268
aF0.39711577342286175
aF0.23192416588387452
aF0.8179920724246574
aF-1.6101924543925383
aF0.5025958983826262
aF1.1464148415403577
aF0.09433007095249106
aF-0.6581695914138064
aF-0.8205522291497004
aF-0.08804295364585718
aF-1.0513912947209008
aF0.06057000816016295
aF0.336680658810715
aF-0.0001466066306523763
aF0.19879613737719015
aF0.20107699212099783
aF-1.1321342123104567
aF1.4382636490944394
aF-0.5049108672917227
aF-0.13452959504341236
aF0.2415829864832786
aF0.0260944092571777
aF-0.18621321443107713
aF0.1350036859980056
aF-0.162573853607644
aF0.041509916764989004
aa(lp67
F0.0260466349474425
aF-0.7944319555670325
aF0.6932300937886688
aF0.9857966793389591
aF-0.04692970204082167
aF0.09625333634649233
aF-0.1293746702906337
aF-0.5786077996621274
aF0.20826260614672126
aF-0.29294683479258854
aF-0.1937198785448299
aF0.36509088389745076
aF0.2480237348183638
aF0.8098851228557595
aF-1.5820556351574486
aF0.4967555590490077
aF1.1540422694465018
aF0.09403614120804449
aF-0.5699856779006134
aF-0.7529937593881287
aF-0.0825495657131733
aF-1.003986530007496
aF0.054960787859762134
aF0.3052492881582081
aF0.00932500481685512
aF0.21084115101082318
aF0.21170575399526162
aF-1.2154628888167163
aF1.5480893758752425
aF-0.5191238715128943
aF-0.14609512424800122
aF0.25844337325896505
aF0.02186770778663672
aF-0.18714352522295827
aF0.14085288611214147
aF-0.1571133162756505
aF0.04591731083964909
aa(lp68
F0.022276677735521982
aF-0.7926687965562468
aF0.6931108031999589
aF0.9850369468642202
aF-0.048070806124541496
aF0.09123250883201278
aF-0.13808707485919453
aF-0.5571639051893937
aF0.21824863440132292
aF-0.26580673767220975
aF-0.22198091810848974
aF0.3341470771507427
aF0.264208949499264
aF0.8002328264332796
aF-1.5561735099268479
aF0.4912311493542121
aF1.1606989046059877
aF0.0937414560549871
aF-0.481523381708239
aF-0.6838187983968369
aF-0.07709489980595775
aF-0.9565916774051635
aF0.04936387961558608
aF0.27386928834970853
aF0.018781119588394873
aF0.22164603089892482
aF0.22030614986370117
aF-1.2980885527920456
aF1.6569551803828557
aF-0.5333538050703384
aF-0.15775224494922233
aF0.2756398395986907
aF0.020305731176084252
aF-0.18946158333000468
aF0.14760151212172426
aF-0.1524443705539456
aF0.04939252931010993
aa(lp69
F0.01859274115794173
aF-0.7911368471023588
aF0.6929599361498286
aF0.9841564151219777
aF-0.049172557227742615
aF0.08669225491539563
aF-0.14663786389478634
aF-0.5353132114771523
aF0.22771665850724182
aF-0.23958709790024318
aF-0.24928033607066602
aF0.304258486908363
aF0.2799158024181079
aF0.7902932303183665
aF-1.5320107710496598
aF0.4859713671396656
aF1.1671101258477
aF0.0934577893483366
aF-0.39661698404916923
aF-0.6155313692116073
aF-0.07185178464690367
aF-0.9110869047830634
aF0.043997861859786325
aF0.24370670138811446
aF0.02786000619857585
aF0.23096322567247865
aF0.226591147172092
aF-1.3751761698589071
aF1.7580210344894058
aF-0.5446159431306431
aF-0.16797766921949311
aF0.2926254708096429
aF0.019066021002109905
aF-0.19272571273601302
aF0.1546432193529849
aF-0.14811171481258578
aF0.052512182306424654
aa(lp70
F0.014969030158919913
aF-0.7898744969629615
aF0.6927725693717933
aF0.9831746455935177
aF-0.05013666453283199
aF0.08292524544586605
aF-0.1548461649487179
aF-0.5132632017458595
aF0.23553695763861376
aF-0.214908069895419
aF-0.27497487833523143
aF0.27605136665003094
aF0.29492349112433186
aF0.7800429943439008
aF-1.5101789417155416
aF0.4807736153842188
aF1.1734991210559624
aF0.09319256484710635
aF-0.31772830270889907
aF-0.5492195626125114
aF-0.06709077754436071
aF-0.8688796961687558
aF0.03899834206763526
aF0.21556074041723272
aF0.0363250761266391
aF0.2381506070980574
aF0.2296167770426334
aF-1.443511047140845
aF1.8467519532404235
aF-0.5512645896680881
aF-0.17595795081046742
aF0.3090097699721125
aF0.017971389332342224
aF-0.19758483294186088
aF0.16219225326527587
aF-0.14421301731085767
aF0.055205777058981435
aa(lp71
F0.011322154520055479
aF-0.7888161754648442
aF0.6925405134159378
aF0.9820517490153282
aF-0.0510404640625797
aF0.0797663794070578
aF-0.1631151679044609
aF-0.4897904852754723
aF0.24364383732679312
aF-0.19036505782426
aF-0.300518044637566
aF0.24792465468350505
aF0.3097336732300785
aF0.7693116169243968
aF-1.4907761968081081
aF0.4759626751139908
aF1.1801852268842767
aF0.09293010507340119
aF-0.24018814490471654
aF-0.4808889835063494
aF-0.06269553970043164
aF-0.8276135468748933
aF0.03405071060941494
aF0.1877908639347386
aF0.044687427498810404
aF0.24488679717586492
aF0.2310581183520139
aF-1.508494443576484
aF1.9331030583388888
aF-0.5579716128848345
aF-0.18397228092750165
aF0.32558515747259853
aF0.01696752628140586
aF-0.20420475591299944
aF0.17072371824301702
aF-0.1407506923778169
aF0.05760016281735708
aa(lp72
F0.00778655421898933
aF-0.7877867182502426
aF0.6923205341558907
aF0.9808791019151457
aF-0.051936442270478
aF0.0765159298761871
aF-0.17124282719461476
aF-0.4669887076238634
aF0.249986027433122
aF-0.16619886618681565
aF-0.3256781141367375
aF0.22085105043308653
aF0.3243159375013557
aF0.7585261262562136
aF-1.4703746503988926
aF0.4706029379588436
aF1.186548385237416
aF0.09267190359646385
aF-0.1638873253414984
aF-0.41593782441326405
aF-0.05838810794285693
aF-0.7871542785784781
aF0.029194995074160856
aF0.16053815822562878
aF0.05289421588797164
aF0.25058558509144546
aF0.23187351241784016
aF-1.570781689712394
aF2.0132716645575406
aF-0.5615831215415379
aF-0.19046479412990722
aF0.3419149090932127
aF0.01607184906556777
aF-0.2101850831800852
aF0.17874809838025277
aF-0.1372466198607803
aF0.05993876217591932
aa(lp73
F0.0063133310866772974
aF-0.7872920334786931
aF0.692324673269537
aF0.980180701220893
aF-0.052761365250028114
aF0.0716712304775383
aF-0.17698945169955005
aF-0.4566194925964667
aF0.22353372385011244
aF-0.1489951518043699
aF-0.3437607818182413
aF0.21330701427493634
aF0.33468692352999946
aF0.7467156380855074
aF-1.4313693304237343
aF0.45503157809865313
aF1.1869191576217109
aF0.09249240855822236
aF-0.1104912579072243
aF-0.4136956881038833
aF-0.0557053968315544
aF-0.7616235926143358
aF0.026039434943796354
aF0.14285160526877752
aF0.05822355862886333
aF0.23700906014280557
aF0.22105394895184222
aF-1.5830572373152876
aF1.9786486950678088
aF-0.5076552039512228
aF-0.16867809605680734
aF0.35370708608403556
aF0.017185772641450717
aF-0.204285839807956
aF0.17735989899706084
aF-0.13296027500360108
aF0.06124441510418392
aa(lp74
F0.004848432654198421
aF-0.7868042232118932
aF0.6923282267325621
aF0.9794250974857084
aF-0.053587236763249835
aF0.06683969145534224
aF-0.18272203511712728
aF-0.4462138596449783
aF0.1971725987099678
aF-0.13180427758987892
aF-0.36182598795248455
aF0.20575513213851054
aF0.3450233975315857
aF0.734919516446687
aF-1.3924547498296804
aF0.4395098869644646
aF1.1872535300410378
aF0.09231301102667427
aF-0.0571094465819036
aF-0.4114252337677241
aF-0.05301741874854463
aF-0.7360958525448142
aF0.022885711653823748
aF0.12517342062831446
aF0.06354999552262904
aF0.22342074068163986
aF0.21021204446791203
aF-1.5953355769328887
aF1.9439909697761677
aF-0.4537583935806025
aF-0.1469036944425448
aF0.36549293780740116
aF0.018321264673288838
aF-0.19841013123035048
aF0.17597406489551146
aF-0.1286910320718493
aF0.06253747623758527
aa(lp75
F0.0036345324957144406
aF-0.786471814574956
aF0.6923236780424143
aF0.9785877571428216
aF-0.054457888450865605
aF0.06241597744724667
aF-0.1884266056451681
aF-0.4346943064762794
aF0.1725665390939209
aF-0.11469750236213641
aF-0.3797075277926508
aF0.19806109820530676
aF0.3544695886629882
aF0.7232365814839912
aF-1.3555782552016873
aF0.42495042171807257
aF1.1867700051405974
aF0.09213368377350825
aF-0.003476734791032249
aF-0.40803853019871256
aF-0.050231293506320135
aF-0.7104223610869339
aF0.01973722116387179
aF0.10749951536748809
aF0.06886987187818341
aF0.20941668026526125
aF0.19851546211355878
aF-1.607302051320954
aF1.9078231114517301
aF-0.39988231485222026
aF-0.125128545915879
aF0.3772629201879309
aF0.01983294211916827
aF-0.19298008773369502
aF0.174587788904271
aF-0.12487370035310223
aF0.06353366572276475
aa(lp76
F0.0025224507249672493
aF-0.7861662315322092
aF0.6923328116484261
aF0.9776795886191848
aF-0.055288752329852586
aF0.058228556089828666
aF-0.1941525460016518
aF-0.42273964859430224
aF0.14950749609676728
aF-0.09769072966578485
aF-0.3973917762107497
aF0.19030083745657442
aF0.36347989644100104
aF0.7117753268246814
aF-1.3200209478900162
aF0.4114111168739465
aF1.1857074983033304
aF0.09195492994134224
aF0.05032371767385134
aF-0.4035268582912766
aF-0.04758015483186209
aF-0.6848982311434965
aF0.01660374397608931
aF0.08990078176954565
aF0.0741662340054613
aF0.19513794378630928
aF0.18615550725612395
aF-1.6190980758820814
aF1.8703165497291205
aF-0.34604852262644326
aF-0.10335551523687257
aF0.3890819347055537
aF0.021295826493681422
aF-0.1875565178055225
aF0.1725824765512784
aF-0.12088223705630788
aF0.06469594112430418
aa(lp77
F0.001576603126921366
aF-0.785944654545471
aF0.6923329284530159
aF0.9767173809200488
aF-0.05611476198479059
aF0.05421994429592844
aF-0.1998361552287705
aF-0.4102210459363063
aF0.12657547033696026
aF-0.08067909213184321
aF-0.4150762928927681
aF0.18261910250372088
aF0.37200483685318614
aF0.7001627240799988
aF-1.2853515876747337
aF0.39785711715691807
aF1.1845155896976032
aF0.09177599581492303
aF0.10408674673274525
aF-0.3986200791274485
aF-0.044838846495500725
aF-0.6592944488231036
aF0.013466991926804592
aF0.07229953272511565
aF0.07946510402104667
aF0.18079259542270487
aF0.17348338218405443
aF-1.6303190720088743
aF1.832452287008017
aF-0.29219952125494786
aF-0.08157801745315885
aF0.40084127689393273
aF0.02288896961419778
aF-0.1824004912507747
aF0.17094242191823303
aF-0.11738895734034685
aF0.06548579741636944
aa(lp78
F0.0007415147053735352
aF-0.7857781034294244
aF0.6923268194500367
aF0.9757062208151482
aF-0.056938441745087734
aF0.05032158006314063
aF-0.20548265886495468
aF-0.3973636213921201
aF0.10365452756064575
aF-0.06367500227219192
aF-0.4327541208131978
aF0.17501836645193622
aF0.38019538055149316
aF0.6884675312897649
aF-1.2512716387218554
aF0.38423277763818403
aF1.1832962192154257
aF0.091597040930006
aF0.15775684699079676
aF-0.3934330829048192
aF-0.04203929601241678
aF-0.633665056846096
aF0.010330310783145382
aF0.05470660282341664
aF0.08476239753864787
aF0.1664450095650334
aF0.16061913614090542
aF-1.6410454466542885
aF1.7944097956373009
aF-0.23837318225659376
aF-0.059810452078950985
aF0.4125489400239091
aF0.02456808369998759
aF-0.17742109744672235
aF0.16957897704762914
aF-0.11422895978469425
aF0.06618816541824267
aa(lp79
F0.00013181506313464776
aF-0.7857020922619025
aF0.6923130716007488
aF0.9746512801051896
aF-0.05773608040010757
aF0.04662290235037043
aF-0.21106333690571438
aF-0.38388975077210735
aF0.08056734171900223
aF-0.04668279614959137
aF-0.4504283062735213
aF0.16762238007998054
aF0.38771914776701866
aF0.6765801524129219
aF-1.218186597321914
aF0.3704033869113094
aF1.18201911521906
aF0.09141802800991647
aF0.21117775171097058
aF-0.3877559895890694
aF-0.03914584058997236
aF-0.6080288250453109
aF0.007194079021794078
aF0.037122945295457586
aF0.09005752219071188
aF0.15213363614056713
aF0.14744816211432368
aF-1.650784917004044
aF1.7561372910002488
aF-0.18458185321312373
aF-0.03805807396592396
aF0.42414221164506277
aF0.02633630333196592
aF-0.17268354882245882
aF0.16867851059013883
aF-0.11175961760425324
aF0.06650176866939471
aa(lp80
F-0.0003989005337468499
aF-0.7856377801077455
aF0.6923035739772136
aF0.9735396298643018
aF-0.058495733154425994
aF0.043030331776126675
aF-0.21667309208492186
aF-0.3702338473363447
aF0.05796424190090432
aF-0.029714782118395268
aF-0.46804012961306757
aF0.16042323098875447
aF0.3949340439145913
aF0.6648841881419395
aF-1.1858494430688924
aF0.35695512284961434
aF1.1806276251263281
aF0.09123907360099968
aF0.2648115869637844
aF-0.3810852077428666
aF-0.03631825469014667
aF-0.5824007313658431
aF0.004060779718639229
aF0.019547650794436912
aF0.09534895103113243
aF0.13793418675425312
aF0.13384344672991494
aF-1.659664357760788
aF1.7170776990202554
aF-0.1307714304056415
aF-0.016281124061601586
aF0.43580329256403205
aF0.02802207424588578
aF-0.16799938860249422
aF0.1677197121029376
aF-0.1093204809416119
aF0.06706402909005049
aa(lp81
F-0.0005892494087864357
aF-0.7857440507133885
aF0.6922833401947345
aF0.9720064031350157
aF-0.05940521639600104
aF0.03891519134381885
aF-0.2239646856362579
aF-0.35109451454672486
aF0.02965946746748756
aF-0.007714215802184208
aF-0.4907949184422097
aF0.15175659294247743
aF0.402664674382908
aF0.6498684616918741
aF-1.1471443955774718
aF0.3401082426068603
aF1.1784948633109154
aF0.09100630066531283
aF0.33480990374967234
aF-0.3693175995407785
aF-0.03262713707650589
aF-0.5490073877227487
aF-8.993055913662445e-06
aF-0.0032779282848214865
aF0.10222088243554155
aF0.11972860993718146
aF0.11460495121202871
aF-1.6677938899287335
aF1.6639632461451563
aF-0.06077607713599653
aF0.012082530919641666
aF0.45097432916536223
aF0.030293603825502554
aF-0.16252132227262903
aF0.1671515037752462
aF-0.10711734273679667
aF0.068276936865199
aa(lp82
F-0.0014903874911565693
aF-0.7855702589001679
aF0.6923204134753509
aF0.9719568038535882
aF-0.059614611531247905
aF0.03839012999697008
aF-0.2242147797392303
aF-0.3533061677018395
aF0.030866306542082472
aF-0.007676509551160476
aF-0.49075092457751524
aF0.15093024548550138
aF0.40521612937273954
aF0.6508784344140156
aF-1.142607086756786
aF0.34204013863381566
aF1.1772373792944457
aF0.09100707885054901
aF0.33645116814535303
aF-0.37212644117550103
aF-0.03313431748902008
aF-0.5489010435781578
aF-6.3604333267473474e-06
aF-0.0032704690893721996
aF0.1022204191413397
aF0.12022189175800538
aF0.11537214974807798
aF-1.6667518201547664
aF1.6610621535338603
aF-0.057859462303052875
aF0.011602268742481431
aF0.4515018566968536
aF0.03059786961797946
aF-0.16205487123562012
aF0.16492235543253184
aF-0.10454358346435655
aF0.0684557750710487
aa(lp83
F-0.0025811927694701204
aF-0.7853353329104514
aF0.692370600463703
aF0.9718954074827246
aF-0.05986862233432847
aF0.03773756520788796
aF-0.22452380975290484
aF-0.3560305231458926
aF0.032366748971336824
aF-0.007631540996998707
aF-0.490694606789291
aF0.14988083332927365
aF0.408238080813628
aF0.652176269653575
aF-1.1370829239564093
aF0.34430709084097877
aF1.1756994409338235
aF0.09100805417762604
aF0.3385659709036316
aF-0.3756641248551427
aF-0.0337739156806426
aF-0.5487704414976815
aF-3.0682362574916232e-06
aF-0.0032616219087988896
aF0.102219863787073
aF0.12082617620807126
aF0.11621805832992557
aF-1.665454902290907
aF1.6575243758666705
aF-0.0543045575605747
aF0.011100374264685601
aF0.4521503527134551
aF0.03093314090419215
aF-0.16133149884896436
aF0.1619586888257564
aF-0.10123197966231752
aF0.06879450052229112
aa(lp84
F-0.003768741131049741
aF-0.7850799515048759
aF0.6924249017352968
aF0.9718283583462691
aF-0.060147793191378564
aF0.037025585189161624
aF-0.22485771263090573
aF-0.358997037268681
aF0.033998234602874454
aF-0.007582485645271182
aF-0.4906328862581524
aF0.14872948209228762
aF0.4115291797383742
aF0.6535835176330503
aF-1.131061738499917
aF0.34676326063407975
aF1.17402928547885
aF0.09100912901865076
aF0.3409104869928923
aF-0.37957511031595215
aF-0.03448127672655057
aF-0.548622246549002
aF5.955661310091919e-07
aF-0.0032514066999204867
aF0.10221924851859218
aF0.12147916365990688
aF0.11714548651643233
aF-1.6640392368885184
aF1.653672567347827
aF-0.050433912890426154
aF0.010552660306265654
aF0.45285220057607684
aF0.031305398776621814
aF-0.16052919310066532
aF0.15869714037343627
aF-0.09753980643963463
aF0.06925471700121362
aa(lp85
F-0.00434655240058516
aF-0.7850066903590148
aF0.6924406161778925
aF0.9717969995699114
aF-0.06028074930587786
aF0.03671408996190373
aF-0.22500866314057527
aF-0.3603449087994155
aF0.03471245418300808
aF-0.007557294034066847
aF-0.49060957940005023
aF0.14827877859530117
aF0.4132682568661685
aF0.6541187350544638
aF-1.1282000492242883
aF0.34811642125814907
aF1.1732450704124542
aF0.0910095717073522
aF0.34175027378190403
aF-0.3811415858037597
aF-0.03476277227499746
aF-0.5485592285310752
aF2.090886189013288e-06
aF-0.003246566928161236
aF0.10221894739308807
aF0.12178568411642113
aF0.11776498539116456
aF-1.6634243165901879
aF1.651853406132066
aF-0.048601984275413276
aF0.010121188535882708
aF0.45317643200204105
aF0.03155143372149927
aF-0.1604810822442055
aF0.1576938590572129
aF-0.09620601436372968
aF0.06917274246488728
aa(lp86
F-0.005095257550541626
aF-0.7848750303704868
aF0.692468719669387
aF0.9717546512489129
aF-0.06045203581688682
aF0.03628955384936604
aF-0.22521438103085528
aF-0.36215356012326244
aF0.03569408835667482
aF-0.007525671252317751
aF-0.4905749336070563
aF0.14762456429792234
aF0.4154228489428647
aF0.6549186814062056
aF-1.124456251676268
aF0.3497684039037722
aF1.1722069998555873
aF0.09101019186587196
aF0.34301680441716914
aF-0.38336279807647006
aF-0.03516321796448348
aF-0.5484756295041922
aF4.170985250381476e-06
aF-0.003240629677556962
aF0.1022185658011806
aF0.12219519296623985
aF0.1184412143967875
aF-1.6625831736382588
aF1.6494567602000685
aF-0.046191974609731276
aF0.009681050699463577
aF0.4536121528223631
aF0.03181504006816196
aF-0.1601889026228411
aF0.15600497609212766
aF-0.0942476388995888
aF0.06917119095053975
aa(lp87
F-0.005596860619800607
aF-0.7848151596975725
aF0.6924910314273428
aF0.9717213342432013
aF-0.060609994065444164
aF0.03607494831254266
aF-0.22535011715161513
aF-0.36311085600884785
aF0.03609199736702409
aF-0.007507669941204904
aF-0.4905609337190273
aF0.14710779124264084
aF0.4167306308205604
aF0.6554348712491131
aF-1.1223357746044642
aF0.35042380727740297
aF1.1718406225933111
aF0.09101061553933386
aF0.3439224731572629
aF-0.38492104795264137
aF-0.035445100670476716
aF-0.5483798699681199
aF5.861026284103021e-06
aF-0.003232051226928659
aF0.10221825702806242
aF0.12248342237324988
aF0.11909004077696068
aF-1.6621511992113298
aF1.6478803986944275
aF-0.04460612511100683
aF0.009291132097696754
aF0.4539068553685238
aF0.03209288422748523
aF-0.1600600131246782
aF0.15467336695429942
aF-0.09266478961004398
aF0.06935001105877837
aa(lp88
F-0.005683413307845655
aF-0.7848736141588329
aF0.6924980075125278
aF0.9717067637364822
aF-0.06071460843153462
aF0.03618288304028208
aF-0.22536747903517712
aF-0.362765231761809
aF0.035649711015738175
aF-0.00751013716494842
aF-0.49057808689935745
aF0.14691264523321507
aF0.41674650423389464
aF0.6554381277777197
aF-1.1227257640199098
aF0.3497533747144095
aF1.1723997762466873
aF0.09101067093920659
aF0.34406398472771604
aF-0.3851801439767412
aF-0.03549293679049849
aF-0.5482951258845923
aF6.5717602863503714e-06
aF-0.0032223124540953735
aF0.1022181088041966
aF0.12255862905549893
aF0.1196157780587927
aF-1.6623529320998538
aF1.6476801914789074
aF-0.04440269892079546
aF0.008995131836506338
aF0.45395969092961697
aF0.032343221947649624
aF-0.1602817230584525
aF0.15427420084552687
aF-0.09211141223248305
aF0.06952876942717023
aaa(lp89
(lp90
F-0.005946985750535268
aF-0.7849176930495559
aF0.6925131645181262
aF0.9716795262830487
aF-0.06088255980042723
aF0.03622931263862086
aF-0.22543213839253395
aF-0.36270729476560376
aF0.03529768533625311
aF-0.007506798789621885
aF-0.4905922206793281
aF0.14652472173225087
aF0.41720330724053806
aF0.6556151266821364
aF-1.1224416338268481
aF0.3492373107856747
aF1.1728907390896168
aF0.09101087411617428
aF0.3445236596643286
aF-0.3859881973084214
aF-0.035640176234252224
aF-0.5481698886742838
aF7.92009149574069e-06
aF-0.003208735379763251
aF0.10221784228667921
aF0.12273805858750617
aF0.12041112076791165
aF-1.6624293383733852
aF1.6469307142258942
aF-0.04364650059490571
aF0.008539070234563476
aF0.4541167246088604
aF0.03271148444119739
aF-0.1604818972466045
aF0.1533884640043189
aF-0.09097191517481673
aF0.06978515575175699
aa(lp91
F-0.001715159482346317
aF-0.7866793374101049
aF0.6915504669598281
aF0.9718329259748408
aF-0.061017266068867725
aF0.03495954504591119
aF-0.22493440697866476
aF-0.3959814343581797
aF0.01583808825540774
aF-0.008852340982035255
aF-0.4892784577466146
aF0.2132765187266793
aF0.40526854486510655
aF0.693214722394393
aF-1.1427637741046521
aF0.36682780818184224
aF1.1680543258923253
aF0.0910456586845803
aF0.39688356731206037
aF-0.4711330570164388
aF-0.060427681488842325
aF-0.4704211825730458
aF0.0007683699295099656
aF0.00678009845141591
aF0.10220345193950797
aF0.12160366314607145
aF0.12129546947807657
aF-1.6620067215365482
aF1.664166041986215
aF-0.058679496956786634
aF0.007678058283449257
aF0.4534394223797907
aF0.03644292191373034
aF-0.1718850024710186
aF0.1954883724445151
aF-0.1191908692905512
aF0.06699998872254342
aa(lp92
F0.004075945360147192
aF-0.7882993180397843
aF0.6905879066434683
aF0.972243261077806
aF-0.05995296775143065
aF0.03246135871423031
aF-0.22381899637210187
aF-0.4317177572108984
aF-0.001843857980716681
aF-0.010153976797387707
aF-0.4876471796552126
aF0.2817419540970873
aF0.39130426027531223
aF0.7270876570533482
aF-1.1566374407764377
aF0.39060415434856427
aF1.156204507301379
aF0.09108244546951791
aF0.4496606396933747
aF-0.5574933166074905
aF-0.08677158564209676
aF-0.3975532572717272
aF0.0014762356815891892
aF0.016174879100426767
aF0.10219318737633107
aF0.11881525183827585
aF0.1172129386743425
aF-1.6584962670474692
aF1.6852011556289614
aF-0.07829026358481911
aF0.009165701522257427
aF0.4513645684339032
aF0.03828103139321767
aF-0.1753868981888498
aF0.23327424833102114
aF-0.1480279625670533
aF0.06423748596418759
aa(lp93
F0.01205081839752693
aF-0.7885373736800559
aF0.6905344476771856
aF0.9729292593283835
aF-0.056588554787817304
aF0.03156792899276372
aF-0.22183294991695227
aF-0.46838892591900994
aF-0.009277757767262033
aF-0.011483527353092686
aF-0.48528522214421094
aF0.34910693218534034
aF0.36872983243631025
aF0.7552120400874094
aF-1.1746501545999597
aF0.42437899339326207
aF1.1330978435382095
aF0.09112307518883568
aF0.5144906748023927
aF-0.6613140086240333
aF-0.11584793474383233
aF-0.32366918029556574
aF0.0022096561585684604
aF0.025665048758759447
aF0.10218187339026483
aF0.11395668409043878
aF0.10181570437342588
aF-1.6545095665943101
aF1.7073512856465938
aF-0.10306283664505293
aF0.017784386893508957
aF0.44701791627814186
aF0.032893770715721256
aF-0.16108363967147468
aF0.23905085039702265
aF-0.16464658318670017
aF0.06369954724341487
aa(lp94
F0.020979368402486372
aF-0.7865563381779138
aF0.6915480986685675
aF0.9736648691251195
aF-0.05108880214433812
aF0.03395545126925236
aF-0.21957614682866136
aF-0.5061373343558841
aF-0.0014382144876720969
aF-0.012883258424838928
aF-0.482113178415934
aF0.4133624814987397
aF0.33767383760382597
aF0.7797413686744695
aF-1.2023920201917597
aF0.46968526401432453
aF1.0988331420706696
aF0.0911675792789336
aF0.5969710526332561
aF-0.790236299803061
aF-0.14720961372940417
aF-0.24369847597068733
aF0.0030395075446914247
aF0.03585670290251263
aF0.10216447389594993
aF0.10821643998026528
aF0.07469233839122125
aF-1.6534584158356542
aF1.7260002385432782
aF-0.12838380445593678
aF0.034656129061875124
aF0.44147102592902326
aF0.01838508322401637
aF-0.13062495047821104
aF0.2047168315225841
aF-0.16275907819142826
aF0.06701615096517909
aa(lp95
F0.03529326903321559
aF-0.7800781126009402
aF0.6920324109246447
aF0.9759844811871374
aF-0.039292320992344136
aF0.03410288549979737
aF-0.21153581066452223
aF-0.5920123057358454
aF0.031609263324007646
aF-0.014767636073011601
aF-0.4759363949913538
aF0.5095267254147435
aF0.29276166052559077
aF0.7947901453330286
aF-1.2111526745404166
aF0.5795391358538444
aF1.0113483856857846
aF0.09125264219295778
aF0.7832320705113577
aF-1.046195897455499
aF-0.19330666289403511
aF-0.12699321848092732
aF0.0042517567144008585
aF0.05047213650277174
aF0.10213247269342467
aF0.08864589091004534
aF0.014043488138351403
aF-1.6466687486485976
aF1.7523061365941603
aF-0.16364328482286447
aF0.07244112685156998
aF0.4231008892595591
aF-0.014024266049077838
aF-0.08229344240062504
aF0.16942900963932284
aF-0.17044144487564952
aF0.07661934544210211
aa(lp96
F0.04223003148980209
aF-0.7654031732322738
aF0.6927697670998401
aF0.9775680990239556
aF-0.02603007337478603
aF0.04315919384822497
aF-0.2045001981347794
aF-0.6956876173223479
aF0.10824770010238358
aF-0.01656095605223616
aF-0.4670655488304658
aF0.5937200840559538
aF0.24605601325012436
aF0.7933899086080606
aF-1.2318752944298865
aF0.7369808119750091
aF0.897158544561972
aF0.09135538622527567
aF1.0472
aF-1.4148798966955367
aF-0.24064205482063794
aF0.0349066
aF0.0061649840670211665
aF0.07005049593119123
aF0.10204720225883562
aF0.06835817868963028
aF-0.06426204075597144
aF-1.6612328830520113
aF1.748835142201156
aF-0.16655967288407003
aF0.1274572755902838
aF0.4044667725614586
aF-0.06673984745048525
aF0.003918889968595797
aF-0.0020078812805477885
aF-0.09729581551208306
aF0.10044119573186547
aa(lp97
F0.052453992554942985
aF-0.7681704703225741
aF0.7047616163466439
aF0.9785949125499454
aF-0.0316495776032055
aF0.04277538811196064
aF-0.19879780567394287
aF-0.6842659217020215
aF0.11485199092584923
aF-0.01583939925604973
aF-0.4685367882086267
aF0.5620321806933464
aF0.2322134492948468
aF0.772174086650406
aF-1.2145864589053803
aF0.6945769345199225
aF0.8728398806502629
aF0.09133697111013217
aF0.8739231433738255
aF-1.3683844151085314
aF-0.2598804656427873
aF-0.013251390138569501
aF0.005548893909565828
aF0.10873246110549527
aF0.10205544424389137
aF0.057621946762300036
aF-0.05057620769580504
aF-1.6141391380853802
aF1.7368539080450573
aF-0.19890676725151954
aF0.1252253918452971
aF0.37862206030693535
aF-0.06419190040512782
aF-0.04660474238178288
aF0.07577558902902125
aF-0.11535140505438281
aF0.11391808498513095
aa(lp98
F0.06308762684335696
aF-0.7707419888208121
aF0.7182756965880288
aF0.9794339902822173
aF-0.03792547268683264
aF0.04352686364865251
aF-0.19332907009098546
aF-0.6722247366553973
aF0.12161526266456328
aF-0.015115340258914563
aF-0.4700157704360796
aF0.5303718303402181
aF0.2161961335291072
aF0.7520867546960388
aF-1.1958262262772534
aF0.6499205719518403
aF0.8443047940431727
aF0.09131861905690886
aF0.7008472913741844
aF-1.3220651398510659
aF-0.27911952883365065
aF-0.06105962650497332
aF0.004936116122607971
aF0.1474465620716208
aF0.10206347960994744
aF0.04723868496425937
aF-0.035801988325555645
aF-1.5635856664182428
aF1.7189612840496258
aF-0.23080533067092615
aF0.12350134407523786
aF0.35268631998155436
aF-0.06157118287467199
aF-0.09665476861628451
aF0.15371595106682412
aF-0.13339622229141257
aF0.12741333767475405
aa(lp99
F0.07405229874426537
aF-0.7730732541143784
aF0.7335706163084568
aF0.9800139677960624
aF-0.04521626836190703
aF0.04564019091013584
aF-0.18826865106471843
aF-0.6595239931168511
aF0.12869820821027325
aF-0.01438217071986288
aF-0.4715101933100345
aF0.4985496912242676
aF0.19832697547249267
aF0.7345875271935288
aF-1.1740796536182638
aF0.6025110568526405
aF0.8106297455456799
aF0.0913003822451207
aF0.5281103108870563
aF-1.276628633545596
aF-0.2983924400117237
aF-0.10850215187383411
aF0.004333878802347431
aF0.1862084869605905
aF0.10207096383155889
aF0.03764731204476934
aF-0.019060254924157055
aF-1.50927240705128
aF1.692706858407141
aF-0.26041381711017064
aF0.12220615618498441
aF0.3265208009979358
aF-0.05910967322407205
aF-0.14562483211585722
aF0.2322413326306141
aF-0.15140432086626907
aF0.14093458883882312
aa(lp100
F0.08534832059295122
aF-0.7751785850488342
aF0.75078892854006
aF0.9802735604604164
aF-0.053744872520649564
aF0.049198684622509696
aF-0.18372458945773193
aF-0.6460169611852271
aF0.13598725154599273
aF-0.013633433582565878
aF-0.47302460302777505
aF0.4664697051267383
aF0.17895541533402035
aF0.7205022233261213
aF-1.1481074704619394
aF0.5519931952905286
aF0.7712021200613605
aF0.09128232065169568
aF0.35579071378066796
aF-1.2318649063193274
aF-0.3176728479110201
aF-0.15539133208328404
aF0.0037396934335580056
aF0.22502959482666615
aF0.10207785264051143
aF0.029141111487801092
aF0.0002450582013021305
aF-1.4509335361944407
aF1.656703504069688
aF-0.28668951822891364
aF0.12122478703510231
aF0.29997252826422016
aF-0.05692856942567158
aF-0.19271648644524736
aF0.31157422648425026
aF-0.16934699348879848
aF0.15447565748722222
aa(lp101
F0.09670770525920683
aF-0.777179277411833
aF0.7692735113745826
aF0.9802086827676053
aF-0.06343687108185278
aF0.05373591874000034
aF-0.17966399931958718
aF-0.6319438305119741
aF0.14354762386492184
aF-0.012866513593013666
aF-0.4745611673989708
aF0.43394875477601835
aF0.15962524419820012
aF0.710548751768618
aF-1.1177257947075914
aF0.49923794044645
aF0.7276782206863677
aF0.09126445478883528
aF0.18389930466802082
aF-1.1883414770489444
aF-0.3370080219742975
aF-0.20193226025879366
aF0.003160788832311272
aF0.2638852783169552
aF0.1020839936380316
aF0.021816371111165526
aF0.022249693553278087
aF-1.390225272273756
aF1.6124078072207297
aF-0.30854749352693583
aF0.120159265100436
aF0.2730020065616007
aF-0.055310079970313994
aF-0.23786903583890598
aF0.39189073152398346
aF-0.18720879266088877
aF0.1680262621677346
aa(lp102
F0.10786162855739813
aF-0.7792529187763084
aF0.788673275471472
aF0.9797717027380201
aF-0.07443673753334928
aF0.05896658347176845
aF-0.17615199304265272
aF-0.61735681906815
aF0.15153558745087303
aF-0.012074831740803212
aF-0.4761244548983169
aF0.40090005480752544
aF0.14184952352868785
aF0.7060035614990341
aF-1.0823984509390694
aF0.444780368282898
aF0.6809849358967058
aF0.0912468512680755
aF0.01678264646889771
aF-1.1476416221522545
aF-0.3551805804329401
aF-0.24693495355957013
aF0.001516672695359534
aF0.30222820035747217
aF0.10208919951842041
aF0.015988845408531228
aF0.04768591476301519
aF-1.327990651105135
aF1.559857523831667
aF-0.324598638341869
aF0.11847700126640046
aF0.24602452380487247
aF-0.054108631835990635
aF-0.28161929579269473
aF0.4707086137139911
aF-0.20414031982785957
aF0.18110030827948606
aa(lp103
F0.11807945188673721
aF-0.7823728237836232
aF0.8087184305617873
aF0.9788772897606685
aF-0.0871653845515617
aF0.06421707851597118
aF-0.17342898879270582
aF-0.6014129656364872
aF0.15975081017334217
aF-0.011218708506708948
aF-0.47770546666532526
aF0.36787143870790123
aF0.1296685969219629
aF0.7061824475472159
aF-1.0409957685280744
aF0.3908293658170684
aF0.6331693968957022
aF0.09122999857329063
aF-0.09363656068598708
aF-1.118619813511676
aF-0.35692760442564697
aF-0.2731619736045942
aF-0.013924266142431916
aF0.33399199668732116
aF0.10209352309960058
aF0.012547634076501033
aF0.07988484618910086
aF-1.2642998694854184
aF1.4998641257290752
aF-0.33424496457484326
aF0.11341797113926472
aF0.2248001820960705
aF-0.04726592509101952
aF-0.3312307173601672
aF0.5154645973656476
aF-0.21047858374736206
aF0.18807728935365328
aa(lp104
F0.12767433081993199
aF-0.7861051612159398
aF0.829225005465203
aF0.977528259225292
aF-0.10129940564575077
aF0.06942336410374222
aF-0.1713398066658969
aF-0.5847328801739616
aF0.16816883435489793
aF-0.010318481164481445
aF-0.47931495803027613
aF0.3345465806750286
aF0.12204272211645562
aF0.7121652861263619
aF-0.9940934755478875
aF0.33652407813098517
aF0.5840759259381878
aF0.09121360539106906
aF-0.17901217042479864
aF-1.0956525736395317
aF-0.3515342478343636
aF-0.2910454243748673
aF-0.03541203173221146
aF0.36289451675880563
aF0.10209694208321403
aF0.011066405384813837
aF0.11650790166613932
aF-1.1992591110015813
aF1.4322930016904536
aF-0.3372618854941587
aF0.10667958610827896
aF0.20573695979030066
aF-0.0384953000672484
aF-0.3818609565526714
aF0.5461189317322876
aF-0.21210057484232883
aF0.19237923960207676
aa(lp105
F0.1368020459784426
aF-0.790005258431734
aF0.8496198393230279
aF0.9758027969703422
aF-0.11619303705925611
aF0.07428194038910053
aF-0.16967696630902415
aF-0.568066319379523
aF0.17700085791923564
aF-0.00939773900156105
aF-0.48095551377726337
aF0.3008105121824189
aF0.11778834001673995
aF0.7238045384610488
aF-0.9437008885541304
aF0.28169584854909224
aF0.5347786822098816
aF0.09119736848522252
aF-0.26419653526276254
aF-1.0742727495705096
aF-0.34626686722302985
aF-0.3089103357645682
aF-0.05687572067865387
aF0.3917954298587127
aF0.10209964392717229
aF0.010881772346047694
aF0.15479034563577757
aF-1.1337507275422365
aF1.3593818317083095
aF-0.33464662605956486
aF0.09967298351838087
aF0.18619956239727148
aF-0.03057603627606479
aF-0.43076122161554387
aF0.5778713567271593
aF-0.21363246679726686
aF0.1966778773850251
aa(lp106
F0.14536640885121072
aF-0.7940011628497988
aF0.8694192378385204
aF0.9737666993809255
aF-0.13143391679179942
aF0.0783983105405696
aF-0.16839609733580196
aF-0.5516656883395872
aF0.18643615140849024
aF-0.008461350686418762
aF-0.48262446365524153
aF0.26689582291653374
aF0.1168312120210432
aF0.7403298971093382
aF-0.8912041720857206
aF0.22684597379306057
aF0.48656450197272705
aF0.09118118672600885
aF-0.3493510463906639
aF-1.0541724837942417
aF-0.34111228140205646
aF-0.3268526872992503
aF-0.07831529780596144
aF0.42067854472828164
aF0.10210185979454606
aF0.01171750484752785
aF0.19362650525334646
aF-1.0683373148399256
aF1.283345062271826
aF-0.3274411884563792
aF0.09256445588789286
aF0.1662730816875061
aF-0.023354921221551438
aF-0.47871744240433467
aF0.6103955164535032
aF-0.2151031233952619
aF0.2009724549386594
aa(lp107
F0.15323873725843512
aF-0.7980700987484185
aF0.888247323592412
aF0.9714678144051793
aF-0.14681650963943244
aF0.08141331840953883
aF-0.16753229437235562
aF-0.535665357365897
aF0.1964925817937445
aF-0.007509625638655885
aF-0.48432751778384414
aF0.2328984215552982
aF0.11980308388301616
aF0.7621530495451341
aF-0.8365400568445661
aF0.1721326654324017
aF0.44015201854034763
aF0.09116503483113955
aF-0.4343831368191987
aF-1.0351026862935389
aF-0.33605352391453297
aF-0.3447799106733529
aF-0.09973490274445403
aF0.44955590704169446
aF0.10210361478068643
aF0.013511151018767098
aF0.232399163370965
aF-1.0032539714958473
aF1.2047800961311108
aF-0.3153860276391425
aF0.08544836228129335
aF0.14597889553066146
aF-0.016599110796057085
aF-0.5253813755092104
aF0.6437349207556762
aF-0.21650309250510938
aF0.2052667172271896
aa(lp108
F0.16033612067660663
aF-0.8020866746877519
aF0.9055298832899475
aF0.9690664746247931
aF-0.16170692240565854
aF0.08295109704710293
aF-0.16697351437592556
aF-0.5203068367326092
aF0.20722120547992373
aF-0.006552150840720132
aF-0.48606324067759754
aF0.1990473701490081
aF0.12633202457326057
aF0.7879363037913644
aF-0.7809830511830833
aF0.1179530628591165
aF0.3967478975447383
aF0.09114880430771585
aF-0.5192344561586935
aF-1.0161751056371127
aF-0.3310261837817596
aF-0.3625859495992355
aF-0.1211502418116902
aF0.47844730102215177
aF0.10210521235215465
aF0.01563238858736242
aF0.2694921780466842
aF-0.9393643611511896
aF1.12680174536131
aF-0.3001149653016859
aF0.07857969071894191
aF0.12558003544207272
aF-0.00958449206221753
aF-0.5710407056719066
aF0.6775144446278497
aF-0.21785702658909184
aF0.2095722364448775
aa(lp109
F0.16676169375443478
aF-0.8060120248532626
aF0.9213196924666169
aF0.9666251702215641
aF-0.1759506609235798
aF0.08313485851140116
aF-0.16663055096523274
aF-0.5055683898632093
aF0.2185154139259829
aF-0.005593476226313567
aF-0.48782559962802685
aF0.16540156181871052
aF0.13562217387547165
aF0.8165397990707778
aF-0.7250586676604739
aF0.06432128548904771
aF0.3562232587188626
aF0.09113246118713167
aF-0.6039001539206601
aF-0.9969843303270656
aF-0.3259970438073807
aF-0.3802373969303445
aF-0.14256661371184476
aF0.5073560212557404
aF0.10210680151568301
aF0.017787192556442195
aF0.304604330901206
aF-0.8768496139494686
aF1.0505886816003074
aF-0.282843916017484
aF0.07200600048997127
aF0.10518885666801986
aF-0.00205302486992781
aF-0.6159336691898961
aF0.7115148097195093
aF-0.21918108080157767
aF0.21389130739687762
aa(lp110
F0.17216655353971108
aF-0.8096851210331437
aF0.9346350964926334
aF0.9643987353371919
aF-0.18871224176562745
aF0.08138352128454246
aF-0.1664316422773762
aF-0.4919404240686125
aF0.23074589770717713
aF-0.00464642774899885
aF-0.48962432290246394
aF0.13205835161364093
aF0.1479152226736516
aF0.8474780802172801
aF-0.6697544659721197
aF0.01178041223403569
aF0.3204373366244765
aF0.09111581279929906
aF-0.6862492307652683
aF-0.9767009437913585
aF-0.3203616105448274
aF-0.3968826624287708
aF-0.16443539260732004
aF0.5361028734121714
aF0.10210867365959123
aF0.019232367399926193
aF0.3356149688244676
aF-0.8177868095986065
aF0.9806241853347841
aF-0.2648953679155624
aF0.06600013721525314
aF0.08549217697766838
aF0.007492739424187755
aF-0.6600936757914961
aF0.7442634439813752
aF-0.2201533274465095
aF0.21805606271164438
aa(lp111
F0.17676023492618975
aF-0.8131288161472239
aF0.9459680074800176
aF0.9623816021285014
aF-0.20013698479851375
aF0.0782188815378494
aF-0.16627881937067673
aF-0.4792631509187453
aF0.24379839993650282
aF-0.0037126441265010347
aF-0.49144766837994047
aF0.09892240208871599
aF0.16199143617699488
aF0.87938139416162
aF-0.6153645228577922
aF-0.03979330491507614
aF0.2884296315608902
aF0.09109888586676368
aF-0.7643505273504084
aF-0.9555225649419342
aF-0.31351047623058154
aF-0.4119022313105659
aF-0.18725295847553539
aF0.5644437135770503
aF0.10211094336174939
aF0.01988134738621058
aF0.3631182605397645
aF-0.7622347836931299
aF0.9174445731926787
aF-0.247656716013648
aF0.06042230694652139
aF0.06676505844953631
aF0.019280148461406216
aF-0.7043249844393981
aF0.7742551986788608
aF-0.22042122728482325
aF0.22184520622961992
aa(lp112
F0.18046026423702405
aF-0.8162213511645571
aF0.954927887340378
aF0.9607486526347085
aF-0.20976192789952636
aF0.07357005122666858
aF-0.16598014226699237
aF-0.4678437017665531
aF0.25770514630520996
aF-0.002807012096598705
aF-0.493306467574551
aF0.06573487286865129
aF0.1776097381266802
aF0.9119398222633873
aF-0.5621347989298505
aF-0.09052732477003794
aF0.260706970728943
aF0.09108146717022622
aF-0.8415607157344773
aF-0.9317249099467076
aF-0.3064811958410478
aF-0.4262219593248797
aF-0.21010562025694485
aF0.5928824801319545
aF0.10211375176993433
aF0.019084998706081917
aF0.38592593944663844
aF-0.7117415331320399
aF0.8639634375891385
aF-0.23230006887342458
aF0.05550811301885918
aF0.04909474176259659
aF0.03415505543633504
aF-0.7472184279081376
aF0.8037721222180234
aF-0.2206857924135339
aF0.22570281088358368
aa(lp113
F0.19083883871161986
aF-0.8608153156474466
aF0.9860132920635801
aF0.9529184658341224
aF-0.24349881498800915
aF0.0625145553194789
aF-0.16954838526209967
aF-0.37416850213208797
aF0.21233630360148917
aF-0.00015697273520305465
aF-0.49591950721265216
aF0.07622552135326005
aF0.28754927478407694
aF0.8955961953052468
aF-0.4561905811771444
aF-0.15722172204887286
aF0.2337856740586085
aF0.09107363445111294
aF0.6246514378546034
aF-0.5881447838236723
aF-0.07050189648757728
aF-0.4457324724581125
aF0.0008463004538236203
aF0.008327266295645754
aF0.10212784370057046
aF0.029827463963903247
aF0.5250590753391038
aF-0.5167285563511791
aF0.6402478456150207
aF-0.17457051908274038
aF-0.01913072737798384
aF0.3523634629557118
aF0.23300284705369895
aF-0.6361545357319485
aF0.06404533547428269
aF0.3632782091757554
aF0.23120564283280648
aa(lp114
F0.19579311905657798
aF-0.8614216474709739
aF0.9889125283423421
aF0.9546694885638568
aF-0.2453991321842418
aF0.059223371011004715
aF-0.15772769526794583
aF-0.3901635862872905
aF0.24567919210965042
aF0.0013317607619894461
aF-0.49681659886236734
aF0.037114311477364
aF0.2963320100826722
aF0.9129048899543326
aF-0.4095581300750594
aF-0.1858370462285087
aF0.20407465610674705
aF0.0910821807135743
aF0.7005673011689618
aF-0.6579886051280498
aF-0.07972383652708125
aF-0.4226253136242525
aF0.0010664124756524932
aF0.010904493972836231
aF0.10210758099916109
aF0.0009968937605470754
aF0.5265388561546405
aF-0.4832450040719364
aF0.6168848629694147
aF-0.16979128476842636
aF-0.017294146322927306
aF0.3289839352415011
aF0.24311057830933128
aF-0.6095994756727372
aF0.05598439794834149
aF0.3564702533977555
aF0.22893934376604816
aa(lp115
F0.19814846226634555
aF-0.8619175861622379
aF0.9903267664673975
aF0.9555153312645639
aF-0.24667990370230727
aF0.05727315021727571
aF-0.1511928010587161
aF-0.3988467027685534
aF0.2644765978626519
aF0.002151693958591073
aF-0.49744484510722436
aF0.016811674921191202
aF0.3004083247602365
aF0.9229128516113523
aF-0.3889127116840418
aF-0.20175596694980938
aF0.19120650244930068
aF0.09108669179429489
aF0.7476663197679796
aF-0.6942181155883367
aF-0.08529032615588551
aF-0.4058634918695231
aF0.00121319285724214
aF0.01268216683336052
aF0.10209524285152671
aF-0.015003624944134868
aF0.5281884926616175
aF-0.4654700424229401
aF0.6050743730294245
aF-0.1671142763693217
aF-0.01683326483734689
aF0.3160863417058713
aF0.24925618245552641
aF-0.5953147462066898
aF0.0513485883322877
aF0.3532786300026611
aF0.22706814378677384
aa(lp116
F0.19998576473135043
aF-0.8623111301970194
aF0.9914392320060124
aF0.9561929074218067
aF-0.24771089908370153
aF0.0556291674822788
aF-0.14573891037264036
aF-0.40604341048932224
aF0.2802841656871442
aF0.00283903097653377
aF-0.49799040257716914
aF-0.0002562388627070193
aF0.30381343802475447
aF0.9313081447200416
aF-0.3722167405647746
aF-0.21514508712722763
aF0.18102618738284304
aF0.09109042640227642
aF0.7875346131819978
aF-0.7235754611939779
aF-0.08986171371200118
aF-0.39166320324797443
aF0.0013354003162370852
aF0.014166999831606613
aF0.1020850926670378
aF-0.028361095071523373
aF0.5295078233673314
aF-0.45104129261448805
aF0.5956138387155868
aF-0.1648396970452101
aF-0.016495127041060206
aF0.3052901398922292
aF0.2542338687220261
aF-0.5836688637737611
aF0.047698973442817885
aF0.35088834918330103
aF0.22578702996989425
aa(lp117
F0.20058120032374477
aF-0.8628802559922872
aF0.9917972744461709
aF0.9560997598159169
aF-0.248672562802068
aF0.054856215305744714
aF-0.14500345317173374
aF-0.4080565535198263
aF0.2817114598250662
aF0.002892394769490985
aF-0.4980464098735961
aF0.0009667578750513532
aF0.3036300916693386
aF0.9343166484559997
aF-0.3720737173286128
aF-0.21702047185164108
aF0.1806158380817011
aF0.09109067477730097
aF0.796297188120042
aF-0.7339063338667007
aF-0.09237293234365643
aF-0.3844184418778829
aF0.0014069354512251317
aF0.015037076305289282
aF0.10207933182902301
aF-0.030507148626193917
aF0.531879034046987
aF-0.44611204873718924
aF0.5932951486988446
aF-0.16495090059704093
aF-0.017177019280376026
aF0.3042264994922435
aF0.25763620288573497
aF-0.579961439665584
aF0.04563058188505094
aF0.35057230482555335
aF0.22444950122655882
aa(lp118
F0.20100688691359958
aF-0.8634651256209969
aF0.9920525629204147
aF0.9559102369884032
aF-0.24961461551253555
aF0.0542011431139335
aF-0.14488063579528815
aF-0.40938599661128205
aF0.28128433675642944
aF0.0028640718762096996
aF-0.4980394660086567
aF0.0045141294281530785
aF0.3029928028106878
aF0.9366094813471197
aF-0.3740567629070931
aF-0.2174075318651107
aF0.1814749513798911
aF0.09109047266804822
aF0.8009931868935366
aF-0.7416730841168212
aF-0.09459196997788791
aF-0.37813838127725447
aF0.0014712101560375118
aF0.01581900478318153
aF0.10207419688559033
aF-0.031195405609911915
aF0.5343576204189076
aF-0.44246251148657234
aF0.5919299973879713
aF-0.16536559727485423
aF-0.017983840309419963
aF0.3044198341156922
aF0.2607962287366837
aF-0.5773177920531326
aF0.04379687151655244
aF0.3505390788310953
aF0.22313793163404538
aaa(lp119
(lp120
F0.20135951419133022
aF-0.8639496158302599
aF0.9922640369998289
aF0.9557522513900418
aF-0.25039472808400903
aF0.05365844282429589
aF-0.1447787471429176
aF-0.4104872713740077
aF0.28093051953846004
aF0.0028406099561181087
aF-0.49803371389842144
aF0.00745267624565101
aF0.3024648899266321
aF0.9385088022088899
aF-0.37569946432316026
aF-0.2177281619298603
aF0.18218661764052255
aF0.09109030524620007
aF0.8048832254881013
aF-0.7481068503260128
aF-0.09643016084128292
aF-0.3729361486338949
aF0.0015244535861222155
aF0.016466733222626276
aF0.10206994323709137
aF-0.03176553911266181
aF0.5364108144489302
aF-0.43943933336367075
aF0.5907991429003824
aF-0.16570912080617128
aF-0.018652189066153506
aF0.3045799872978279
aF0.2634139088326401
aF-0.5751278657480173
aF0.042277875356465204
aF0.35051155531436995
aF0.2220514627952688
aa(lp121
F0.2018456975924759
aF-0.8640796229260557
aF0.9924831982547585
aF0.9556807684431884
aF-0.25021944982426547
aF0.05440845454525624
aF-0.14527290122894748
aF-0.4087271470328006
aF0.27916564538955885
aF0.002769916732211398
aF-0.4978967398181914
aF0.009478374097667504
aF0.301977489517399
aF0.9365327832582033
aF-0.37699304162814795
aF-0.21590644395435385
aF0.18109970450530208
aF0.09109048858962324
aF0.7989478327219801
aF-0.7452128983746047
aF-0.09587299446079312
aF-0.375519889702969
aF0.0015036867890029213
aF0.016177153066820736
aF0.10207104361306374
aF-0.030162427871741924
aF0.5362412097981298
aF-0.4396164704480709
aF0.5890530663993048
aF-0.16581106356846292
aF-0.018570069428997808
aF0.3056418868330663
aF0.2630523496582577
aF-0.57635085556689
aF0.04295643051797201
aF0.34935664964037305
aF0.22166600973650635
aa(lp122
F0.2022595575447983
aF-0.8641936252201717
aF0.9926656893966226
aF0.9556052631863329
aF-0.25006733185926205
aF0.05505972729832152
aF-0.1457852425220176
aF-0.40716776414788314
aF0.27744619033129986
aF0.002697300526542354
aF-0.49776310509259225
aF0.011529412412994136
aF0.30152337887066183
aF0.9347599420326472
aF-0.3782197667225039
aF-0.2140826416327651
aF0.18019204879400538
aF0.09109063595817007
aF0.7929892381623086
aF-0.7422678784957083
aF-0.09531340710615589
aF-0.3781333756647797
aF0.0014825684747519358
aF0.015884142210208837
aF0.10207218620757699
aF-0.028578896935946976
aF0.5361048955094392
aF-0.4398740857435605
aF0.5876461024057443
aF-0.1659571938027908
aF-0.01850479162627162
aF0.3067385944327571
aF0.2627210280172643
aF-0.5775465611889138
aF0.0436630836204756
aF0.3483348536059567
aF0.22140721248791687
aa(lp123
F0.20346420430743076
aF-0.8644309440386984
aF0.993209014644671
aF0.9554428964177787
aF-0.24938527564789467
aF0.057335036011551065
aF-0.1471344610225065
aF-0.4014496623122216
aF0.27220751180054226
aF0.002516216563339912
aF-0.49746537673174474
aF0.016324541635112093
aF0.2998854422329058
aF0.9289727376830268
aF-0.38277883575282134
aF-0.2100145899751351
aF0.1780103640545435
aF0.09109055605697085
aF0.7794279760248236
aF-0.7343707910031835
aF-0.09390211061156997
aF-0.38407955263613447
aF0.0014328446012747372
aF0.015217365083831499
aF0.102075286792775
aF-0.024055492543181164
aF0.5351706347885625
aF-0.4413462089650454
aF0.5831132575895539
aF-0.16606032293293752
aF-0.01814114156225399
aF0.3095484383660923
aF0.2610483302366692
aF-0.5809937465898465
aF0.04458525058928007
aF0.345862660419327
aF0.22063677694399159
aa(lp124
F0.20517643171902328
aF-0.8647910323285215
aF0.9940020399893883
aF0.955247361171433
aF-0.2484912840134746
aF0.06048263448163625
aF-0.14864861812512506
aF-0.39346354018053176
aF0.2655866936478273
aF0.0023144565979717376
aF-0.4971308662820844
aF0.02187902619178996
aF0.2976215071398325
aF0.9212897810089918
aF-0.3891879748340632
aF-0.20572355714443114
aF0.17519138270379667
aF0.09109041751803368
aF0.7651476845731169
aF-0.725783503662304
aF-0.09236516610554504
aF-0.39028712622454087
aF0.0013807811793016503
aF0.014521585016084394
aF0.10207860438894234
aF-0.01860804183981839
aF0.5339895322983477
aF-0.44283377633713794
aF0.5762756042539839
aF-0.16594409237620025
aF-0.017672909163467764
aF0.3127256667136271
aF0.25897128934814007
aF-0.5849885714680015
aF0.04494158222181982
aF0.3427336112796062
aF0.21935008268725295
aa(lp125
F0.2082701159063597
aF-0.8655042179303047
aF0.9954688157802266
aF0.9550122773652828
aF-0.24713070832840467
aF0.06567542931089951
aF-0.15021551540205821
aF-0.38032419614675983
aF0.25664540466445546
aF0.0021117536266165877
aF-0.4967257344153938
aF0.027963458410441875
aF0.2943739131260963
aF0.9092437968516648
aF-0.39833072564822924
aF-0.201583691912852
aF0.16979955129804408
aF0.09109047685198046
aF0.7510851288987181
aF-0.7178059088244488
aF-0.09088963154878969
aF-0.3963774644681441
aF0.0013305889661097796
aF0.013839167140571795
aF0.10208165443787244
aF-0.0117544896263388
aF0.532313472007663
aF-0.4431757900685397
aF0.5626531905463492
aF-0.16490243785955222
aF-0.016960494357024274
aF0.3161291655624324
aF0.2562449274006447
aF-0.5896781529938916
aF0.04385274710347024
aF0.3378244162385772
aF0.21752765679127195
aa(lp126
F0.2121314635299923
aF-0.8662068485195633
aF0.9973125553652087
aF0.9548732588089897
aF-0.2452258739838363
aF0.07218952400304768
aF-0.15122831403073056
aF-0.3650290877661287
aF0.24834893367766042
aF0.0019910737744321854
aF-0.49631134705559465
aF0.031305716433383916
aF0.2914381252307634
aF0.894434130963765
aF-0.40594397478642763
aF-0.19799043344673298
aF0.1611547622472946
aF0.09109107112123867
aF0.7385168147804462
aF-0.7120719102462983
aF-0.08973741931046031
aF-0.40178040866708825
aF0.0012879450037381593
aF0.013233934432322252
aF0.10208376003971413
aF-0.005372569529038923
aF0.5294713780106727
aF-0.4430618581902488
aF0.544871041011474
aF-0.1629046378369002
aF-0.015750412537678407
aF0.31828203966509605
aF0.25233873559911313
aF-0.5946500335835755
aF0.04209869206230048
aF0.3317744207538501
aF0.2160095314534434
aa(lp127
F0.21706394174881385
aF-0.8673226364727659
aF0.9996905559935179
aF0.954782304166556
aF-0.24343800896927495
aF0.0792771806480296
aF-0.15114170856509834
aF-0.34884315786108194
aF0.24200553394708219
aF0.0020066850619495182
aF-0.4959261982105263
aF0.03171519792026068
aF0.2893556118573797
aF0.8789853861371025
aF-0.4105750923760245
aF-0.196808070413736
aF0.1489468124310249
aF0.09109282337258219
aF0.7328877772145311
aF-0.7137314007938157
aF-0.08972145046855251
aF-0.4043014511961124
aF0.0012738448170491626
aF0.012951328022426555
aF0.10208307605045568
aF-0.0011355605724035268
aF0.5271792464182904
aF-0.4385888150316634
aF0.5208318261828623
aF-0.15956146552233713
aF-0.01462562161515334
aF0.3184306217057336
aF0.24969994544462357
aF-0.59765626452185
aF0.039237034885008355
aF0.3240939138697623
aF0.21307026528449605
aa(lp128
F0.22359905871278246
aF-0.8692935424246111
aF1.002822113190927
aF0.9547734786290508
aF-0.2423625047641057
aF0.08609935978683797
aF-0.14918083333775345
aF-0.333053371677425
aF0.24056155211804964
aF0.0022903868278648138
aF-0.4956397540123971
aF0.027006732280704403
aF0.28946092349608066
aF0.864785959330949
aF-0.408148226617829
aF-0.20009371440861262
aF0.13111697286181967
aF0.09109692556122417
aF0.7414053652915035
aF-0.7300811985232857
aF-0.09201832465442104
aF-0.40088415332776534
aF0.0013174467305334674
aF0.013333201185740775
aF0.10207688546523444
aF-0.0012305235806765796
aF0.5269290345797284
aF-0.42429639263009017
aF0.4864913596827986
aF-0.15381908137679012
aF-0.014054002635182887
aF0.3154156033268648
aF0.2507786093825136
aF-0.59608702147549
aF0.03553023770769214
aF0.31367188214078523
aF0.2082726833198546
aa(lp129
F0.22642096773141562
aF-0.8699911201440954
aF1.004175783600034
aF0.9546836212641567
aF-0.24147301281200287
aF0.08985533480692728
aF-0.14898317415126267
aF-0.324351273458861
aF0.23760067157147657
aF0.0023232714597664003
aF-0.4954398356010641
aF0.026830608321735953
aF0.28855648997313843
aF0.8566017046023015
aF-0.40995553289305015
aF-0.19981942406714093
aF0.12399588706147155
aF0.09109811270576526
aF0.7396234151227031
aF-0.7323409597569807
aF-0.09222610605815332
aF-0.40171379083752307
aF0.001315027373010504
aF0.0132400577831533
aF0.10207600754383656
aF0.0007068360318597832
aF0.525937812110571
aF-0.4208208795062759
aF0.47247070867616725
aF-0.15177874343500275
aF-0.013518945827546402
aF0.3152842434716333
aF0.24977231349447507
aF-0.5972668317204521
aF0.03399814481530004
aF0.30922563593489255
aF0.20656893287626496
aa(lp130
F0.22612968026986763
aF-0.8671447246629049
aF1.0047595266395821
aF0.9580215440747799
aF-0.23736195061723497
aF0.09344205216169461
aF-0.13085338503671504
aF-0.3589056896204559
aF0.2725562357804992
aF-0.02460424171279062
aF-0.40669184596158725
aF-0.012931827576969398
aF0.2920890391733388
aF0.8530170739128999
aF-0.3841181455294577
aF-0.20088064600796707
aF0.10536415028475707
aF0.09022315818169707
aF0.5152524986150182
aF-0.7273913976102663
aF-0.02969780350241736
aF-0.4857234167027864
aF-0.0027968563471916746
aF0.04580514923647727
aF0.09388493934516509
aF-0.025759296709008457
aF0.5273669340103276
aF-0.6028047656034831
aF0.7568552881388269
aF-0.14221349452325893
aF-0.017824804000651624
aF0.2756488902332392
aF0.24185198543298692
aF-0.5916315188216207
aF0.03472968171976692
aF0.30558378535610076
aF0.21002615185755663
aa(lp131
F0.22498292541676165
aF-0.8631280353225433
aF1.0046975723680054
aF0.96087120730494
aF-0.23182856315400976
aF0.09803187603839364
aF-0.1156364629288157
aF-0.3869175644153149
aF0.3020839159714023
aF-0.05084342218433591
aF-0.32023446730527727
aF-0.05119556588629984
aF0.29328450830612685
aF0.8468293664038353
aF-0.36306691011018
aF-0.20076551752379906
aF0.0896398559390329
aF0.08936922980190831
aF0.2887649300673257
aF-0.7270913439377512
aF0.03051684990249163
aF-0.566427248340138
aF-0.006783446105543131
aF0.07770602133698964
aF0.08589636517598281
aF-0.049779152103311575
aF0.5348170986959315
aF-0.7787226049841925
aF1.0169050362927101
aF-0.1325836608320967
aF-0.021769812797205114
aF0.24104033252588283
aF0.22799183559033454
aF-0.5911038020882682
aF0.035697883825103804
aF0.3040337809440485
aF0.2158758220650223
aa(lp132
F0.22191589727645353
aF-0.8570957980662478
aF1.0032676888554122
aF0.9630260712859945
aF-0.2236159251360598
aF0.1046728467552068
aF-0.10779749162743817
aF-0.39883195862626214
aF0.3181834903747572
aF-0.07621809068942326
aF-0.23662228993994144
aF-0.08352228488666519
aF0.2905873728964343
aF0.8314372381132141
aF-0.3531358663458238
aF-0.194365486786581
aF0.08104778641953364
aF0.08854434596444499
aF0.05019403819593724
aF-0.7223450088153057
aF0.08937403270366583
aF-0.646165066466267
aF-0.010647349196309757
aF0.10824784310606542
aF0.07819629468526441
aF-0.0751808581987857
aF0.5351420303842919
aF-0.9460546445007746
aF1.2350312916094548
aF-0.12349131289093743
aF-0.025769300505555162
aF0.21966757907226286
aF0.20246819134033556
aF-0.6025611953724194
aF0.03731818661413296
aF0.30694517312997566
aF0.22602266200902668
aa(lp133
F0.21829994427899602
aF-0.8501310172175348
aF1.0013834389678147
aF0.9649974731668499
aF-0.21380837463685834
aF0.1125390493717876
aF-0.10198440117603257
aF-0.4047132245885005
aF0.33048228426741894
aF-0.10161331987317404
aF-0.15258059984227282
aF-0.11590930751116106
aF0.2861769264254754
aF0.8104952482712072
aF-0.3465971188242464
aF-0.18519853401131628
aF0.07408923289658517
aF0.08771903339105255
aF-0.19089596784955132
aF-0.7085712085736492
aF0.15002538107459434
aF-0.7266214004929596
aF-0.01456092207753788
aF0.13868874541667245
aF0.07049792456461446
aF-0.10283160539080854
aF0.5259203290134302
aF-1.109627730852395
aF1.446842681861016
aF-0.11495548392270202
aF-0.030161223814320355
aF0.20125666568897996
aF0.17142101160315618
aF-0.6184430496243998
aF0.03876440931885795
aF0.311267767359776
aF0.2380206125338029
aa(lp134
F0.21459153089106786
aF-0.8431714999546123
aF0.9995896496880776
aF0.9669011420920712
aF-0.2026052494543243
aF0.12186699088870162
aF-0.09592565270214318
aF-0.4048544680912601
aF0.33921824249452726
aF-0.1258402989197501
aF-0.07233095389098566
aF-0.1521336882178169
aF0.28162701172486626
aF0.7851889695371816
aF-0.3397892298279561
aF-0.17976238970864916
aF0.06778184512934832
aF0.08693319669215564
aF-0.41742513803155123
aF-0.6994609869662338
aF0.2071415425599038
aF-0.8020880999625101
aF-0.018276714455593066
aF0.16782779072973167
aF0.0631619368599222
aF-0.12818083192640548
aF0.521231540920424
aF-1.2606148115557356
aF1.6498233782057374
aF-0.10668958086602648
aF-0.034226492800976116
aF0.18154205047191152
aF0.13771884385236396
aF-0.6370916832683284
aF0.04001591335824356
aF0.3157943501696114
aF0.2499668983379202
aa(lp135
F0.21160773812615932
aF-0.8375265513597107
aF0.9983975323082743
aF0.9684140542762151
aF-0.19077373974955428
aF0.1324414492211663
aF-0.09076817851246519
aF-0.39358870335726887
aF0.3402712230851071
aF-0.14514725994283612
aF-0.008228721978158842
aF-0.18859641264996843
aF0.27728297586337713
aF0.7541743470279473
aF-0.33419334739247564
aF-0.17982984636787872
aF0.0631367497737599
aF0.08631121479212699
aF-0.5931182349449542
aF-0.694276312567875
aF0.25204662129066224
aF-0.8613830236962836
aF-0.02120770173409001
aF0.19095682616087106
aF0.05735209351816411
aF-0.1480269497907564
aF0.5198199814625801
aF-1.3724686989439856
aF1.80155419756018
aF-0.10004394727863854
aF-0.03738387055549758
aF0.1634359875237786
aF0.10509981194688534
aF-0.6579153568183775
aF0.040868206361927784
aF0.3194509742665872
aF0.2595684020357526
aa(lp136
F0.21421814273021217
aF-0.8389671019266872
aF1.0003388111813543
aF0.9688194272549995
aF-0.1901793475227015
aF0.13478382617326543
aF-0.08398841200564262
aF-0.39888238316859526
aF0.35025219755785497
aF-0.15390884280200304
aF0.0207089449586156
aF-0.19968584832743624
aF0.2796374241518348
aF0.7474665280855213
aF-0.3265713759408026
aF-0.180777637844739
aF0.052986365560295144
aF0.0860271883449939
aF-0.668838475457842
aF-0.6928646183231181
aF0.2723452253629868
aF-0.8886356281715664
aF-0.02254205794965084
aF0.2015228750123727
aF0.054695115515008115
aF-0.15658779496402847
aF0.5203546069990143
aF-1.4143533208043264
aF1.8464362732008472
aF-0.09686094119169561
aF-0.0387165278878804
aF0.15045513767703234
aF0.1090991146292609
aF-0.6538426615246113
aF0.040567849275851345
aF0.31357122748038885
aF0.25601535469416586
aa(lp137
F0.21677959706813482
aF-0.8404863170228525
aF1.0022576413928752
aF0.9691886416593394
aF-0.18966937721134744
aF0.13692313465202763
aF-0.07714246187312869
aF-0.4045273291724239
aF0.36038099857258843
aF-0.16272956912485953
aF0.049820696841500076
aF-0.21083230760958355
aF0.2822925024633179
aF0.7410209442371097
aF-0.3185724722809516
aF-0.18176818317520638
aF0.04301699477621329
aF0.08574135003647126
aF-0.7451900991547555
aF-0.6916217471471002
aF0.2927160163881275
aF-0.9161250521059593
aF-0.02387796861971056
aF0.21212439433808655
aF0.052026275921218154
aF-0.16510147564236177
aF0.5213277421213286
aF-1.4572070652495945
aF1.8919897255404585
aF-0.0936851437643004
aF-0.04009227125923956
aF0.13744637530225182
aF0.11342692011819114
aF-0.6495411313395109
aF0.04020478749423636
aF0.3076980014463991
aF0.25236529531009655
aa(lp138
F0.2193446467304553
aF-0.8423747624010655
aF1.0042133412928023
aF0.9695649795355991
aF-0.18978367771277782
aF0.1381205718690814
aF-0.0696319880407273
aF-0.4130935268068716
aF0.37223497046219667
aF-0.17170269926103754
aF0.07938183268839599
aF-0.22190554898147716
aF0.28618363005376135
aF0.7362970760620323
aF-0.30872095254009135
aF-0.18256408137908126
aF0.032990373230988634
aF0.08545041962356875
aF-0.8262654339251873
aF-0.6905502484975363
aF0.3133728963414487
aF-0.9442163108416856
aF-0.025236904658883307
aF0.22291146853401236
aF0.04930832339245798
aF-0.17371161214447517
aF0.5224535982889975
aF-1.4987305662968455
aF1.92500277577874
aF-0.09046186252642448
aF-0.04150816308525636
aF0.12361389587576768
aF0.11984101174883109
aF-0.6431705357369216
aF0.03986854885643307
aF0.3016682499851973
aF0.24812789129616813
aa(lp139
F0.2219784313080857
aF-0.8447193894131564
aF1.0062534135360406
aF0.9699453666915091
aF-0.19073058752613348
aF0.13813946811711456
aF-0.06119898662502839
aF-0.4256542717553984
aF0.3865186343238784
aF-0.18081322567759542
aF0.10934320234505768
aF-0.23276838968407917
aF0.29155455889008136
aF0.733868020181901
aF-0.29655664430591144
aF-0.18300010060745225
aF0.02264287917552379
aF0.08515465647839801
aF-0.9135971397232765
aF-0.689511087205029
aF0.3343347871512181
aF-0.9728582306823048
aF-0.026626786942832076
aF0.23391652433245963
aF0.04653585551326708
aF-0.1825205118342168
aF0.5232068653385252
aF-1.5367977848553254
aF1.9377384182712738
aF-0.08716110172205525
aF-0.04292388870633268
aF0.1085764031288575
aF0.1290001788155598
aF-0.6339436341876217
aF0.03966075550019679
aF0.29539902277618696
aF0.24312810444637672
aa(lp140
F0.2245014513469316
aF-0.8471681436777373
aF1.0082846948488746
aF0.9703073778156062
aF-0.19177776524823917
aF0.13783155461524185
aF-0.05222397787739794
aF-0.4397504714389019
aF0.4016308419742622
aF-0.19043929750965194
aF0.1409801321912844
aF-0.24444097925753053
aF0.2976733921319498
aF0.7317937564575377
aF-0.2828518623691404
aF-0.1834723615002707
aF0.012152274429842425
aF0.0848422166224024
aF-1.0098495165996113
aF-0.688432273008443
aF0.3564526424202108
aF-1.0031503706499991
aF-0.028092110663253355
aF0.2455276371785372
aF0.04360911251898077
aF-0.19182054635529389
aF0.5241013930950814
aF-1.5710867289082129
aF1.9407903047716784
aF-0.0836673578747617
aF-0.044410562943020856
aF0.09254769126259596
aF0.13867635186454041
aF-0.6240175876757825
aF0.0395248284397858
aF0.28918175649406164
aF0.237973859405054
aa(lp141
F0.2266793923369732
aF-0.8498881983851159
aF1.0102731292671634
aF0.970715186944492
aF-0.19304011359830311
aF0.13673490183114292
aF-0.04184623039775596
aF-0.45769035847617634
aF0.4186569024210782
aF-0.2014919080963716
aF0.17727696466471662
aF-0.25844336492501474
aF0.3058895795600912
aF0.7304227696770107
aF-0.26482893956012754
aF-0.1840801066538213
aF0.0013056161952357584
aF0.0844835465258
aF-1.1309398033323639
aF-0.6870406959431171
aF0.38184329950083135
aF-1.0379593543194359
aF-0.02976881548013794
aF0.258825554622298
aF0.04025458849662671
aF-0.20254456472466997
aF0.5251590080140772
aF-1.593409173471396
aF1.917252910830944
aF-0.07965742269044859
aF-0.04610888293191871
aF0.07389296969548843
aF0.14953362725564134
aF-0.6124066503220766
aF0.03961818062993194
aF0.28323859405830415
aF0.23243123442194993
aa(lp142
F0.22832085796743573
aF-0.8526252781860202
aF1.0120035762618567
aF0.970978543381764
aF-0.1938832731955487
aF0.13624585595521257
aF-0.03235755556650003
aF-0.4727609812619405
aF0.43121883190725585
aF-0.21239208948738975
aF0.21316855766616538
aF-0.2716280744384845
aF0.3145790827926582
aF0.7270098390042811
aF-0.24698177156857032
aF-0.18494985518857665
aF-0.008040067134475741
aF0.08412958067054568
aF-1.2514910448422563
aF-0.6848991818423035
aF0.40713425964210403
aF-1.0721199993631665
aF-0.03143043597413725
aF0.27196776743377
aF0.03694415145724494
aF-0.2133617509837334
aF0.5254018611584428
aF-1.6033258120546214
aF1.8880508470568846
aF-0.07577008906291102
aF-0.04783650602035901
aF0.05660027996946995
aF0.15894049119980747
aF-0.6031759431818262
aF0.039861677336285796
aF0.2785015483945122
aF0.22709405743612593
aa(lp143
F0.2296983888746732
aF-0.8553375484751364
aF1.0136117945757288
aF0.9711477922248446
aF-0.19455255881777633
aF0.13595605694247714
aF-0.023177965720042912
aF-0.48694777138715617
aF0.44208655812972314
aF-0.2232687883339818
aF0.24899613082138466
aF-0.28440366717050425
aF0.32334595375107544
aF0.7227367915371348
aF-0.22948946873814396
aF-0.18586568008012788
aF-0.016569587574163994
aF0.0837765071371221
aF-1.3720323662402119
aF-0.6827243847894763
aF0.4323631814794843
aF-1.1061957265412181
aF-0.03308780545901596
aF0.28507602792107334
aF0.03364206481357627
aF-0.22415310765140523
aF0.5256317263151145
aF-1.6108117313563248
aF1.855427002454833
aF-0.07189588422418075
aF-0.04956002794609905
aF0.039763891419063155
aF0.16774664490494826
aF-0.5949734866857945
aF0.04012882318849121
aF0.27424431202785243
aF0.22191165492881748
aa(lp144
F0.2312227147224142
aF-0.8581058903952621
aF1.0152904117870578
aF0.9712204846928736
aF-0.19533710473289392
aF0.1355762086198158
aF-0.013902420069402578
aF-0.5016093577200774
aF0.4532587218701945
aF-0.2341500017386456
aF0.2847648213713923
aF-0.29669432665574047
aF0.3320749187601642
aF0.7190800395278247
aF-0.21203375598060356
aF-0.18680872988655933
aF-0.02542695818039848
aF0.08342347096656723
aF-1.4931464054014978
aF-0.6808950371671324
aF0.45739789224895055
aF-1.140439433837392
aF-0.03473816145406919
aF0.2981615008262255
aF0.030340176309369173
aF-0.2348226182183713
aF0.526435064555796
aF-1.619000334987114
aF1.823135352803491
aF-0.06799241731071533
aF-0.05124463741137003
aF0.02286510568824355
aF0.17702838582293887
aF-0.5863642132913319
aF0.0403821438102916
aF0.26969999369087627
aF0.21658418798952525
aa(lp145
F0.23257030262420503
aF-0.8608024570912393
aF1.0168821401934576
aF0.9712274869135182
aF-0.1959455319119813
aF0.1352774947854904
aF-0.004745165112398273
aF-0.5156967697799513
aF0.46407013972004096
aF-0.2450206599105725
aF0.3205838476222421
aF-0.30954548956286626
aF0.3408371797359262
aF0.7146968044873171
aF-0.19456732719529077
aF-0.18768430407413383
aF-0.03387646816487912
aF0.08307057299948431
aF-1.6135426437423985
aF-0.6786209430890219
aF0.482649314374155
aF-1.174459280221148
aF-0.036395721821497924
aF0.3112671378716316
aF0.027039765903123195
aF-0.2456319055358802
aF0.5265598198517663
aF-1.626378355912658
aF1.7904413871606855
aF-0.06412820575495043
aF-0.052974198000827186
aF0.006051178092160379
aF0.18572707317288592
aF-0.5782649435996983
aF0.04063149560698146
aF0.2654820730400478
aF0.2114390979108174
aa(lp146
F0.23383011671004708
aF-0.8634726564365778
aF1.0184354397933215
aF0.9711613227806317
aF-0.1964607937563188
aF0.13501777514778301
aF0.004363719256921002
aF-0.5294992345499752
aF0.47468291346714214
aF-0.2558920559102901
aF0.35645635585268565
aF-0.32272242417766406
aF0.349641062323749
aF0.7099203319795861
aF-0.17702354283438387
aF-0.18861257975175763
aF-0.042152793611786865
aF0.08271750821498139
aF-1.7335806482540512
aF-0.6762013590829419
aF0.508034106947877
aF-1.2084015135420378
aF-0.03805887332993961
aF0.32439257932777465
aF0.023737878106199584
aF-0.2565204022732602
aF0.526321177463697
aF-1.633264789207663
aF1.7575759516137863
aF-0.06027570213750593
aF-0.054729511605625863
aF-0.010734703462113384
aF0.19415957705401835
aF-0.5703712671311991
aF0.040930093016894036
aF0.2614752758447235
aF0.2063677011916938
aa(lp147
F0.23481029240218973
aF-0.865992094303987
aF1.0198571774951932
aF0.9710335455459855
aF-0.1965806253379119
aF0.13519112710794667
aF0.013163218353850602
aF-0.5420090423919245
aF0.4838491611434965
aF-0.2669679378941092
aF0.39296102564970947
aF-0.33646378723932946
aF0.3581197610297069
aF0.7042251615152398
aF-0.16000322570342088
aF-0.1898684149118963
aF-0.04981080124070634
aF0.08235854008726244
aF-1.8565182612361382
aF-0.6739392204980615
aF0.5336843441409956
aF-1.2430333781008627
aF-0.03974371973988591
aF0.3377207391475096
aF0.02038043625200995
aF-0.267507451418595
aF0.52654713215567
aF-1.63085286714841
aF1.7196768453976015
aF-0.05634100444662806
aF-0.05648245822974093
aF-0.027169542280168872
aF0.20134034702670334
aF-0.5641362298705229
aF0.04117303409181897
aF0.25782495828316737
aF0.20164523748490967
aa(lp148
F0.23547438413200453
aF-0.8685007325173777
aF1.0211582365806549
aF0.9708449415413953
aF-0.19638269692943083
aF0.13572801228117956
aF0.021721936203016108
aF-0.5530742101195241
aF0.49126413370419947
aF-0.27827891152449213
aF0.4301416698571947
aF-0.35068098000079645
aF0.3666420918005226
aF0.6972777986547289
aF-0.14338566668793445
aF-0.19152944086891383
aF-0.056494099598287294
aF0.08199318598655185
aF-1.9828261178997504
aF-0.6718801345994023
aF0.5595473842929624
aF-1.2783401573845876
aF-0.04144742852499309
aF0.3512747037339937
aF0.01696200898210848
aF-0.2788186864555317
aF0.5273482656501399
aF-1.6189613316327944
aF1.6763929933645718
aF-0.05231756406119341
aF-0.05823757426595998
aF-0.0433434316967779
aF0.20763989894528506
aF-0.5593800975126145
aF0.0414905756833879
aF0.2546320725088541
aF0.19705283005132726
aa(lp149
F0.23603989156735247
aF-0.8709210648467323
aF1.0224037516631967
aF0.9705982928562955
aF-0.19604265631346368
aF0.13636545579087017
aF0.03017769502387735
aF-0.5638211164576586
aF0.4985116384794053
aF-0.28958460682846643
aF0.4673769244942224
aF-0.3653458449422363
aF0.37502389864157226
aF0.689884857163692
aF-0.12679629619983043
aF-0.19322283646735994
aF-0.06307823037695498
aF0.08162774637829505
aF-2.1085694497537575
aF-0.6695480037801268
aF0.5856003731173797
aF-1.3135187898286633
aF-0.043158568565856446
aF0.3648495869797908
aF0.013543173198183952
aF-0.2901647592444682
aF0.5276841473806156
aF-1.6063661038200772
aF1.6328553108320634
aF-0.048315023806712196
aF-0.060022380292391125
aF-0.05942223189020107
aF0.213443007117504
aF-0.5549552354391437
aF0.04185475184100304
aF0.25172069808295233
aF0.1926475891773344
aa(lp150
F0.23654934921177406
aF-0.8732625117873644
aF1.0236131103673871
aF0.9702929966808604
aF-0.19559435272838296
aF0.13706883199109465
aF0.038554961670807936
aF-0.5743780150451012
aF0.5056988358739858
aF-0.3008765465950533
aF0.5046204250110005
aF-0.3802874517930643
aF0.3832656991720824
aF0.6823209529461338
aF-0.11024581896643912
aF-0.19491887663047613
aF-0.06964764202413931
aF0.08126250082834245
aF-2.2338539844165184
aF-0.6670808870802186
aF0.6117584582459634
aF-1.3486259790618023
aF-0.04487391780714392
aF0.3784255185001749
aF0.010126555110054863
aF-0.3014810103961475
aF0.527732598774944
aF-1.593284717129297
aF1.5892133710519634
aF-0.04432612480110632
aF-0.061822150477775006
aF-0.07542334148667094
aF0.21887453457918102
aF-0.5507983744872766
aF0.04219840247451605
aF0.24893378017436196
aF0.18840121226483397
aa(lp151
F0.23701747971105255
aF-0.8755275042209697
aF1.024791690295581
aF0.9699281947619683
aF-0.1950527364023121
aF0.13783112843802806
aF0.046864774204716714
aF-0.5848281129609857
aF0.5128618704321188
aF-0.3121628085204899
aF0.5418966754459792
aF-0.3954507689703777
aF0.39136552581587497
aF0.6746809890514657
aF-0.09371033290773409
aF-0.19662249632428094
aF-0.07625895836340199
aF0.08089714667823665
aF-2.3588775284839976
aF-0.6645424512000673
aF0.6380145848645694
aF-1.383745594123214
aF-0.046594324674507206
aF0.3920079418270239
aF0.006709361115664197
aF-0.31274102787853975
aF0.5275568740769012
aF-1.5797549234698596
aF1.5454879018034913
aF-0.04034249918790711
aF-0.06363302856454542
aF-0.0913604353685396
aF0.22397635955672252
aF-0.5468678951456161
aF0.04252270233507549
aF0.24624277206595846
aF0.18430712228009444
aa(lp152
F0.23745890188453844
aF-0.8777182734817514
aF1.025943707754913
aF0.9695029243644481
aF-0.19443541901034486
aF0.13864325924272605
aF0.05510892985360192
aF-0.5952408357305543
aF0.5200240382306609
aF-0.3234383676079518
aF0.5791849067433573
aF-0.4107513671103823
aF0.3993183027667984
aF0.6670540608590517
aF-0.07719203152900407
aF-0.1983218746300303
aF-0.08295348462772277
aF0.08053182126646334
aF-2.4837043275650506
aF-0.6619762499758913
aF0.6643273112668748
aF-1.4189100023466512
aF-0.04831824053881173
aF0.40558629454275613
aF0.003292886593361066
aF-0.32390890295896574
aF0.5272252340333197
aF-1.5658461536198063
aF1.501742942888723
aF-0.036361463231875356
aF-0.06544911640273461
aF-0.10722877579166067
aF0.22879178392363086
aF-0.543122740061103
aF0.04282893701415131
aF0.2436212285219369
aF0.1803596627373316
aa(lp153
F0.23787371819812939
aF-0.8797544134153152
aF1.0270420981901374
aF0.9690210300192069
aF-0.19372345781057956
aF0.13954028739950952
aF0.06322953002268951
aF-0.6057753547306158
aF0.527260877126882
aF-0.33470573941727555
aF0.6165176478055594
aF-0.4261550743360152
aF0.4069508165636681
aF0.6594543547286237
aF-0.060721832060038984
aF-0.200034423445272
aF-0.08988961030557534
aF0.08016621004721795
aF-2.6084457963146073
aF-0.6593550035934314
aF0.6907257286460542
aF-1.454205695532944
aF-0.05004820932028299
aF0.4191654074216456
aF-0.00012546640773445565
aF-0.33488392669633493
aF0.52673228075153
aF-1.5513924540671784
aF1.4579575796425988
aF-0.03237857773667542
aF-0.06726839368824272
aF-0.12297214805489327
aF0.23309674433458943
aF-0.5395897779560028
aF0.04312457393541106
aF0.24107678609560626
aF0.17655373214106643
aa(lp154
F0.23838568390215753
aF-0.8818087906464769
aF1.028158514322658
aF0.9684670954974453
aF-0.19309890993848444
aF0.14029274914527104
aF0.07142996889663017
aF-0.6164087582514332
aF0.535203541205886
aF-0.3459136337415112
aF0.6534965548284539
aF-0.4416790276385789
aF0.4143746373069553
aF0.6524031069036429
aF-0.04476076141069141
aF-0.20168515353852523
aF-0.09663098403048476
aF0.07980333715321894
aF-2.73241525528954
aF-0.6569387125481136
aF0.7167187227316978
aF-1.4891613429721193
aF-0.051754185528391075
aF0.4326488644024715
aF-0.0035203321105672287
aF-0.3460335720092792
aF0.5267669427153399
aF-1.5356423662586085
aF1.4148156533018788
aF-0.02841162098208771
aF-0.06905356438694672
aF-0.13885637998977363
aF0.2376163635647619
aF-0.5356893861403692
aF0.04343309620482538
aF0.23837093410093857
aF0.17307800094386808
aa(lp155
F0.238720659190604
aF-0.8830338692095215
aF1.0288487840798048
aF0.9680785390228568
aF-0.19262931934694694
aF0.14081467989913266
aF0.07674055991591434
aF-0.6233870358184125
aF0.5407740644740667
aF-0.3532278630407046
aF0.6776243806412758
aF-0.4521690268946226
aF0.41888004898102355
aF0.6479757570320538
aF-0.034583802594779715
aF-0.2027491526853621
aF-0.10108515126855097
aF0.07956645717869758
aF-2.8130810097293883
aF-0.655357336993504
aF0.7336889655271394
aF-1.5119797524917549
aF-0.052868129409902445
aF0.44145242362012627
aF-0.005736848287949061
aF-0.3533118154516062
aF0.5267843456942928
aF-1.5240117331458816
aF1.386741516553448
aF-0.025821926856870715
aF-0.07021933437039485
aF-0.1492376595507556
aF0.24018111686737076
aF-0.53322881606401
aF0.0436311527269526
aF0.23664687183969227
aF0.17116012102672581
aa(lp156
F0.23913653478712754
aF-0.8839251921364512
aF1.0290930885443208
aF0.9678370885066809
aF-0.1936161404089808
aF0.1405439161836183
aF0.07779182417075155
aF-0.6266159100593113
aF0.5388812511844515
aF-0.3535650141593264
aF0.6768709861867915
aF-0.447551640833709
aF0.4200347316653812
aF0.6492602381218435
aF-0.03533254431945195
aF-0.2021974594215068
aF-0.1004154448524299
aF0.07956748315722072
aF-2.81859181182478
aF-0.6563317390350945
aF0.7318363100186762
aF-1.509828724706956
aF-0.05274456893847084
aF0.4415512481898411
aF-0.005740993831979428
aF-0.35548201527092604
aF0.5310194809605752
aF-1.5214122512637354
aF1.3871397100951006
aF-0.027293174981979015
aF-0.0725452483200649
aF-0.15082501751869495
aF0.24383415376952966
aF-0.5310049612653509
aF0.043073925312897124
aF0.2359844923173343
aF0.16966372358846893
aa(lp157
F0.23955239938717085
aF-0.8848164914952392
aF1.029337386548998
aF0.9675935049748563
aF-0.19460250739004892
aF0.14027284895580078
aF0.07884288866982168
aF-0.6298446989231116
aF0.5369884879441398
aF-0.3539021563630812
aF0.6761176116533782
aF-0.4429343768645819
aF0.4211893838179033
aF0.6505446852477001
aF-0.03608126624607966
aF-0.20164578074538914
aF-0.09974575614452114
aF0.07956850910861518
aF-2.824102468204898
aF-0.6573061153117856
aF0.7299837034976744
aF-1.5076777537991046
aF-0.05262101173419484
aF0.44165007014646096
aF-0.005745139266394339
aF-0.35765215770635606
aF0.5352545042424526
aF-1.51881283811645
aF1.3875378931078175
aF-0.028764384204706228
aF-0.07487110076849032
aF-0.15241233351410532
aF0.24748709407898523
aF-0.5287811652693135
aF0.04251671263291188
aF0.23532213030945276
aF0.16816736571758512
aa(lp158
F0.23996831802046942
aF-0.8857079066604838
aF1.0295817162952963
aF0.9673477505440993
aF-0.1955885722833897
aF0.14000143637935897
aF0.07989391541996603
aF-0.6330739073031986
aF0.535095478777247
aF-0.3542393423716964
aF0.6753641392340701
aF-0.4383165129747053
aF0.42234418599429
aF0.6518292992616723
aF-0.036830085454089244
aF-0.20109403038970386
aF-0.0990759804240105
aF0.07956953519331143
aF-2.829613840584172
aF-0.6582806181891112
aF0.728130856267651
aF-1.50552650341577
aF-0.052497438476140856
aF0.44174890494301006
aF-0.0057492852394252225
aF-0.35982258210822443
aF0.5394900777805764
aF-1.516213087227616
aF1.3879361278564226
aF-0.03023578458153371
aF-0.07719725541474409
aF-0.15399985574935995
aF0.25114050901469204
aF-0.5265570803356346
aF0.04195942755432632
aF0.23465968224092687
aF0.1666708134250391
aa(lp159
F0.2403841386345917
aF-0.8865991117467054
aF1.0298259884606193
aF0.9670999159402984
aF-0.19657397249032563
aF0.13972977832690167
aF0.08094451788944886
aF-0.6363023546586046
aF0.5332029157341491
aF-0.35457644891598344
aF0.6746108443849402
aF-0.43369973737272477
aF0.4234987160194699
aF0.6531136105317966
aF-0.037578728188538794
aF-0.20054241006453655
aF-0.09840636254895115
aF0.07957056103619121
aF-2.835123914103195
aF-0.6592548914062059
aF0.7262784456964942
aF-1.5033757600157096
aF-0.05237389434048725
aF0.44184771644725007
aF-0.005753430235378311
aF-0.3619924950080949
aF0.5437246531248333
aF-1.513613949019773
aF1.3883342687533968
aF-0.03170683819473659
aF-0.07952286185819105
aF-0.15558700385465435
aF0.25479306295333426
aF-0.5243335195500839
aF0.041402273810622024
aF0.233997390290951
aF0.16517461382364743
aa(lp160
F0.24080002547843227
aF-0.887490458779381
aF1.0300702995323272
aF0.9668499040620389
aF-0.19755909511438435
aF0.13945776812973223
aF0.08199510876317775
aF-0.6395313162241084
aF0.5313100512535739
aF-0.354913609152826
aF0.6738574295549727
aF-0.4290822264350326
aF0.42465342993211386
aF0.6543981263602585
aF-0.03832749016286166
aF-0.19999070188018805
aF-0.09773663802068203
aF0.07957158704246185
aF-2.8406348652377194
aF-0.6602293198004093
aF0.7244257400831344
aF-1.5012246740565633
aF-0.052250330527374135
aF0.44194654368966624
aF-0.005757575891524532
aF-0.36416275352026795
aF0.547959902929957
aF-1.51101439683488
aF1.3887324730641568
aF-0.03317812610961424
aF-0.08184883871198856
aF-0.15717440475254302
aF0.258446198651538
aF-0.5221096046074777
aF0.04084503132640272
aF0.23333499285460016
aF0.16367817591546033
aa(lp161
F0.24121591807134973
aF-0.888381818133732
aF1.0303146139813069
aF0.9665977512651532
aF-0.1985437946028391
aF0.13918544586625534
aF0.08304553288929084
aF-0.6427603224256677
aF0.5294171606066901
aF-0.3552507740504559
aF0.6731040043100573
aF-0.4244646516664551
aF0.4258081598071264
aF0.655682659945426
aF-0.03907626248781289
aF-0.19943898606921506
aF-0.09706690423437106
aF0.07957261306291565
aF-2.8461458925537393
aF-0.6612037616647761
aF0.7225730088586085
aF-1.4990735583615435
aF-0.0521267650061573
aF0.44204537229823626
aF-0.00576172160497888
aF-0.36633304203334927
aF0.5521952112817192
aF-1.5084148087146705
aF1.3891306828795564
aF-0.03464943436307069
aF-0.08417484771929121
aF-0.1587618275941165
aF0.26209938484943496
aF-0.5198856589222351
aF0.04028778113905469
aF0.2326725862614947
aF0.1621817173210296
aa(lp162
F0.24163177387824258
aF-0.8892730986466519
aF1.030558906820483
aF0.9663434841349987
aF-0.19952796811860563
aF0.1389128400244763
aF0.08409568053489043
aF-0.6459890430191073
aF0.5275244373874619
aF-0.3555879091255873
aF0.6723506457061932
aF-0.4198474853259714
aF0.4269627875453798
aF0.6569670799125948
aF-0.03982496858326731
aF-0.19888731905793636
aF-0.09639722968653644
aF0.07957363899261713
aF-2.8516564324150897
aF-0.6621781173389992
aF0.720720441509606
aF-1.4969226329343868
aF-0.05200321041440731
aF0.4421441921653387
aF-0.005765866951741637
aF-0.368503138582717
aF0.5564301450171507
aF-1.50581545053006
aF1.3895288574729872
aF-0.03612061247816328
aF-0.08650065098928095
aF-0.16034911002690008
aF0.26575224792016017
aF-0.5176619099467248
aF0.03973058024092086
aF0.2320102382587696
aF0.16068539108953
aa(lp163
F0.24204768918259845
aF-0.8901645066771597
aF1.030803234611207
aF0.9660870441880159
aF-0.20051184131632743
aF0.13863988806523872
aF0.08514579250471807
aF-0.6492182255531544
aF0.5256314433718956
aF-0.3559250924354225
aF0.6715971793175514
aF-0.4152296583966994
aF0.4281175804789245
aF0.6582516836447327
aF-0.04057378179785411
aF-0.19833557311836794
aF-0.09572745932679783
aF0.07957466506910077
aF-2.857167760682268
aF-0.6631526124165679
aF0.7188676091094596
aF-1.4947713997692975
aF-0.05187963814541287
aF0.44224302617083067
aF-0.00577001289158885
aF-0.370673545612874
aF0.5606656846544578
aF-1.503215720449194
aF1.389927089034188
aF-0.03759200107815003
aF-0.08882678701738479
aF-0.16193661955589417
aF0.2694056336145493
aF-0.5154378428142472
aF0.039173299622751186
aF0.23134779549236645
aF0.1591888507751364
aaa(lp164
(lp165
F0.24227733341402943
aF-0.890656690325882
aF1.030938138201266
aF0.9659445376446543
aF-0.20105488902084453
aF0.1384890484861472
aF0.0857255227144908
aF-0.6510011922615567
aF0.5245862422185469
aF-0.356111265440425
aF0.6711811590174649
aF-0.4126799630502004
aF0.42875518994630507
aF0.6589609670821794
aF-0.04098723288596795
aF-0.19803093111334827
aF-0.09535765110409819
aF0.07957523160883376
aF-2.8602107954800373
aF-0.6636906718983367
aF0.7178445828633805
aF-1.4935836139829806
aF-0.05181140872840847
aF0.4422975965581012
aF-0.005772302038344935
aF-0.37187191809186876
aF0.5630043032013542
aF-1.5017803007613488
aF1.3901469693315605
aF-0.03840441625172374
aF-0.09011114398810284
aF-0.1628131499500805
aF0.2714228206262372
aF-0.5142098423489128
aF0.038865601690237866
aF0.23098203314035765
aF0.1583625482882957
aa(lp166
F0.24272579480199452
aF-0.8904406828152658
aF1.0310522771482356
aF0.9659441252775731
aF-0.20073665318742379
aF0.13898168688978213
aF0.08567866489463176
aF-0.6504587965059624
aF0.5251893016979634
aF-0.3560396880050289
aF0.6712785159851844
aF-0.41287739213744323
aF0.4278570425134852
aF0.6589290409238531
aF-0.041468768231123596
aF-0.1980039122076621
aF-0.0968586904776729
aF0.07957491513250005
aF-2.8594021000325194
aF-0.663215280188663
aF0.71820893420445
aF-1.4939706677984486
aF-0.05183477463277124
aF0.44227263918639853
aF-0.005771590344939752
aF-0.3715448196469124
aF0.5617330335966939
aF-1.502632976902852
aF1.3909616676718168
aF-0.03958576500942988
aF-0.08916133009382737
aF-0.16281080215072724
aF0.27055711097283985
aF-0.5143654544925088
aF0.03865453131337176
aF0.2303137623558922
aF0.1586832208150854
aa(lp167
F0.24317425618995964
aF-0.8902246753046499
aF1.0311664160952052
aF0.96594337853689
aF-0.20041834786650786
aF0.13947427718317337
aF0.08563177741603467
aF-0.6499164007503682
aF0.5257923611773802
aF-0.35596811056963285
aF0.6713758729529038
aF-0.4130748212246862
aF0.4269588950806654
aF0.6588971147655267
aF-0.04195030357627924
aF-0.19797689330197596
aF-0.09835972985124758
aF0.07957459865616635
aF-2.8585934045850023
aF-0.6627398884789893
aF0.7185732855455196
aF-1.4943577216139166
aF-0.051858140537134
aF0.44224768181469587
aF-0.0057708786515345695
aF-0.37121772120195595
aF0.5604617639920336
aF-1.503485653044355
aF1.3917763660120732
aF-0.040767113767136015
aF-0.08821151619955189
aF-0.16280845435137398
aF0.2696914013194426
aF-0.5145210666361049
aF0.03844346093650565
aF0.22964549157142677
aF0.15900389334187512
aa(lp168
F0.24346762157990112
aF-0.8900833718852634
aF1.0312410812003487
aF0.9659427091390248
aF-0.2002100877940577
aF0.13979648381560403
aF0.08560108947583953
aF-0.649561587277876
aF0.5261868584163503
aF-0.35592128749230784
aF0.6714395599626777
aF-0.4132039713872623
aF0.4263713631795363
aF0.6588762299577414
aF-0.0422653046178253
aF-0.19795921862135654
aF-0.09934164939429765
aF0.07957439163008666
aF-2.858064388572316
aF-0.6624289063565011
aF0.7188116295281165
aF-1.494610916641516
aF-0.051873425571316814
aF0.442231355706634
aF-0.005770413090353755
aF-0.3710037465646091
aF0.5596301505838331
aF-1.5040434394568727
aF1.3923093088755791
aF-0.04153990457647173
aF-0.08759018617885529
aF-0.16280691851553333
aF0.26912508890802755
aF-0.5146228618372319
aF0.03830538719130455
aF0.22920833572137514
aF0.15921366440219323
aa(lp169
F0.24479138065227865
aF-0.8903865642509285
aF1.0317416489672464
aF0.9655426442395569
aF-0.2001269056707847
aF0.14234588994650185
aF0.08610616352421668
aF-0.6490630476095184
aF0.5281936533414053
aF-0.35590582422458994
aF0.6714545323078501
aF-0.32978674239915595
aF0.3955695511741567
aF0.5761864773255804
aF-0.10310181425486487
aF-0.17309459056646004
aF-0.08691053322432998
aF0.07957401534708963
aF-2.8577018788223985
aF-0.6622611446296269
aF0.7189627987080043
aF-1.494574961327071
aF-0.05188123223751671
aF0.442238143119474
aF-0.005770196235963891
aF-0.37022282663020634
aF0.5610028336350217
aF-1.5074260860930697
aF1.393955512684889
aF-0.045147175123099195
aF-0.08755659531174351
aF-0.1633302972235061
aF0.27032445196902266
aF-0.5166332440733954
aF0.036762864408816376
aF0.22841298269886584
aF0.1586301451638743
aa(lp170
F0.24521668175024167
aF-0.8907218730534896
aF1.0319436386822531
aF0.9651268408751288
aF-0.2004787044355583
aF0.14452590304674748
aF0.08631763110023331
aF-0.648478681747836
aF0.5318005624102988
aF-0.3558799951383495
aF0.6715285920440704
aF-0.24653748108654033
aF0.36442885126923863
aF0.49347370524374556
aF-0.16391523758987053
aF-0.14822748563147262
aF-0.07447275413762615
aF0.07957365356820588
aF-2.8570220848136474
aF-0.6622358293253091
aF0.7191635701428086
aF-1.4946707257160092
aF-0.05189345844953835
aF0.4422414934860441
aF-0.005769780297244457
aF-0.3689033364810014
aF0.5636870234947742
aF-1.511141851627958
aF1.394303848223305
aF-0.04646524288223338
aF-0.0881564824614827
aF-0.16330773156177067
aF0.2720480326396471
aF-0.5192893309955826
aF0.03535113982392568
aF0.22790754185902865
aF0.15803426751969799
aa(lp171
F0.24636706479249967
aF-0.8910263173770395
aF1.0323696411155696
aF0.9646760547014847
aF-0.20058959334729357
aF0.14710675038332907
aF0.08673827596858666
aF-0.6478953880407692
aF0.5347906255993334
aF-0.3558574915139121
aF0.6715674152295533
aF-0.1631457883213626
aF0.33345465203698116
aF0.4107898428496645
aF-0.22472606550811772
aF-0.12336124048199683
aF-0.06203631024623084
aF0.0795732907039419
aF-2.85648311025033
aF-0.6620829267591775
aF0.7193606254284352
aF-1.4946797426156826
aF-0.0519043338954423
aF0.4422477931002607
aF-0.005769451331523256
aF-0.3678834657813275
aF0.5655866453047245
aF-1.5148485645872345
aF1.3958116292241314
aF-0.049714748904930196
aF-0.08819203602952985
aF-0.16369681870575797
aF0.27347957539171824
aF-0.5213401964044814
aF0.03369385904393158
aF0.2261659978181426
aF0.1574107420900788
aa(lp172
F0.24668182486144818
aF-0.8913634299626175
aF1.0325267295234688
aF0.9642363342691243
aF-0.20104829528249743
aF0.1492411971125432
aF0.08691915625256948
aF-0.647272366215182
aF0.5389835619031403
aF-0.35582824112212197
aF0.6716578595843296
aF-0.07985433377555434
aF0.3021543176975411
aF0.32809674785912535
aF-0.2854866925976583
aF-0.0984978186842324
aF-0.04959449274062697
aF0.07957296211097106
aF-2.8557093986357494
aF-0.6620897054065755
aF0.7195788686859554
aF-1.4948118742488674
aF-0.05191797785444205
aF0.442250202345373
aF-0.005768975514592841
aF-0.36650881679938097
aF0.5685616718149058
aF-1.5186243439661746
aF1.3960173830165103
aF-0.05062437910825469
aF-0.08895733082951321
aF-0.1635377727699416
aF0.2754588634557563
aF-0.5243342473227389
aF0.03248352744870853
aF0.2260647616280522
aF0.15683410024344538
aa(lp173
F0.2465833122783544
aF-0.891716863152678
aF1.0325533194627168
aF0.9638110982380453
aF-0.20165763186300997
aF0.15112042597386094
aF0.08697691232766465
aF-0.6466487912602412
aF0.5436292788234675
aF-0.35579678050243335
aF0.6717702010159082
aF0.0033817237380736036
aF0.2707149234080102
aF0.24537984647986022
aF-0.3462437436076488
aF-0.0736324575602213
aF-0.03715000778380392
aF0.07957265544713495
aF-2.8548419141102106
aF-0.6621730659707543
aF0.7198019511120854
aF-1.4949954940919006
aF-0.05193257416261251
aF0.44225104880107535
aF-0.005768442768390292
aF-0.3649769402890268
aF0.5720021851087371
aF-1.5223603340236591
aF1.3955710646841974
aF-0.05038068756013688
aF-0.09007527026830045
aF-0.16311656828748167
aF0.27764790053597116
aF-0.5276811621631147
aF0.03145672039326296
aF0.22661179456591068
aF0.15626696699332668
aa(lp174
F0.24605120112324938
aF-0.89209170148205
aF1.0324440245697704
aF0.9634018657165474
aF-0.2024241857965873
aF0.1527382910755246
aF0.0869040193419885
aF-0.6460209498856857
aF0.5487327478505163
aF-0.35576254269663854
aF0.6719062051666835
aF0.08646711807103517
aF0.2391860012690262
aF0.16265027135104046
aF-0.4070089415824585
aF-0.048770312091080806
aF-0.02470830580225025
aF0.07957234751916888
aF-2.8538656495268304
aF-0.6623330626511269
aF0.7200341714018829
aF-1.4952334018233053
aF-0.0519483931776801
aF0.44225035656729605
aF-0.005767843702179454
aF-0.36326785024370806
aF0.5759447515153252
aF-1.5260641253272575
aF1.3944331703562551
aF-0.04892859313076498
aF-0.09157542990616452
aF-0.1624153143480718
aF0.28006223201736175
aF-0.5314082295440605
aF0.030613225289758884
aF0.22784352389127738
aF0.1557019338578246
aa(lp175
F0.24481939349490983
aF-0.8925094116075445
aF1.0321146927652696
aF0.963002226382625
aF-0.20347207107186321
aF0.15402064783442143
aF0.08662256239859893
aF-0.6453457650183834
aF0.5547431809011488
aF-0.3557209291504135
aF0.6720868114635808
aF0.16917885217326054
aF0.20758839645049296
aF0.07988315352401101
aF-0.467843014862464
aF-0.023905170171809438
aF-0.012271510467108365
aF0.07957196834866158
aF-2.8526553657505698
aF-0.662606352252286
aF0.7203008096878669
aF-1.4955715175857014
aF-0.0519673973120379
aF0.44224698672173174
aF-0.005767098068346542
aF-0.3611959977350526
aF0.5808314602191182
aF-1.5298948737542262
aF1.392168437754524
aF-0.045523419451780435
aF-0.09372389611873418
aF-0.16124150660771505
aF0.28292537578843563
aF-0.5359004971681888
aF0.03001755224168753
aF0.2302278539352137
aF0.1551296445749917
aa(lp176
F0.2440106353539504
aF-0.8928962658689843
aF1.0319160776347647
aF0.962595385533103
aF-0.20434231786214313
aF0.15549435116119756
aF0.08646298420747509
aF-0.6446934186392652
aF0.5601212306224457
aF-0.3556827129876309
aF0.6722407793598759
aF0.24882145944298542
aF0.17731344797945206
aF0.00025476567068459933
aF-0.526393665644667
aF2.357398689489751e-05
aF-0.00030480596832921874
aF0.07957157596569744
aF-2.8515729643759573
aF-0.6627973986526923
aF0.7205545260332838
aF-1.4958499273721941
aF-0.05198489879506858
aF0.44224519446738453
aF-0.005766430230064098
aF-0.35933706907452134
aF0.5851162309363346
aF-1.5336355578433656
aF1.3905803654877829
aF-0.043296642193750366
aF-0.09546921421413637
aF-0.160350668473269
aF0.285488396295538
aF-0.5398996773174353
aF0.029256321384159917
aF0.23188696856186009
aF0.15456762325787016
aa(lp177
F0.24343570237040396
aF-0.8929102416093173
aF1.0317347410337334
aF0.9626988622017548
aF-0.20444017845395807
aF0.15483100015570844
aF0.08626978346990112
aF-0.6448295564310353
aF0.5599661375581858
aF-0.3556877846725085
aF0.6722506802225572
aF0.24883345525131106
aF0.17718837919802682
aF0.00023475883606738427
aF-0.5263697879317517
aF2.316935658592594e-05
aF-0.00030201882100074865
aF0.07957160223760226
aF-2.851600144800497
aF-0.6629177100896323
aF0.7205125591140991
aF-1.4958736446020908
aF-0.051983030453682785
aF0.44224448656313425
aF-0.005766460456756764
aF-0.3593474948341421
aF0.5853178790862101
aF-1.5329074415389432
aF1.3896592237809307
aF-0.04171017898639369
aF-0.09591705657973584
aF-0.1600259700429801
aF0.28547497143373124
aF-0.5398788045157838
aF0.029679730578831602
aF0.23272605235279986
aF0.1545868227888102
aa(lp178
F0.24286076938685758
aF-0.8929242173496506
aF1.0315534044327022
aF0.9628018597879409
aF-0.20453793730710002
aF0.15416757209931561
aF0.08607653980058368
aF-0.6449656942228054
aF0.5598110444939258
aF-0.3556928563573861
aF0.6722605810852385
aF0.24884545105963665
aF0.17706331041660156
aF0.00021475200145016921
aF-0.5263459102188365
aF2.276472627695437e-05
aF-0.0002992316736722786
aF0.07957162850950708
aF-2.851627325225037
aF-0.6630380215265723
aF0.7204705921949144
aF-1.4958973618319873
aF-0.05198116211229699
aF0.442243778658884
aF-0.005766490683449428
aF-0.35935792059376265
aF0.5855195272360858
aF-1.5321793252345206
aF1.3887380820740782
aF-0.04012371577903701
aF-0.0963648989453353
aF-0.15970127161269124
aF0.28546154657192435
aF-0.5398579317141323
aF0.030103139773503283
aF0.23356513614373964
aF0.1546060223197502
aaa(lp179
(lp180
F0.2424846783503171
aF-0.8929333595467741
aF1.0314347835287074
aF0.9628689761909398
aF-0.20460183096034953
aF0.15373355069376574
aF0.08595010673507866
aF-0.6450547484337906
aF0.5597095907367629
aF-0.3556961739879226
aF0.6722670577108887
aF0.24885329808897125
aF0.17698149697226767
aF0.0002016645784210196
aF-0.5263302906700238
aF2.2500038327798747e-05
aF-0.00029740846791134003
aF0.0795716456952108
aF-2.851645105234762
aF-0.6631167229653858
aF0.7204431396350712
aF-1.495912876401217
aF-0.051979939941246604
aF0.4422433155850113
aF-0.005766510456168163
aF-0.35936474057949086
aF0.5856514348911926
aF-1.5317030296948855
aF1.388135519428961
aF-0.03908593466512743
aF-0.0966578539580154
aF-0.1594888709108613
aF0.2854527647306718
aF-0.5398442778208382
aF0.030380111885839924
aF0.23411402079936042
aF0.15461858164700915
aa(lp181
F0.24208383300424913
aF-0.8927538833178356
aF1.0312547194022
aF0.9629135100980384
aF-0.20477723356994215
aF0.15326938557860875
aF0.08586240228686856
aF-0.6451503135320026
aF0.559069030235869
aF-0.35570244505336146
aF0.6722641955588903
aF0.2490297972108464
aF0.17689637146329304
aF0.00019091555631337256
aF-0.5262630514913043
aF2.1916797567001963e-05
aF-0.0002898309089584745
aF0.07957167680022557
aF-2.851788026160078
aF-0.6632019946766861
aF0.7203780540575192
aF-1.495937967857016
aF-0.05197670420412261
aF0.44224001309475536
aF-0.005766595255212756
aF-0.3595850991728227
aF0.5855565509211159
aF-1.531376452215818
aF1.3877229675513951
aF-0.037880189225871524
aF-0.09650853405557855
aF-0.15942958660857492
aF0.2853427697770667
aF-0.5397841787905748
aF0.030730534114063745
aF0.23467931447253051
aF0.15506698991719403
aa(lp182
F0.2418214018778236
aF-0.8926348531356658
aF1.0311403744357432
aF0.9629409662330881
aF-0.20486987526384506
aF0.1530007276025171
aF0.08581262793181116
aF-0.6452190485633553
aF0.5585887158893476
aF-0.3557070213247828
aF0.6722627349020054
aF0.24915968163151414
aF0.17683221610338687
aF0.00018278843455477142
aF-0.5262118317885213
aF2.1474838068815312e-05
aF-0.00028405046185942445
aF0.07957169804259903
aF-2.851894634241939
aF-0.6632680600227141
aF0.7203287999935798
aF-1.49595991942639
aF-0.051974288281690185
aF0.44223731674521055
aF-0.0057666576139422865
aF-0.35971821843385576
aF0.5854660476232104
aF-1.531230287461375
aF1.3874224871684848
aF-0.037080344642993625
aF-0.09640346737539801
aF-0.15940739782801414
aF0.28523451684971146
aF-0.5398086527420173
aF0.03095089147322138
aF0.2350505016362882
aF0.15535640965646494
aa(lp183
F0.24169386398039516
aF-0.8925741844073689
aF1.0310902114525249
aF0.9629518639832031
aF-0.20488145800287805
aF0.15292390855791038
aF0.08579961543772283
aF-0.6452618201084419
aF0.558267572867006
aF-0.35570993410766755
aF0.6722627112293219
aF0.24924314256503222
aF0.1767883602904132
aF0.00017717672032208198
aF-0.5261764981610068
aF2.1171925999427756e-05
aF-0.00028005179297780985
aF0.07957170961786977
aF-2.851965145382327
aF-0.6633155329843547
aF0.7202951415640461
aF-1.4959788046680977
aF-0.05197268093308377
aF0.44223522567869583
aF-0.005766697747598082
aF-0.35976546358408745
aF0.5853784032100203
aF-1.5312632318000552
aF1.3872315164024989
aF-0.03667592938503732
aF-0.09634004363106546
aF-0.15942137011567742
aF0.2851265465691949
aF-0.5399170858321701
aF0.031042044148567673
aF0.2352288585222225
aF0.15546890613186656
aa(lp184
F0.24123121240866421
aF-0.8923666299420772
aF1.0308810702410738
aF0.9630034344531675
aF-0.2050920963779426
aF0.15237483108584712
aF0.08569438771742302
aF-0.6453701511811037
aF0.5575622014360514
aF-0.3557169525431963
aF0.672259371847751
aF0.24943827193490287
aF0.17669329685301008
aF0.00016512518633549693
aF-0.5261027476057679
aF2.0528227657056462e-05
aF-0.00027174313950948477
aF0.07957174516780499
aF-2.8521227010472985
aF-0.6634098073426008
aF0.7202233175736549
aF-1.4960051396552774
aF-0.05196909713937115
aF0.44223169890042024
aF-0.005766791870949989
aF-0.36002236663486364
aF0.5852769193630953
aF-1.5308627348679196
aF1.3867687358730336
aF-0.03528846879937565
aF-0.0961678256355524
aF-0.15934520729688276
aF0.2850114071265052
aF-0.5398220607988703
aF0.03144457513227515
aF0.23587107098999915
aF0.155929900099021
aa(lp185
F0.24048036325801087
aF-0.8920359388385121
aF1.0305344232030054
aF0.9630891911801638
aF-0.20547835816736804
aF0.15141223174501345
aF0.08551134564942271
aF-0.6455325949911295
aF0.5565066470277462
aF-0.3557275306975046
aF0.6722527463199666
aF0.24973583260564527
aF0.17655585066240825
aF0.00014791709837858787
aF-0.5259940799542857
aF1.9583705954776972e-05
aF-0.0002595190027571332
aF0.07957180122714139
aF-2.852359741366695
aF-0.6635431003191018
aF0.7201176973999082
aF-1.4960383392113472
aF-0.051963760542343834
aF0.44222680240573375
aF-0.0057669344700841466
aF-0.36046658212178856
aF0.5851769941246768
aF-1.5300700703091188
aF1.3860726690985883
aF-0.03305694167547156
aF-0.09591122152989402
aF-0.15919243633085423
aF0.2849027657154633
aF-0.5395437694213481
aF0.032132300273701286
aF0.23694061377800982
aF0.15686072184462554
aa(lp186
F0.23892795261172778
aF-0.8913440319937743
aF1.029781960713295
aF0.9632869866287536
aF-0.20640079851608398
aF0.14912330030319348
aF0.08508309509122008
aF-0.6458544442832653
aF0.5547428118883767
aF-0.3557510085042952
aF0.672222830579235
aF0.2503908840642531
aF0.1763024905467659
aF0.00011743113261346727
aF-0.5257948717533085
aF1.7829845228075225e-05
aF-0.00023730741839861916
aF0.07957195651353388
aF-2.8528486271697346
aF-0.6637492346713706
aF0.7199195671290942
aF-1.496033076348117
aF-0.05195298317276539
aF0.44222182546062494
aF-0.005767246264220181
aF-0.36151586117202283
aF0.5850146842458694
aF-1.527859494473969
aF1.384827256641604
aF-0.028492987262541222
aF-0.09537514850505703
aF-0.15878190830132213
aF0.2848249047328383
aF-0.538428180245945
aF0.03360731171169175
aF0.23902512405373796
aF0.1582286224982969
aa(lp187
F0.2366595175578056
aF-0.8903273115142157
aF1.0286605818493324
aF0.9635801743407605
aF-0.20781152958241078
aF0.14561339634959383
aF0.08440589193642928
aF-0.6463392171256508
aF0.5521570008556551
aF-0.3557793501833144
aF0.672193389450116
aF0.25113317442461475
aF0.17596834444329928
aF7.533160272343522e-05
aF-0.5255600697930869
aF1.5690919265517586e-05
aF-0.00021107130735668303
aF0.07957214008898641
aF-2.8534105140121984
aF-0.6640295132053482
aF0.719679519713038
aF-1.4960386662923495
aF-0.05194011139569663
aF0.44221575908265504
aF-0.005767608863215099
aF-0.3630690894622686
aF0.5847841337801678
aF-1.524334591314263
aF1.3831242737416727
aF-0.021857749333912574
aF-0.09458228312572867
aF-0.15808206978189948
aF0.28477750383778394
aF-0.5365109257267319
aF0.035778491641081066
aF0.24203485082646692
aF0.16001979665618657
aa(lp188
F0.23374283990883057
aF-0.8890023500637112
aF1.0271990217172484
aF0.963954104071447
aF-0.2095854818922393
aF0.14101725901136414
aF0.08354964802279655
aF-0.6470112062876326
aF0.5484467917217671
aF-0.3558199454482488
aF0.6721463662556283
aF0.25222866231976304
aF0.17550990699865615
aF1.878260638464219e-05
aF-0.5252209427616542
aF1.2650229338975358e-05
aF-0.00017322148727872834
aF0.07957240630318888
aF-2.854233235333712
aF-0.6644075384423863
aF0.7193372574507195
aF-1.4960365363068135
aF-0.051921610952060916
aF0.4422072668415141
aF-0.005768137357814724
aF-0.3651609513777039
aF0.5843011574459539
aF-1.519631253873772
aF1.380893369680894
aF-0.013288834843437607
aF-0.09350690855329484
aF-0.15722413304236518
aF0.2845932429757573
aF-0.5339341623873869
aF0.03865715152598034
aF0.2459415791935157
aF0.16269234033227814
aa(lp189
F0.2321743210462743
aF-0.8882939812224017
aF1.0264176715772857
aF0.9641409767998165
aF-0.21054562643320246
aF0.13856293257399582
aF0.08308447365085876
aF-0.6473611317622177
aF0.546542218580118
aF-0.35584079916987715
aF0.6721232354693248
aF0.25278459813526666
aF0.17527014707122637
aF-1.1058996492539477e-05
aF-0.5250473267766681
aF1.1083373286201466e-05
aF-0.00015383521786748407
aF0.07957254236649135
aF-2.8546520852501724
aF-0.6646066781605169
aF0.7191611062720056
aF-1.4960375829591794
aF-0.0519121207205549
aF0.4422028627967042
aF-0.005768406917454298
aF-0.36626360682049397
aF0.5840853125243997
aF-1.517142175752124
aF1.379703351979333
aF-0.008689513435202974
aF-0.09294175794384274
aF-0.15675289933592476
aF0.2845231642992588
aF-0.5325747026834784
aF0.04018474975873882
aF0.24803383657930092
aF0.16404263414861434
aa(lp190
F0.22973912844155822
aF-0.8834455834740742
aF1.0247064513510031
aF0.9662646757295208
aF-0.2070427399394306
aF0.13032002754989103
aF0.08051441296496678
aF-0.611077063255855
aF0.5583727678110932
aF-0.34554693202707276
aF0.6547965098769729
aF0.2778015799689351
aF0.18449552118179388
aF0.0016851794620281989
aF-0.5184286502532186
aF-1.0568860715430169e-05
aF0.0005811728797386676
aF0.06889137106016298
aF-2.7372108579023506
aF-0.66606744890427
aF0.732643096755951
aF-1.4334228900390105
aF0.011436847068793337
aF0.38293139877715515
aF-0.0096845695305182
aF-0.3677739546007535
aF0.5597565323951775
aF-1.5092538588859075
aF1.3785252062389506
aF8.799260665214134e-05
aF-0.08081662780049496
aF-0.15475688165041343
aF0.2668831043870306
aF-0.5213411355971448
aF0.03893584974636025
aF0.25379307430821274
aF0.17251556151141248
aa(lp191
F0.2273595271617569
aF-0.8784662529455972
aF1.0229758563296183
aF0.9683770653424525
aF-0.2033665569711602
aF0.12172963690809553
aF0.07790891041888853
aF-0.575047662127284
aF0.5699374988711908
aF-0.33527476739734685
aF0.637450733811124
aF0.3029461513139259
aF0.19353660795557062
aF0.003350294609858928
aF-0.5118414184941601
aF-3.2511900596901946e-05
aF0.001312149442756589
aF0.05821179530805307
aF-2.6194372735284115
aF-0.6673847114706462
aF0.7462355677126173
aF-1.3704158881321995
aF0.07478432160473998
aF0.3236828173216524
aF-0.013600181711425354
aF-0.3697002762557785
aF0.5344874260474083
aF-1.5007603915695318
aF1.3775489432226722
aF0.008758082282572065
aF-0.06823352293135926
aF-0.1529390125048837
aF0.24865465137833015
aF-0.5094602080005234
aF0.0378513492277469
aF0.25940963262806316
aF0.1812116100483119
aa(lp192
F0.2253983841806797
aF-0.8733306114372138
aF1.021306035347971
aF0.9705363132069069
aF-0.19931538898624077
aF0.11226814747038211
aF0.07568687814659109
aF-0.5395465253921167
aF0.579029572048497
aF-0.32503996524437867
aF0.6200246072127038
aF0.3289940946743372
aF0.20238452620544126
aF0.004997222945056461
aF-0.5051002212518171
aF-5.588024653136322e-05
aF0.002059527472745756
aF0.047535597199122044
aF-2.5021864818197797
aF-0.6685923026903817
aF0.7596877282306456
aF-1.3070917329363716
aF0.13812903165847096
aF0.2644563399258625
aF-0.01751500221177984
aF-0.37200720717093394
aF0.5070510725634509
aF-1.4904083684419982
aF1.3769354021440896
aF0.016470480918150253
aF-0.054732759890481
aF-0.15139724473751792
aF0.22932436640780898
aF-0.4953256590182776
aF0.03718147368435635
aF0.26405145182064865
aF0.1902034190829833
aa(lp193
F0.2237303799714931
aF-0.868114212784608
aF1.0196858915873115
aF0.9726682364698556
aF-0.19501105124038748
aF0.10222459217961068
aF0.07373821540051352
aF-0.5043974261521617
aF0.5863366923456933
aF-0.3148252605598474
aF0.6025407071025317
aF0.3556696896291369
aF0.21113022216550997
aF0.006637854451353699
aF-0.4982416333338127
aF-8.021246365391718e-05
aF0.002819545577161535
aF0.03685891211810539
aF-2.3854075813660476
aF-0.6697274062340185
aF0.772998842688356
aF-1.2436170754088092
aF0.201489680222248
aF0.20522321345806716
aF-0.021430313076086362
aF-0.37449347123877386
aF0.47822674082485045
aF-1.4788183480479735
aF1.3765425929779302
aF0.023501892027247423
aF-0.04066895823484508
aF-0.15000884466984782
aF0.20931736256102434
aF-0.4796762062784195
aF0.03678750352855766
aF0.26801251318675134
aF0.19934978209565768
aa(lp194
F0.22235187392637365
aF-0.8628569110548076
aF1.0181265033796545
aF0.9747362002184603
aF-0.19048571753221152
aF0.0916989394258327
aF0.07208214694425917
aF-0.46951418247077537
aF0.5919117361378068
aF-0.3046228628251599
aF0.5850008543358979
aF0.3829448901537716
aF0.21982847109697487
aF0.00828151805286952
aF-0.491255305599969
aF-0.000105429774558406
aF0.003593502139214854
aF0.026179608646435613
aF-2.2691943042073217
aF-0.6708343043700129
aF0.786134615664711
aF-1.1801097582244453
aF0.26487733710203326
aF0.14596805579345837
aF-0.02534691291128749
aF-0.3770290597269399
aF0.4482645659605509
aF-1.4661563675701537
aF1.3763136003579828
aF0.029852180714113254
aF-0.026171256184139763
aF-0.14872632689274137
aF0.18879190796264583
aF-0.4626773685291761
aF0.036616000315014274
aF0.27131262041515275
aF0.2085791025237663
aa(lp195
F0.22125744456009885
aF-0.8575915342081005
aF1.0166369445798824
aF0.9767074947648994
aF-0.18577084063546176
aF0.08079720713923794
aF0.0707352511705928
aF-0.43482702724271555
aF0.5958488948100694
aF-0.2944333992765723
aF0.5674191371406722
aF0.4107707788046727
aF0.2285195163349123
aF0.009934510106866017
aF-0.48413938695376924
aF-0.00013143973487549543
aF0.004381726875830539
aF0.015503457571807483
aF-2.1536671501378164
aF-0.6719598437909943
aF0.7990718662524572
aF-1.11670458656194
aF0.3282550621181572
aF0.0867224673184098
aF-0.02926270454598262
aF-0.3795120604601315
aF0.41740577566902193
aF-1.452591691452226
aF1.3762010419992763
aF0.03552807693460272
aF-0.011355583916742525
aF-0.1475178230226537
aF0.1678928690432027
aF-0.4445023920026677
aF0.03661273045722149
aF0.27397596567974686
aF0.2178314586519845
aa(lp196
F0.22043971789061295
aF-0.8523357255257427
aF1.0152219704291765
aF0.9785570921459855
aF-0.18088946860209412
aF0.06961077803622895
aF0.06970908937029634
aF-0.4002269170782941
aF0.5982801907115687
aF-0.28424772947423455
aF0.5497905809004927
aF0.4391310402428533
aF0.2372462495628703
aF0.011603458362808775
aF-0.4768862856169201
aF-0.00015818717386149276
aF0.005185162603875072
aF0.00482515796333284
aF-2.0387758087052212
aF-0.673153413208414
aF0.8118187929748452
aF-1.0534392551650227
aF0.3916504397141176
aF0.027458963297215786
aF-0.03317964365620521
aF-0.3818707091692339
aF0.3858283471505017
aF-1.438270898252947
aF1.376169676282225
aF0.04054752206723239
aF0.003701223205515112
aF-0.14636333817910097
aF0.14671718093324
aF-0.4252965371295103
aF0.03672374454187296
aF0.2760323497799222
aF0.22707320668540185
aa(lp197
F0.21989256847160038
aF-0.8471015213811259
aF1.0138846797945071
aF0.9802642893849343
aF-0.17586415566525404
aF0.058231881239378266
aF0.06901282283836693
aF-0.36562390999803923
aF0.5993588028675162
aF-0.2740623795794377
aF0.5321178658588482
aF0.46800309182677896
aF0.24604267926702802
aF0.013293201739441074
aF-0.4694920172862839
aF-0.00018561885795114334
aF0.006004334627438054
aF-0.00585539159914877
aF-1.9244842273160108
aF-0.674464217008969
aF0.8243918033776971
aF-0.9903524006569202
aF0.4550592317428591
aF-0.03181968529126933
aF-0.03709776205661967
aF-0.38405528821815454
aF0.353695897991911
aF-1.4233372810535296
aF1.3761976646164145
aF0.04492608443196818
aF0.018937172982725292
aF-0.14525424411682342
aF0.1253492892787855
aF-0.40520187932632207
aF0.03689609572486991
aF0.27751003143933195
aF0.2362804344861768
aa(lp198
F0.21961074149637783
aF-0.8418968168234237
aF1.0126264224661088
aF0.981812708795271
aF-0.17071838375517032
aF0.04675373291489638
aF0.06865221594848461
aF-0.33095058181696174
aF0.5992576251565367
aF-0.2638790863273165
aF0.5144109213311933
aF0.49735913812921917
aF0.254935514053922
aF0.01500709755897168
aF-0.46195537874744086
aF-0.0002136843167782197
aF0.006839446830759818
aF-0.016533440632078556
aF-1.8107720815698298
aF-0.6759406506292387
aF0.8368133443582371
aF-0.9274835700618933
aF0.5184479536628589
aF-0.09108337913287425
aF-0.041015286953235
aF-0.386033539579392
aF0.3211632325287217
aF-1.407933449927558
aF1.3762758140116638
aF0.048676935418425486
aF0.03430185922380569
aF-0.14419011156685071
aF0.10386596001884262
aF-0.384359995644936
aF0.03707774026160075
aF0.2784366832548147
aF0.2454366530121228
aa(lp199
F0.21958895217531013
aF-0.8367199579807095
aF1.0114450383343252
aF0.9831920420092284
aF-0.16547088672495833
aF0.035255180037998615
aF0.06862846680982713
aF-0.29611910361692734
aF0.5981677907653465
aF-0.2536908269564825
aF0.4966629593206261
aF0.5272061636991263
aF0.2639572045291136
aF0.016749536942828443
aF-0.45426719664009924
aF-0.00024237431954086762
aF0.00769157690566929
aF-0.027213928987233637
aF-1.6974846836983706
aF-0.6776320700817251
aF0.8491261761033253
aF-0.8647902200717896
aF0.581840937560732
aF-0.15035639835658596
aF-0.044933970843218186
aF-0.38778817255261516
aF0.2883384334787062
aF-1.3921827398963267
aF1.376405889742715
aF0.05181641335633886
aF0.04977337673114157
aF-0.14317386789433048
aF0.08231238066439846
aF-0.3628865769880066
aF0.03721775717376866
aF0.27884172343480434
aF0.25454260625559677
aa(lp200
F0.2199619906092289
aF-0.8315772650354436
aF1.010375086868034
aF0.9843927573772133
aF-0.1600932875146803
aF0.02375794126778239
aF0.06911294193380518
aF-0.2610847328392934
aF0.5956977695438416
aF-0.24350547219412533
aF0.4788680263838061
aF0.5577922752295956
aF0.27316757376951156
aF0.018533097929953907
aF-0.4463511980720534
aF-0.00027202613719239885
aF0.008569283311190978
aF-0.03788793982440354
aF-1.5848168582564761
aF-0.6796658150920991
aF0.8613033585393044
aF-0.8023442187325974
aF0.6451793542444059
aF-0.209587283471618
aF-0.048850579664654975
aF-0.38923352546417056
aF0.2550918893766998
aF-1.3759448051704772
aF1.376645800066497
aF0.05402572811548534
aF0.06542630451142646
aF-0.1422462740753045
aF0.06065676981919337
aF-0.34049216268391264
aF0.037278974818796023
aF0.2784617675080657
aF0.2636211191304873
aa(lp201
F0.2204617421405128
aF-0.8264537491101337
aF1.0093386772708084
aF0.9854135212763524
aF-0.15471417328585352
aF0.01246824435463329
aF0.06977291417826732
aF-0.22577678428314674
aF0.5932242013099033
aF-0.23330533489508773
aF0.46104407916877216
aF0.5886623186892143
aF0.28253811989455097
aF0.02034416954287988
aF-0.438326463539998
aF-0.0003019987863218566
aF0.00945934157639317
aF-0.048569218347347655
aF-1.472026059086988
aF-0.6819488352463862
aF0.8735263688031097
aF-0.7399056558370751
aF0.7085461480584462
aF-0.268853617241018
aF-0.0527697779834024
aF-0.390498702982594
aF0.22203716093324682
aF-1.3598690782634237
aF1.376925140618366
aF0.05594202163333172
aF0.08105182944087393
aF-0.14134202942723006
aF0.03912895833257389
aF-0.31808855775926237
aF0.03717315675339898
aF0.27787297544695877
aF0.27281579026585706
aa(lp202
F0.22095022497664907
aF-0.8212580671866166
aF1.008265592238486
aF0.9862744135213236
aF-0.1492834512926906
aF0.0014699429117407724
aF0.07053418795980346
aF-0.19213177473125645
aF0.5909328132438761
aF-0.22329519664762354
aF0.4436693859917064
aF0.616993698966675
aF0.2912959551315572
aF0.02203572679007488
aF-0.43093661915251247
aF-0.0003293845498098545
aF0.01027823192160258
aF-0.05904797264498737
aF-1.3660916491001855
aF-0.6827439713133099
aF0.8855511722114575
aF-0.6776338643798859
aF0.7707411383938413
aF-0.32698610590323185
aF-0.05661356697723601
aF-0.3914167630020143
aF0.1889444779772697
aF-1.3443309980485152
aF1.3769621846506992
aF0.05803549492703772
aF0.09684155501226378
aF-0.14033321327536122
aF0.01744620004609007
aF-0.2958320745111587
aF0.0363475898328096
aF0.2776139668101003
aF0.2822072995298082
aa(lp203
F0.22180551307609994
aF-0.8160174521110827
aF1.0072566300860573
aF0.9869681226089646
aF-0.14368281109784964
aF-0.009253326592434904
aF0.07185785062001823
aF-0.15875926585853667
aF0.5875006556012043
aF-0.21339329963191864
aF0.42649594406349567
aF0.6446059432209934
aF0.2999099339844215
aF0.023704871292081188
aF-0.4236449813148069
aF-0.00035644246944585713
aF0.011086142785053151
aF-0.06940436036434969
aF-1.2639843359498193
aF-0.6837949656712693
aF0.8973170420896501
aF-0.6159098125204363
aF0.8322018820442054
aF-0.3844218646180746
aF-0.060412248300667264
aF-0.39190000067429054
aF0.1553671281562395
aF-1.3287785601348356
aF1.3769449147951587
aF0.0593914505529816
aF0.1129712173570332
aF-0.1394021409267903
aF-0.004545818985931501
aF-0.2729681670698942
aF0.03506778045802516
aF0.27680111375580674
aF0.2914552548308371
aa(lp204
F0.22285192902324985
aF-0.8107770112260322
aF1.0062876479503855
aF0.9875011129042843
aF-0.13804150990687558
aF-0.0198622445260862
aF0.07342741176029474
aF-0.12524083995289464
aF0.5837412690523628
aF-0.2034794102243767
aF0.4093998451256339
aF0.6708952861016582
aF0.30847488493506037
aF0.025363821205104498
aF-0.4164223049254149
aF-0.00038393089376496475
aF0.01190480007800876
aF-0.07971162019392351
aF-1.1628072371292715
aF-0.6842774059935572
aF0.9089625817851605
aF-0.5542761056553176
aF0.8933559757900414
aF-0.44157255581880456
aF-0.06419262074608328
aF-0.39232633569941444
aF0.12173875118104646
aF-1.3131106699741504
aF1.3770537679794694
aF0.06029621362700513
aF0.12917128203637013
aF-0.13858018170065886
aF-0.026548970774482046
aF-0.24980719215899683
aF0.033726174271736034
aF0.2756174945985404
aF0.300694012842011
aa(lp205
F0.22313816628589828
aF-0.8060330941500756
aF1.0051789897232926
aF0.9878875140880652
aF-0.13259891445601524
aF-0.02904652715172683
aF0.07518036082922969
aF-0.09314929294165601
aF0.5775732323770151
aF-0.19510674807645947
aF0.3948717273704098
aF0.6942299983081709
aF0.315780668060327
aF0.026787893951990327
aF-0.410102443377281
aF-0.0004082106745718881
aF0.012619897596229838
aF-0.08834909187208624
aF-1.1033505230011196
aF-0.6731798352212985
aF0.9186975024872881
aF-0.49940631647882583
aF0.9445903367642803
aF-0.4894414237146886
aF-0.06735796261494381
aF-0.39236499236959116
aF0.0913707408020914
aF-1.299964372621056
aF1.3749179238896343
aF0.06345408190770488
aF0.14340285872223868
aF-0.13773776041284938
aF-0.04719403009262024
aF-0.23076919803093587
aF0.03287805603374736
aF0.275393316854219
aF0.3092386471752537
aa(lp206
F0.22227167440928025
aF-0.8017572506808491
aF1.0038290262389895
aF0.9881801304616539
aF-0.12744088767068637
aF-0.03708266032261854
aF0.07670545100508608
aF-0.06269115349513366
aF0.5697804825825525
aF-0.1882552908710031
aF0.38278898321885657
aF0.7158630878731475
aF0.32182145883501945
aF0.02797732280209081
aF-0.404667531981068
aF-0.0004285420527165889
aF0.013212387205756671
aF-0.09541008619002905
aF-1.0832516317316714
aF-0.6515381520699357
aF0.9267287971037333
aF-0.4510487078491003
aF0.9864784726680468
aF-0.5285588708825701
aF-0.06994283933575289
aF-0.3920873458171282
aF0.06434238396792005
aF-1.2895182787162007
aF1.3702186194409498
aF0.06985858589863662
aF0.15558774456410304
aF-0.13670443885835512
aF-0.06643070825191796
aF-0.21633458629268046
aF0.03265603677877147
aF0.27688079468774096
aF0.31688169387883514
aa(lp207
F0.22177729481652272
aF-0.7975011427624764
aF1.0025866215821415
aF0.9883845013156635
aF-0.12215868778323029
aF-0.0448727234247784
aF0.07848421019867562
aF-0.03210368424423201
aF0.5613594460052369
aF-0.18139932746712087
aF0.3706667825883498
aF0.7379667686991803
aF0.3280162953025592
aF0.029195608745338907
aF-0.3990969970471034
aF-0.00044939665818406163
aF0.013820058665607262
aF-0.1024739604879533
aF-1.0634441511030968
aF-0.6300513524321634
aF0.9347084404956747
aF-0.4027415524500386
aF1.0283771117099414
aF-0.5676926307552592
aF-0.07252888169232662
aF-0.39176235270739396
aF0.03711890140787652
aF-1.2789196560850293
aF1.3659222684128614
aF0.07526359808645386
aF0.16789294657283713
aF-0.13576218702570284
aF-0.08580108588114284
aF-0.20144329083039886
aF0.032241498084299915
aF0.2777118513729698
aF0.32489344246297824
aa(lp208
F0.22121664667626273
aF-0.7932442703184449
aF1.0013260454866202
aF0.9884975439257152
aF-0.11688848328459048
aF-0.05269435459732718
aF0.0802059419359167
aF-0.0015396219152647513
aF0.5530671961169074
aF-0.17454469134718645
aF0.3585530325164615
aF0.7599846643834689
aF0.3341869068173745
aF0.030409027732476217
aF-0.3935507507030991
aF-0.0004701528487771266
aF0.01442501630712297
aF-0.10953662650354173
aF-1.0435873087725496
aF-0.6085348399480658
aF0.9426989356007893
aF-0.35442973819834434
aF1.07026967933131
aF-0.606819818326006
aF-0.07511445805927656
aF-0.39144667992473803
aF0.009951524258341754
aF-1.268359605603742
aF1.3615591077470142
aF0.08084262807834328
aF0.18016612731081552
aF-0.13480406402047398
aF-0.10513507918935479
aF-0.18664522591598007
aF0.03185455419649581
aF0.2786572434403295
aF0.3328837933586475
aa(lp209
F0.22139322228044275
aF-0.7894102076621471
aF1.000381443459063
aF0.9885557383052909
aF-0.1117226777093284
aF-0.05906621969287638
aF0.08238189874196662
aF0.03178807990112693
aF0.5441220646590619
aF-0.16772552961037931
aF0.3464416140290162
aF0.7838320833039786
aF0.34071422719341116
aF0.03165907746520539
aF-0.3879539612470365
aF-0.0004910785739323032
aF0.015045884919517092
aF-0.11642762283156113
aF-1.027173092813711
aF-0.5875817883733665
aF0.9506496967881789
aF-0.3060178193374892
aF1.111122293813568
aF-0.6450016704048961
aF-0.07763496912942713
aF-0.3912646790866465
aF-0.01513034455359427
aF-1.2588199946416918
aF1.3580825174076554
aF0.08416186416541355
aF0.19141726177923232
aF-0.13429223190535156
aF-0.12327935918713966
aF-0.17253596138662453
aF0.03063608191778427
aF0.2786171654809381
aF0.33951501996787015
aa(lp210
F0.2214224402173587
aF-0.7855831888197989
aF0.9993968149728714
aF0.9885207672273532
aF-0.10663082000160315
aF-0.06565394942873208
aF0.08453472606237136
aF0.06523039809305853
aF0.5349900996075816
aF-0.1609071408249821
aF0.3343256996957577
aF0.8077861256137471
aF0.3472631265556449
aF0.032912868242508345
aF-0.382334186462625
aF-0.0005121092521146575
aF0.015669645982444334
aF-0.12331299828778446
aF-1.010839903637847
aF-0.5666521104318255
aF0.958597074475653
aF-0.2576057382718222
aF1.1519411953285972
aF-0.6831546966227464
aF-0.08015334801619306
aF-0.3911338943932236
aF-0.040142024062366395
aF-1.2490913129184305
aF1.3544138064677669
aF0.0878987058711404
aF0.20261934904174606
aF-0.13379020845246392
aF-0.14128634014806896
aF-0.15835065772043477
aF0.029537745883244364
aF0.2787694706759778
aF0.3463561934352006
aa(lp211
F0.22183431783035795
aF-0.7817859383844107
aF0.9985332287357365
aF0.9884539659264796
aF-0.10138930742705722
aF-0.07171925358610767
aF0.08680618784814306
aF0.09869129125429703
aF0.5260010316611063
aF-0.1540868372322904
aF0.32220648158204707
aF0.8317726477462383
aF0.3538645662973813
aF0.03417337104312782
aF-0.3767155863346139
aF-0.0005330559451543384
aF0.016293253564895454
aF-0.13019988114414072
aF-0.9946215013445855
aF-0.5457181338612771
aF0.9665348040961181
aF-0.2092067661674188
aF1.1927665967230616
aF-0.7213139097933122
aF-0.08267232251369898
aF-0.39091052084602845
aF-0.06514435717485431
aF-1.2397098836729015
aF1.3512301003015412
aF0.0905447358810654
aF0.21385219455887045
aF-0.13333323821158946
aF-0.1594312962016829
aF-0.1442192523697497
aF0.02812027475194494
aF0.27834657293754883
aF0.3532430569077285
aa(lp212
F0.22243758935496213
aF-0.7780031898249599
aF0.9977297733926738
aF0.9883435122537458
aF-0.09606434198730741
aF-0.07749952734588698
aF0.08912108193710033
aF0.13213679143421886
aF0.5171469213347466
aF-0.1472672209252538
aF0.31009104581756364
aF0.8557317656742702
aF0.3604748306119605
aF0.035434147270848634
aF-0.37111106782592024
aF-0.0005539130387287953
aF0.016915271969351678
aF-0.1370862863612528
aF-0.978446511156981
aF-0.5247786126274294
aF0.9744695833428082
aF-0.16081809389552662
aF1.233588366639613
aF-0.7594688060760858
aF-0.08519113915075506
aF-0.39063541091626847
aF-0.09013286028221949
aF-1.2305403934604064
aF1.3482900015402801
aF0.09264179094060282
aF0.22509433828638598
aF-0.13289061984754283
aF-0.17765407506785177
aF-0.13015894529379488
aF0.02653760954116459
aF0.2776478787319797
aF0.36008147433345455
aa(lp213
F0.22322407384032028
aF-0.7742322214056265
aF0.9969818023551309
aF0.9881949160524761
aF-0.0906541168765594
aF-0.0829880985984629
aF0.09146373309887536
aF0.16554057993762403
aF0.5084772597194575
aF-0.14045016204974944
aF0.2979851937709295
aF0.8796123092875727
aF0.3670702903099699
aF0.03669138089384935
aF-0.3655365427149682
aF-0.0005746273581496861
aF0.017533915592916328
aF-0.14397088780805523
aF-0.9622942050010621
aF-0.5038333856904333
aF0.9824024067705127
aF-0.11244441830506756
aF1.2743991617803947
aF-0.7976111935397026
aF-0.08770930925006068
aF-0.3903088485217639
aF-0.11510400995586428
aF-1.221608134840397
aF1.3455861608532598
aF0.09421050245876104
aF0.23634263688074522
aF-0.13245273394684884
aF-0.19596445321054956
aF-0.1162051168085532
aF0.024791564094420356
aF0.27669089808558983
aF0.36687715923884207
aa(lp214
F0.2243345801749792
aF-0.7704731862790196
aF0.9963247777455116
aF0.9880309581308492
aF-0.08510101531707623
aF-0.08798886176580423
aF0.09386481328057604
aF0.19889390093577092
aF0.5000641575757941
aF-0.1336342137098605
aF0.2858873808727693
aF0.9034089600563551
aF0.373649174585404
aF0.0379447388317137
aF-0.35999848614801283
aF-0.0005951666190597685
aF0.018148451812967654
aF-0.15085571804684536
aF-0.9461912720980142
aF-0.48288802211246945
aF0.9903353845560461
aF-0.0640764724425295
aF1.3152104778795433
aF-0.8357505962643669
aF-0.0902275868450139
aF-0.3899105400109365
aF-0.140072779738016
aF-1.213057497077392
aF1.343313208679788
aF0.09484947555808214
aF0.24761911509475693
aF-0.13202682918841674
aF-0.21444674396311877
aF-0.10239126738829851
aF0.02276643742251515
aF0.27527095344035635
aF0.37363557731699737
aa(lp215
F0.22509394504102717
aF-0.7673965542966139
aF0.9957396638113395
aF0.987824126635821
aF-0.08064667398061183
aF-0.0923159537655739
aF0.0957986090316289
aF0.22613526891805705
aF0.49297532610237393
aF-0.12807530520789742
aF0.27601176252841186
aF0.9229694973297621
aF0.37905494747762836
aF0.03897473958957159
aF-0.35542761196971645
aF-0.0006121615498796218
aF0.018655755012598994
aF-0.1564696549201583
aF-0.9330924012169454
aF-0.46584259814835727
aF0.9968055554870953
aF-0.024639406822740267
aF1.3484878397913809
aF-0.8668531981777785
aF-0.0922809909084855
aF-0.3896487463909048
aF-0.16043245674468556
aF-1.2058519155768694
aF1.3412932713261447
aF0.0957912988265882
aF0.256806410368643
aF-0.1316845952189877
aF-0.22942709558225616
aF-0.09099180145602286
aF0.02125802234742304
aF0.2743162453992819
aF0.3791492185715718
aa(lp216
F0.22385982281593933
aF-0.7667570883651775
aF0.9951421935088011
aF0.9877290667819402
aF-0.07989255624746722
aF-0.09282305644384403
aF0.09691413871435794
aF0.2277826819559578
aF0.4964677868709826
aF-0.12783463638900036
aF0.27463471968554304
aF0.9434677647951771
aF0.3873919058994007
aF0.04025340698500604
aF-0.34866306035534966
aF-0.00063679874983308
aF0.019366438200380205
aF-0.1564732525575725
aF-0.9342558940719085
aF-0.47130513850581485
aF0.9953560156483571
aF-0.026129284620685318
aF1.3470981333564973
aF-0.8689898631689954
aF-0.09228153491349393
aF-0.3912623925279778
aF-0.1635726166538986
aF-1.2062482072340168
aF1.3375598018810493
aF0.10061064260019076
aF0.25800111334139353
aF-0.1330998360919857
aF-0.23263076863591256
aF-0.09128408143124826
aF0.020472475355519618
aF0.27659101654524554
aF0.380489119828916
aa(lp217
F0.22211811632118458
aF-0.7657815328775991
aF0.9942777741716693
aF0.9875889432238608
aF-0.07879062371723036
aF-0.09354618099841419
aF0.09853541930107892
aF0.23004104494297073
aF0.5012851794397528
aF-0.127491684344879
aF0.27266859171894053
aF0.9727398695047943
aF0.39960062864287216
aF0.042132354762936405
aF-0.3388652585969427
aF-0.0006729726403649285
aF0.020418722031309556
aF-0.15647859205342715
aF-0.935806078148507
aF-0.4791729570246943
aF0.9933771718994044
aF-0.02827576186174828
aF1.345118523232815
aF-0.8720627595372924
aF-0.09228247920347514
aF-0.3935809377508156
aF-0.16829150047975325
aF-1.206850439492633
aF1.3322756900155839
aF0.10747845102807715
aF0.2598949537186461
aF-0.13515840463884582
aF-0.2373635145063542
aF-0.09147101989777918
aF0.018987103360880598
aF0.2800172031731553
aF0.38271171001156407
aa(lp218
F0.22089871877824993
aF-0.7651667927406898
aF0.9936918501165153
aF0.9874909511930541
aF-0.07805723353970401
aF-0.09403849220767876
aF0.09962656065162322
aF0.23167507252071048
aF0.5047407484139249
aF-0.1272544129778865
aF0.2713147839889137
aF0.9928880026845407
aF0.4077150451362613
aF0.043373205392693445
aF-0.33218776527143384
aF-0.0006975180057308652
aF0.021119647401608363
aF-0.15648211603199405
aF-0.9369636146482978
aF-0.4845345146653299
aF0.9919380566789305
aF-0.02974717176355999
aF1.3437424322756502
aF-0.8741577722883926
aF-0.09228300479688165
aF-0.39516958369910593
aF-0.17131770383286216
aF-1.2072438353684043
aF1.328591444018221
aF0.11222498607340377
aF0.2610275116453854
aF-0.13654753749395324
aF-0.24047344552236713
aF-0.09180498893322528
aF0.018255927412517817
aF0.28225872257230905
aF0.38407383004717655
aa(lp219
F0.22015715683624426
aF-0.7648385354849433
aF0.9933496377002144
aF0.9874315405865612
aF-0.07762902957221961
aF-0.09434332504665086
aF0.10025977978066736
aF0.2327253206070906
aF0.5069460161828534
aF-0.1271125715643108
aF0.27050325719080504
aF1.0049675385161145
aF0.4124048030783909
aF0.04408971927902004
aF-0.3283677649451855
aF-0.0007107163248091899
aF0.02149866012155289
aF-0.15648404634232907
aF-0.9377466548119021
aF-0.487694084376091
aF0.9910070445837396
aF-0.030599279345852406
aF1.3429286770144886
aF-0.8754003763354861
aF-0.09228316706045359
aF-0.39610372228733876
aF-0.1729938579461197
aF-1.2074371783157525
aF1.3263584880892951
aF0.11506984272820345
aF0.26158551200395647
aF-0.13734590194105556
aF-0.2422425647649346
aF-0.09216099224187416
aF0.018115643865700568
aF0.2834158816700527
aF0.38450914855934876
aa(lp220
F0.21899837094409894
aF-0.7642336438846093
aF0.9927879426607722
aF0.9873346419675206
aF-0.07691082947751134
aF-0.09481898647620622
aF0.10131332036595268
aF0.2342771914223812
aF0.510185421815929
aF-0.12688695965914695
aF0.26921174267128006
aF1.024188938412287
aF0.4202937496467792
aF0.045300264527956456
aF-0.3219573901950876
aF-0.0007343866050356399
aF0.022180673877690203
aF-0.1564874896553232
aF-0.9388016947124324
aF-0.49283111041264804
aF0.9896572742071692
aF-0.03197712191850871
aF1.3416107086249343
aF-0.8774086973487784
aF-0.09228371052153847
aF-0.39762860805770195
aF-0.1759734244478792
aF-1.2078086284926255
aF1.3228407832861402
aF0.11960179599687625
aF0.2627183894606421
aF-0.13868310684568425
aF-0.2452745436772476
aF-0.092397568577442
aF0.01731720354427953
aF0.28556361944378233
aF0.3857727164826533
aa(lp221
F0.21883276779880184
aF-0.764084609191094
aF0.9926978924585965
aF0.9873207762032352
aF-0.07667481186454425
aF-0.09489030928065506
aF0.10156026441280774
aF0.2345694396845511
aF0.5100891908642198
aF-0.12685984351474217
aF0.2690477578541911
aF1.0265772896306364
aF0.42227569660073544
aF0.045612616945482506
aF-0.32021693332507084
aF-0.0007453033511295841
aF0.02248455614149617
aF-0.1564888976916257
aF-0.9384274057598406
aF-0.4936766844658493
aF0.9896226633757865
aF-0.03187821696279057
aF1.341238639851936
aF-0.8777249944498788
aF-0.09228424642720207
aF-0.3979832230338168
aF-0.17683547094575242
aF-1.207852593220363
aF1.3221677151343167
aF0.12034490905097715
aF0.26303607076778746
aF-0.13899144043432907
aF-0.2460427431691854
aF-0.0919002320942015
aF0.016349502991717016
aF0.2860364967088085
aF0.3860298935703433
aa(lp222
F0.21866715307626933
aF-0.7639355640786357
aF0.9926078359610551
aF0.9873067890385154
aF-0.07643876839908653
aF-0.09496162549674768
aF0.10180721333531621
aF0.234861708377655
aF0.5099929531850517
aF-0.12683272547466087
aF0.26888376157300325
aF1.0289658078174588
aF0.42425778211163984
aF0.04592499119941423
aF-0.3184763547805602
aF-0.0007562208604079411
aF0.022788459649563494
aF-0.15649030582636328
aF-0.9380530906408904
aF-0.4945223176327216
aF0.9895880501247776
aF-0.031779305092675056
aF1.3408665450677903
aF-0.8780413136631561
aF-0.09228478237033055
aF-0.39833786280089234
aF-0.17769757770887723
aF-1.207896561021653
aF1.321494599928626
aF0.12108807405575048
aF0.26335377428387857
aF-0.1392997955784252
aF-0.2468109963655763
aF-0.09140286084240921
aF0.015381734787679263
aF0.2865094070324545
aF0.3862870886371585
aa(lp223
F0.21862593526534402
aF-0.7638334847544163
aF0.9925786156636027
aF0.987301708868559
aF-0.07628865015115915
aF-0.09499239011504233
aF0.10194029303258256
aF0.23483774187311532
aF0.5097702975768663
aF-0.12682846413582058
aF0.26885300022290237
aF1.0293582708001388
aF0.42480516972033444
aF0.04601915525604512
aF-0.3181264004903016
aF-0.0007583166694703938
aF0.022857369778761336
aF-0.15649065782831353
aF-0.9378534003095207
aF-0.4947776071172514
aF0.9897188109501827
aF-0.031557659059205906
aF1.3407758883259764
aF-0.8781697104600799
aF-0.0922853170461389
aF-0.39851961755194576
aF-0.17827939537936266
aF-1.2078737094090521
aF1.321197284322123
aF0.12136533835752396
aF0.26361975623224787
aF-0.1394962559178568
aF-0.24739163436676667
aF-0.09097192091739309
aF0.014474262004977973
aF0.28732100769545277
aF0.3869360569091469
aaaa(lp224
a.