(lp0
(lp1
F-0.3
aF0.0
aF0.6
aF1.0
aF0.0
aF0.0
aF0.0
aa(lp2
F-0.29865626056429656
aF-0.001280455637179613
aF0.6044516296330411
aF0.9999485838686762
aF0.009406400139352315
aF0.0036942373466818893
aF0.0008377743572214375
aa(lp3
F-0.2973125211285931
aF-0.002560911274359226
aF0.6089032592660821
aF0.9997943407619422
aF0.018811832997294935
aF0.007388094806578663
aF0.001675462564210134
aa(lp4
F-0.2959687816928896
aF-0.003841366911538838
aF0.6133548888991232
aF0.9995372865409656
aF0.028215331391885895
aF0.01108119253196982
aF0.0025129784795923714
aa(lp5
F-0.29462504225718616
aF-0.005121822548718452
aF0.6178065185321643
aF0.9991774476392135
aF0.03761592834010848
aF0.014773150753260087
aF0.003350235979711569
aa(lp6
F-0.2932813028214827
aF-0.006402278185898064
aF0.6222581481652054
aF0.9987148610597345
aF0.047012657157308284
aF0.018463589818031968
aF0.00418714896748457
aa(lp7
F-0.29193756338577925
aF-0.007682733823077677
aF0.6267097777982464
aF0.9981495743713531
aF0.05640455155659952
aF0.02215213023008626
aF0.0050236313812552025
aa(lp8
F-0.2905938239500758
aF-0.00896318946025729
aF0.6311614074312876
aF0.9974816457037784
aF0.06579064574823058
aF0.025838392688466532
aF0.005859597203644193
aa(lp9
F-0.28925008451437234
aF-0.010243645097436903
aF0.6356130370643286
aF0.9967111437416267
aF0.07516997453889832
aF0.02952199812646348
aF0.00669496047039453
aa(lp10
F-0.28790634507866886
aF-0.011524100734616547
aF0.6400646666973698
aF0.9958381477173588
aF0.08454157343100133
aF0.03320256775059531
aF0.0075296352792113865
aa(lp11
F-0.2865626056429653
aF-0.012804556371796193
aF0.6445162963304109
aF0.9948627474031299
aF0.09390447872182064
aF0.03687972307955964
aF0.00836353579859557
aa(lp12
F-0.28521886620726183
aF-0.01408501200897584
aF0.6489679259634521
aF0.993785043101562
aF0.10325772760262028
aF0.04055308598315389
aF0.009196576276669852
aa(lp13
F-0.2838751267715584
aF-0.015365467646155487
aF0.6534195555964935
aF0.9926051456354268
aF0.1126003582576547
aF0.04422227872115915
aF0.010028671049996996
aa(lp14
F-0.2825313873358549
aF-0.016645923283335133
aF0.6578711852295346
aF0.9913231763362506
aF0.12193140996307458
aF0.0478869239821841
aF0.010859734552388717
aa(lp15
F-0.2811876479001514
aF-0.017926378920514782
aF0.6623228148625757
aF0.9899392670318367
aF0.13124992318572018
aF0.05154664492246473
aF0.011689681323704671
aa(lp16
F-0.27984390846444795
aF-0.01920683455769443
aF0.666774444495617
aF0.9884535600327106
aF0.1405549396817923
aF0.05520106520461612
aF0.01251842601864048
aa(lp17
F-0.2785001690287444
aF-0.02048729019487408
aF0.6712260741286582
aF0.9868662081174843
aF0.14984550259539067
aF0.05884980903633196
aF0.01334588341550401
aa(lp18
F-0.27715642959304093
aF-0.021767745832053726
aF0.6756777037616993
aF0.9851773745171469
aF0.1591206565569096
aF0.062492501209028224
aF0.014171968424978892
aa(lp19
F-0.27581269015733745
aF-0.023048201469233375
aF0.6801293333947406
aF0.9833872328982793
aF0.1683794477812809
aF0.06612876713642668
aF0.014996596098874469
aa(lp20
F-0.27446895072163396
aF-0.024328657106413024
aF0.6845809630277818
aF0.9814959673451937
aF0.17762092416605346
aF0.0697582328930744
aF0.01581968163886119
aa(lp21
F-0.2731252112859305
aF-0.02560911274359267
aF0.689032592660823
aF0.9795037723410069
aF0.18684413538930053
aF0.07338052525279544
aF0.01664114040519062
aa(lp22
F-0.27178147185022694
aF-0.026889568380772326
aF0.6934842222938642
aF0.9774108527476386
aF0.19604813300734314
aF0.07699527172707049
aF0.017460887925399154
aa(lp23
F-0.2704377324145235
aF-0.028170024017951975
aF0.6979358519269054
aF0.9752174237847462
aF0.20523197055228076
aF0.08060210060334069
aF0.018278839902994486
aa(lp24
F-0.26909399297882
aF-0.029450479655131624
aF0.7023874815599467
aF0.9729237110075929
aF0.21439470362931895
aF0.08420064098323171
aF0.019094912226124028
aa(lp25
F-0.2677502535431165
aF-0.03073093529231127
aF0.7068391111929879
aF0.9705299502838531
aF0.22353539001388328
aF0.08779052282069406
aF0.019909020976224295
aa(lp26
F-0.266406514107413
aF-0.03201139092949091
aF0.7112907408260289
aF0.9680363877693587
aF0.23265308974851062
aF0.09137137696005573
aF0.02072108243665048
aa(lp27
F-0.2650627746717095
aF-0.03329184656667056
aF0.7157423704590702
aF0.965443279882785
aF0.2417468652395074
aF0.09494283517398344
aF0.02153101310128521
aa(lp28
F-0.26371903523600604
aF-0.03457230220385021
aF0.7201940000921114
aF0.9627508932792832
aF0.2508157813533636
aF0.09850453020134803
aF0.022338729683125644
aa(lp29
F-0.26237529580030255
aF-0.035852757841029856
aF0.7246456297251527
aF0.9599595048230596
aF0.25985890551291546
aF0.102056095784991
aF0.02314414912284809
aa(lp30
F-0.26103155636459907
aF-0.037133213478209505
aF0.7290972593581938
aF0.9570694015589052
aF0.2688753077932445
aF0.10559716670938743
aF0.023947188597349185
aa(lp31
F-0.2596878169288956
aF-0.03841366911538915
aF0.7335488889912349
aF0.9540808806826778
aF0.27786406101730304
aF0.10912737883820198
aF0.024747765528262772
aa(lp32
F-0.25834407749319205
aF-0.0396941247525688
aF0.7380005186242762
aF0.9509942495107414
aF0.28682424085125885
aF0.11264636915173384
aF0.025545797590451624
aa(lp33
F-0.25700033805748856
aF-0.040974580389748445
aF0.7424521482573174
aF0.9478098254483629
aF0.2957549258995457
aF0.11615377578424677
aF0.026341202720473106
aa(lp34
F-0.2556565986217851
aF-0.0422550360269281
aF0.7469037778903587
aF0.9445279359570742
aF0.30465519779961325
aF0.11964923806118079
aF0.027133899125017992
aa(lp35
F-0.2543128591860816
aF-0.043535491664107744
aF0.7513554075233999
aF0.9411489185209974
aF0.31352414131636375
aF0.12313239653624093
aF0.02792380528932141
aa(lp36
F-0.2529691197503781
aF-0.0448159473012874
aF0.755807037156441
aF0.9376731206121407
aF0.32236084443626817
aF0.12660289302836006
aF0.028710839985545196
aa(lp37
F-0.25162538031467463
aF-0.04609640293846704
aF0.7602586667894822
aF0.934100899654668
aF0.33116439846115026
aF0.13006037065853138
aF0.029494922281130764
aa(lp38
F-0.25028164087897115
aF-0.04737685857564669
aF0.7647102964225234
aF0.9304326229881428
aF0.33993389810163016
aF0.13350447388650707
aF0.030275971547121548
aa(lp39
F-0.24893790144326766
aF-0.04865731421282633
aF0.7691619260555647
aF0.9266686678297547
aF0.34866844157021787
aF0.13693484854735952
aF0.0310539074664543
aa(lp40
F-0.24759416200756415
aF-0.04993776985000598
aF0.7736135556886059
aF0.9228094212355291
aF0.35736713067404513
aF0.14035114188790052
aF0.03182865004221822
aa(lp41
F-0.2462504225718607
aF-0.05121822548718563
aF0.778065185321647
aF0.9188552800605259
aF0.36602907090722947
aF0.14375300260295612
aF0.032600119605881314
aa(lp42
F-0.24490668313615718
aF-0.05249868112436528
aF0.7825168149546884
aF0.9148066509180283
aF0.37465337154285755
aF0.14714008087149164
aF0.03336823682548274
aa(lp43
F-0.2435629437004537
aF-0.053779136761544936
aF0.7869684445877295
aF0.9106639501377317
aF0.38323914572458145
aF0.150512028392585
aF0.03413292271379084
aa(lp44
F-0.2422192042647502
aF-0.05505959239872458
aF0.7914200742207707
aF0.9064276037229314
aF0.3917855105578154
aF0.15386849842124314
aF0.03489409863642553
aa(lp45
F-0.24087546482904673
aF-0.056340048035904235
aF0.795871703853812
aF0.902098047306714
aF0.40029158720052627
aF0.15720914580405845
aF0.035651686319944385
aa(lp46
F-0.23953172539334322
aF-0.057620503673083884
aF0.800323333486853
aF0.8976757261071622
aF0.4087565009536067
aF0.16053362701470192
aF0.03640560785989177
aa(lp47
F-0.23818798595763974
aF-0.05890095931026353
aF0.8047749631198943
aF0.8931610948815711
aF0.417179381350822
aF0.1638416001892484
aF0.037155785728809856
aa(lp48
F-0.23684424652193622
aF-0.06018141494744318
aF0.8092265927529354
aF0.8885546178796847
aF0.4255593622483232
aF0.16713272516133165
aF0.03790214278421101
aa(lp49
F-0.2355005070862327
aF-0.06146187058462283
aF0.8136782223859766
aF0.8838567687959561
aF0.4338955819137137
aF0.17040666349712413
aF0.03864460227651048
aa(lp50
F-0.2336196571098095
aF-0.0625747073753362
aF0.8187471067069433
aF0.8797106250074979
aF0.4410601075029357
aF0.17329184879313583
aF0.039308179304996374
aa(lp51
F-0.22864840148029753
aF-0.06272310539337257
aF0.8273675269452724
aF0.8792225834220281
aF0.4417201554414114
aF0.17403338719770223
aF0.039539008814150636
aa(lp52
F-0.22367714585078552
aF-0.06287150341140894
aF0.8359879471836014
aF0.8787334190611089
aF0.44237963929912383
aF0.17477470336000803
aF0.03976978783162143
aa(lp53
F-0.21870589022127357
aF-0.06301990142944533
aF0.8446083674219305
aF0.8782431325494082
aF0.443038558233906
aF0.17551579633338563
aF0.04000051606270181
aa(lp54
F-0.21373463459176156
aF-0.06316829944748172
aF0.8532287876602597
aF0.877751724513026
aF0.4436969114043121
aF0.17625666517145233
aF0.040231193212749636
aa(lp55
F-0.2087633789622496
aF-0.06331669746551809
aF0.8618492078985888
aF0.8772591955794954
aF0.4443546979696192
aF0.17699730892811172
aF0.04046181898718806
aa(lp56
F-0.2037921233327376
aF-0.06346509548355447
aF0.8704696281369179
aF0.8767655463777799
aF0.44501191708982757
aF0.1777377266575548
aF0.040692393091505796
aa(lp57
F-0.19882086770322563
aF-0.06361349350159085
aF0.879090048375247
aF0.8762707775382746
aF0.4456685679256623
aF0.17847791741426125
aF0.04092291523125757
aa(lp58
F-0.19384961207371365
aF-0.06376189151962723
aF0.887710468613576
aF0.8757748896928041
aF0.4463246496385742
aF0.17921788025300056
aF0.041153385112064476
aa(lp59
F-0.18887835644420167
aF-0.0639102895376636
aF0.8963308888519053
aF0.8752778834746212
aF0.4469801613907407
aF0.17995761422883322
aF0.04138380243961429
aa(lp60
F-0.18390710081468972
aF-0.06405868755569999
aF0.9049513090902342
aF0.8747797595184078
aF0.4476351023450672
aF0.18069711839711206
aF0.04161416691966194
aa(lp61
F-0.17893584518517772
aF-0.06420708557373636
aF0.9135717293285635
aF0.874280518460273
aF0.44828947166518807
aF0.1814363918134834
aF0.04184447825802985
aa(lp62
F-0.17396458955566574
aF-0.06435548359177275
aF0.9221921495668925
aF0.8737801609377518
aF0.4489432685154674
aF0.1821754335338881
aF0.04207473616060828
aa(lp63
F-0.1689933339261538
aF-0.06450388160980913
aF0.9308125698052216
aF0.873278687589806
aF0.4495964920610007
aF0.18291424261456304
aF0.042304940333355745
aa(lp64
F-0.16402207829664178
aF-0.0646522796278455
aF0.9394329900435507
aF0.8727760990568216
aF0.4502491414676154
aF0.18365281811204215
aF0.04253509048229936
aa(lp65
F-0.1590508226671298
aF-0.06480067764588188
aF0.9480534102818798
aF0.8722723959806086
aF0.4509012159018719
aF0.1843911590831576
aF0.042765186313535236
aa(lp66
F-0.15407956703761785
aF-0.06494907566391825
aF0.956673830520209
aF0.8717675790044004
aF0.45155271453106516
aF0.18512926458504098
aF0.04299522753322884
aa(lp67
F-0.14951801386351377
aF-0.06446696220558625
aF0.9637547442492973
aF0.8736556395096464
aF0.4483561785711955
aF0.18404648304736682
aF0.042772102682940606
aa(lp68
F-0.14532357099535537
aF-0.06344556848120488
aF0.9694906366448182
aF0.8775471669172245
aF0.4418473503427071
aF0.1813960424878159
aF0.042158802170370824
aa(lp69
F-0.1412351827763713
aF-0.06238822974415291
aF0.9749986707155875
aF0.8815126588095925
aF0.43509286119810403
aF0.17862305403624412
aF0.04151432354808562
aa(lp70
F-0.1371467945573872
aF-0.06133089100710095
aF0.9805067047863572
aF0.8854169269440306
aF0.4283081535197739
aF0.17583765966569692
aF0.04086696162869726
aa(lp71
F-0.13305840633840313
aF-0.06027355227004899
aF0.9860147388571265
aF0.8892597001571415
aF0.42149369852647495
aF0.17304005283035662
aF0.04021676137347663
aa(lp72
F-0.12897001811941905
aF-0.05921621353299703
aF0.9915227729278961
aF0.893040711556539
aF0.4146499695030078
aF0.17023042783259876
aF0.039563767940825764
aa(lp73
F-0.12488162990043497
aF-0.05815887479594507
aF0.9970308069986655
aF0.8967596985393842
aF0.4077774417673443
aF0.16740897980949715
aF0.03890802668314141
aa(lp74
F-0.12079324168145089
aF-0.057101536058893114
aF1.002538841069435
aF0.9004164028106245
aF0.400876592637615
aF0.16457590471927092
aF0.038249583143665215
aa(lp75
F-0.11670485346246683
aF-0.05604419732184116
aF1.0080468751402045
aF0.9040105704009322
aF0.3939479013989583
aF0.16173139932767472
aF0.03758848305332056
aa(lp76
F-0.11261646524348273
aF-0.054986858584789196
aF1.013554909210974
aF0.9075419516843444
aF0.3869918492702324
aF0.15887566119433263
aF0.03692477232753645
aa(lp77
F-0.10852807702449865
aF-0.05392951984773724
aF1.0190629432817435
aF0.9110103013955992
aF0.38000891937059317
aF0.15600888865901713
aF0.03625849706305853
aa(lp78
F-0.10443968880551457
aF-0.05287218111068528
aF1.024570977352513
aF0.9144153786471712
aF0.3729995966859403
aF0.1531312808278738
aF0.03558970353474751
aa(lp79
F-0.1003513005865305
aF-0.05181484237363332
aF1.0300790114232825
aF0.9177569469460013
aF0.36596436803523313
aF0.15024303755959267
aF0.03491843819236526
aa(lp80
F-0.09626291236754642
aF-0.05075750363658136
aF1.0355870454940521
aF0.9210347742099216
aF0.35890372203668003
aF0.1473443594515276
aF0.034244747657348716
aa(lp81
F-0.09217452414856234
aF-0.04970016489952941
aF1.0410950795648215
aF0.9242486327837751
aF0.3518181490738019
aF0.14443544782576395
aF0.03356867871957187
aa(lp82
F-0.08808613592957826
aF-0.04864282616247744
aF1.0466031136355909
aF0.9273982994552263
aF0.3447081412613739
aF0.14151650471513638
aF0.03289027833409609
aa(lp83
F-0.08399774771059418
aF-0.04758548742542549
aF1.0521111477063605
aF0.930483555470264
aF0.3375741924112464
aF0.1385877328491969
aF0.03220959361790895
aa(lp84
F-0.0799093594916101
aF-0.04652814868837352
aF1.0576191817771299
aF0.933504186548395
aF0.3304167979980484
aF0.13564933564013473
aF0.03152667184665177
aa(lp85
F-0.07582097127262602
aF-0.04547080995132157
aF1.0631272158478995
aF0.9364599828975262
aF0.323236455124775
aF0.13270151716864872
aF0.03084156045133623
aa(lp86
F-0.07173258305364193
aF-0.044413471214269605
aF1.0686352499186689
aF0.9393507392285345
aF0.31603366248826215
aF0.12974448216977316
aF0.0301543070150501
aa(lp87
F-0.06764419483465785
aF-0.043356132477217646
aF1.0741432839894385
aF0.9421762547695272
aF0.30880892034455115
aF0.12677843601865868
aF0.029464959269652483
aa(lp88
F-0.06355580661567377
aF-0.042298793740165694
aF1.0796513180602079
aF0.944936333279783
aF0.30156273047414345
aF0.12380358471630787
aF0.028773565092458667
aa(lp89
F-0.05946741839668969
aF-0.04124145500311373
aF1.0851593521309773
aF0.9476307830633836
aF0.294295596147151
aF0.12082013487526813
aF0.028080172502914898
aa(lp90
F-0.05537903017770561
aF-0.04018411626606177
aF1.0906673862017469
aF0.9502594169825271
aF0.2870080220883427
aF0.11782829370528178
aF0.02738482965926329
aa(lp91
F-0.05129064195872153
aF-0.03912677752900981
aF1.0961754202725165
aF0.9528220524705255
aF0.2797005144420893
aF0.11482826899889463
aF0.02668758485519709
aa(lp92
F-0.04720225373973745
aF-0.03806943879195785
aF1.1016834543432859
aF0.9553185115444838
aF0.27237358073721046
aF0.11182026911702424
aF0.025988486516506537
aa(lp93
F-0.04311386552075336
aF-0.03701210005490589
aF1.1071914884140552
aF0.9577486208176622
aF0.2650277298517251
aF0.10880450297448847
aF0.02528758319771552
aa(lp94
F-0.03902547730176928
aF-0.035954761317853925
aF1.1126995224848248
aF0.9601122115115184
aF0.2576634719775085
aF0.105781180025496
aF0.02458492357870935
aa(lp95
F-0.034937089082785186
aF-0.034897422580801966
aF1.1182075565555942
aF0.9624091194674284
aF0.2502813185848575
aF0.10275051024909865
aF0.023880556461353744
aa(lp96
F-0.03084870086380111
aF-0.033840083843750014
aF1.1237155906263638
aF0.9646391851580902
aF0.24288178238696806
aF0.09971270413460818
aF0.023174530766105463
aa(lp97
F-0.02676031264481702
aF-0.03278274510669805
aF1.1292236246971332
aF0.9668022536986014
aF0.23546537730432474
aF0.09666797266697673
aF0.02246689552861455
aa(lp98
F-0.022671924425832955
aF-0.03172540636964609
aF1.1347316587679028
aF0.9688981748572173
aF0.22803261842900824
aF0.09361652731214354
aF0.021757699896318712
aa(lp99
F-0.01858353620684886
aF-0.03066806763259413
aF1.1402396928386722
aF0.9709268030657846
aF0.2205840219889201
aF0.09055858000234787
aF0.021046993125029848
aa(lp100
F-0.014495147987864783
aF-0.02961072889554217
aF1.1457477269094416
aF0.9728879974298522
aF0.2131201053119295
aF0.08749434312140977
aF0.020334824575513118
aa(lp101
F-0.0104067597688807
aF-0.028553390158490212
aF1.1512557609802112
aF0.9747816217384562
aF0.20564138678994298
aF0.08442402948997924
aF0.019621243710058637
aa(lp102
F-0.006318371549896621
aF-0.027496051421438253
aF1.1567637950509808
aF0.97660754447358
aF0.19814838584290062
aF0.0813478523507552
aF0.018906300089046212
aa(lp103
F-0.0022299833309125383
aF-0.026438712684386294
aF1.1622718291217502
aF0.9783656388192894
aF0.1906416228827007
aF0.07826602535367529
aF0.018190043367503198
aa(lp104
F0.001858404888071541
aF-0.025381373947334335
aF1.1677798631925196
aF0.9800557826705396
aF0.18312161927705561
aF0.075178762541077
aF0.017472523291655807
aa(lp105
F0.005946793107055624
aF-0.024324035210282376
aF1.1732878972632892
aF0.981677858641656
aF0.17558889731328103
aF0.0720862783328319
aF0.016753789695474083
aa(lp106
F0.010035181326039706
aF-0.023266696473230417
aF1.1787959313340586
aF0.9832317540744875
aF0.1680439801620218
aF0.06898878751145357
aF0.016033892497210787
aa(lp107
F0.014123569545023786
aF-0.022209357736178457
aF1.1843039654048282
aF0.9847173610462298
aF0.16048739184091573
aF0.06588650520718013
aF0.015312881695934397
aa(lp108
F0.01821195776400786
aF-0.0211520189991265
aF1.1898119994755976
aF0.9861345763769223
aF0.1529196571781994
aF0.06277964688303296
aF0.014590807368056555
aa(lp109
F0.022300345982991947
aF-0.02009468026207454
aF1.1953200335463672
aF0.9874833016366132
aF0.14534130177625687
aF0.05966842831985203
aF0.013867719663854076
aa(lp110
F0.026388734201976044
aF-0.019037341525022577
aF1.2008280676171366
aF0.9887634431521966
aF0.13775285197511505
aF0.05655306560130926
aF0.013143668803985865
aa(lp111
F0.030477122420960106
aF-0.01798000278797062
aF1.2063361016879062
aF0.9899749120139177
aF0.13015483481588808
aF0.05343377509890093
aF0.012418705076004961
aa(lp112
F0.03456551063994419
aF-0.016922664050918662
aF1.2118441357586756
aF0.9911176240815484
aF0.12254777800417219
aF0.050310773456919894
aF0.011692878830865875
aa(lp113
F0.03865389885892827
aF-0.015865325313866703
aF1.2173521698294452
aF0.9921914999902303
aF0.11493220987339534
aF0.04718427757740905
aF0.010966240479427581
aa(lp114
F0.04274228707791235
aF-0.014807986576814744
aF1.2228602039002145
aF0.9931964651559883
aF0.1073086593481227
aF0.04405450460509685
aF0.010238840488952341
aa(lp115
F0.04683067529689643
aF-0.013750647839762783
aF1.228368237970984
aF0.9941324497809083
aF0.09967765590732117
aF0.04092167191231582
aF0.009510729379600565
aa(lp116
F0.05091906351588052
aF-0.012693309102710824
aF1.2338762720417535
aF0.9949993888579883
aF0.09203972954758557
aF0.037785997083905544
aF0.008781957720922069
aa(lp117
F0.0550074517348646
aF-0.011635970365658865
aF1.2393843061125231
aF0.9957972221756497
aF0.08439541074632863
aF0.034647697902100566
aF0.008052576128343833
aa(lp118
F0.05909583995384868
aF-0.010578631628606906
aF1.2448923401832925
aF0.9965258943219217
aF0.07674523042493775
aF0.03150699233140486
aF0.007322635259654621
aa(lp119
F0.06318422817283276
aF-0.009521292891554947
aF1.250400374254062
aF0.9971853546882887
aF0.06908971991190087
aF0.028364098503453495
aF0.006592185811486637
aa(lp120
F0.06727261639181684
aF-0.008463954154502988
aF1.2559084083248315
aF0.9977755574732055
aF0.0614294109059041
aF0.025219234701862697
aF0.005861278515794492
aa(lp121
F0.07136100461080092
aF-0.007406615417451029
aF1.2614164423956011
aF0.9982964616852786
aF0.05376483543890363
aF0.022072619347069413
aF0.005129964136331712
aa(lp122
F0.07544939282978501
aF-0.006349276680399068
aF1.2669244764663703
aF0.9987480311461123
aF0.04609652583917441
aF0.018924470981161335
aF0.004398293465125036
aa(lp123
F0.07953778104876909
aF-0.005291937943347107
aF1.27243251053714
aF0.9991302344928231
aF0.038425014694338386
aF0.01577500825269847
aF0.003666317318946761
aa(lp124
F0.08362616926775317
aF-0.00423459920629515
aF1.2779405446079095
aF0.9994430451802161
aF0.030750834814374652
aF0.012624449901527359
aF0.002934086535785358
aa(lp125
F0.08771455748673726
aF-0.003177260469243189
aF1.283448578678679
aF0.9996864414826293
aF0.023074519194614063
aF0.00947301474358886
aF0.0022016519713146114
aa(lp126
F0.09180294570572133
aF-0.0021199217321912303
aF1.2889566127494485
aF0.9998604064954432
aF0.015396600978721265
aF0.006320921655720796
aF0.0014690644953615517
aa(lp127
F0.09589133392470542
aF-0.00106258299513927
aF1.294464646820218
aF0.9999649281362538
aF0.007717613421666023
aF0.003168389560456205
aF0.000736374988373373
aa(lp128
F0.0999797221436895
aF-5.244258087311612e-06
aF1.2999726808909875
aF0.999999999145713
aF3.80898526871955e-05
aF1.5637410818560102e-05
aF3.6343378836435917e-06
aa.