(lp0
(dp1
S'q'
p2
(lp3
I0
aI0
aF0.5
acnumpy.core.multiarray
scalar
p4
(cnumpy
dtype
p5
(S'f8'
p6
I0
I1
tp7
Rp8
(I3
S'<'
p9
NNNI-1
I-1
I0
tp10
bS'\x10\x96\xd3\xe70]\xcf\xbf'
p11
tp12
Rp13
ag4
(g8
S'<W\xe2\x8a\\\xfe\xcd?'
p14
tp15
Rp16
ag4
(g8
S'\x89.p#\x85P\xaf?'
p17
tp18
Rp19
ag4
(g8
S'i\xa9\x8fz\x7f\n\xee?'
p20
tp21
Rp22
aF-0.4173931045342512
aF0.18875513025089005
aF0.26729188762398715
aF0.029884534652419692
aF0.929902982462381
aF0.8248735041860928
aF-1.239054363269058
aF-0.5878140937711753
aF-0.6791521251762529
aF0.8394869945474837
aF0.17
aF-2.4224251656238662
aF-1.328481050940699
aF1.3883512669569116
aF-1.9412005005224364
aF0.1196820812594992
aF-1.2925214908921259
aF0.1728468308401512
aF-0.16478901887385783
aF0.2577250853380705
aF-0.472324837467734
aF1.2416275027489707
aF-1.121258558395711
aF0.07212776252652975
aF-0.3830351273188
aF0.29012914163741477
aF-1.0444386367872742
aF1.4101070726694793
aF-0.14228701234996466
aF0.04246369021739238
asS'contact_points'
p23
(dp24
S'LLEG_JOINT5'
p25
(dp26
S'P'
p27
(lp28
(lp29
F0.09
aF0.05
aF-0.105
aa(lp30
F0.09
aF-0.05
aF-0.105
aa(lp31
F-0.09
aF-0.05
aF-0.105
aa(lp32
F-0.09
aF0.05
aF-0.105
aasS'N'
p33
(lp34
(lp35
F-1.3877787807814457e-17
aF0.0
aF0.9999999999999999
aa(lp36
F-1.3877787807814457e-17
aF0.0
aF0.9999999999999999
aa(lp37
F-1.3877787807814457e-17
aF0.0
aF0.9999999999999999
aa(lp38
F-1.3877787807814457e-17
aF0.0
aF0.9999999999999999
aassS'RARM_JOINT5'
p39
(dp40
g27
(lp41
(lp42
F0.004999999999999982
aF-0.045
aF0.06499999999999996
aa(lp43
F0.004999999999999992
aF-0.04499999999999999
aF0.10499999999999995
aa(lp44
F-0.02500000000000001
aF-0.044999999999999984
aF0.10499999999999997
aa(lp45
F-0.025000000000000015
aF-0.04499999999999999
aF0.06499999999999997
aasg33
(lp46
(lp47
F-1.3322676295501878e-15
aF0.9999999999999969
aF4.440892098500626e-16
aa(lp48
F-1.3322676295501878e-15
aF0.9999999999999969
aF4.440892098500626e-16
aa(lp49
F-1.3322676295501878e-15
aF0.9999999999999969
aF4.440892098500626e-16
aa(lp50
F-1.3322676295501878e-15
aF0.9999999999999969
aF4.440892098500626e-16
aassS'LARM_JOINT5'
p51
(dp52
g27
(lp53
(lp54
F0.02499999999999998
aF-0.045
aF0.06499999999999996
aa(lp55
F0.024999999999999988
aF-0.04499999999999999
aF0.10499999999999995
aa(lp56
F-0.00500000000000001
aF-0.044999999999999984
aF0.10499999999999997
aa(lp57
F-0.00500000000000002
aF-0.04499999999999999
aF0.06499999999999997
aasg33
(lp58
(lp59
F-1.7486012637846216e-15
aF0.9999999999999977
aF6.661338147750939e-16
aa(lp60
F-1.7486012637846216e-15
aF0.9999999999999977
aF6.661338147750939e-16
aa(lp61
F-1.7486012637846216e-15
aF0.9999999999999977
aF6.661338147750939e-16
aa(lp62
F-1.7486012637846216e-15
aF0.9999999999999977
aF6.661338147750939e-16
aassS'RLEG_JOINT5'
p63
(dp64
g27
(lp65
(lp66
F0.09
aF0.05
aF-0.105
aa(lp67
F0.09
aF-0.05
aF-0.105
aa(lp68
F-0.09
aF-0.05
aF-0.105
aa(lp69
F-0.09
aF0.05
aF-0.105
aasg33
(lp70
(lp71
F0.0
aF-5.551115123125783e-17
aF0.9999999999999998
aa(lp72
F0.0
aF-5.551115123125783e-17
aF0.9999999999999998
aa(lp73
F0.0
aF-5.551115123125783e-17
aF0.9999999999999998
aa(lp74
F0.0
aF-5.551115123125783e-17
aF0.9999999999999998
aasssg33
(lp75
g35
ag36
ag37
ag38
ag71
ag72
ag73
ag74
ag47
ag48
ag49
ag50
ag59
ag60
ag61
ag62
asg27
(lp76
g29
ag30
ag31
ag32
ag66
ag67
ag68
ag69
ag42
ag43
ag44
ag45
ag54
ag55
ag56
ag57
asa(dp77
g2
(lp78
I0
aI0
aF0.5
ag4
(g8
S'\x87\xe3\xa678\x02\xb4\xbf'
p79
tp80
Rp81
ag4
(g8
S'M\x95\x1a\xed\xf2\xe9\xa4?'
p82
tp83
Rp84
ag4
(g8
S'\x17x\xfe\x9b\x8fAj?'
p85
tp86
Rp87
ag4
(g8
S'n\xbe\xc0(\n\xe0\xef?'
p88
tp89
Rp90
aF0.41017761955805665
aF0.28334162965436904
aF0.610436035945884
aF0.09963935085607056
aF-0.8108908049954011
aF0.5675716372924744
aF-0.9242843783765958
aF-0.32348417133732
aF0.559032188810656
aF-0.3722354062465649
aF0.17
aF-2.145853893988451
aF-1.4977861470909035
aF1.360239273782512
aF-0.16368224201513337
aF0.7880029899408589
aF0.23014248055687303
aF0.17418619041758876
aF0.32432432152899326
aF-0.16921452987583332
aF-1.0709803964850428
aF0.013333611690562124
aF0.5200059377042314
aF-0.1253666795372072
aF0.11973436320789832
aF-0.5568315150171046
aF-1.265967513092359
aF0.36386177303054085
aF0.27848343240047213
aF0.051769824789916596
asg23
(dp91
g25
(dp92
g27
(lp93
(lp94
F0.09
aF0.05
aF-0.105
aa(lp95
F0.09
aF-0.05
aF-0.105
aa(lp96
F-0.09
aF-0.05
aF-0.105
aa(lp97
F-0.09
aF0.05
aF-0.105
aasg33
(lp98
(lp99
F-1.1102230246251565e-16
aF5.551115123125783e-17
aF1.0
aa(lp100
F-1.1102230246251565e-16
aF5.551115123125783e-17
aF1.0
aa(lp101
F-1.1102230246251565e-16
aF5.551115123125783e-17
aF1.0
aa(lp102
F-1.1102230246251565e-16
aF5.551115123125783e-17
aF1.0
aassg39
(dp103
g27
(lp104
(lp105
F0.004999999999999982
aF-0.045
aF0.06499999999999996
aa(lp106
F0.004999999999999992
aF-0.04499999999999999
aF0.10499999999999995
aa(lp107
F-0.02500000000000001
aF-0.044999999999999984
aF0.10499999999999997
aa(lp108
F-0.025000000000000015
aF-0.04499999999999999
aF0.06499999999999997
aasg33
(lp109
(lp110
F2.7755575615628914e-15
aF0.9999999999999982
aF-6.661338147750939e-16
aa(lp111
F2.7755575615628914e-15
aF0.9999999999999982
aF-6.661338147750939e-16
aa(lp112
F2.7755575615628914e-15
aF0.9999999999999982
aF-6.661338147750939e-16
aa(lp113
F2.7755575615628914e-15
aF0.9999999999999982
aF-6.661338147750939e-16
aassg51
(dp114
g27
(lp115
(lp116
F0.02499999999999998
aF-0.045
aF0.06499999999999996
aa(lp117
F0.024999999999999988
aF-0.04499999999999999
aF0.10499999999999995
aa(lp118
F-0.00500000000000001
aF-0.044999999999999984
aF0.10499999999999997
aa(lp119
F-0.00500000000000002
aF-0.04499999999999999
aF0.06499999999999997
aasg33
(lp120
(lp121
F7.216449660063518e-16
aF0.9999999999999992
aF3.3306690738754696e-16
aa(lp122
F7.216449660063518e-16
aF0.9999999999999992
aF3.3306690738754696e-16
aa(lp123
F7.216449660063518e-16
aF0.9999999999999992
aF3.3306690738754696e-16
aa(lp124
F7.216449660063518e-16
aF0.9999999999999992
aF3.3306690738754696e-16
aassg63
(dp125
g27
(lp126
(lp127
F0.09
aF0.05
aF-0.105
aa(lp128
F0.09
aF-0.05
aF-0.105
aa(lp129
F-0.09
aF-0.05
aF-0.105
aa(lp130
F-0.09
aF0.05
aF-0.105
aasg33
(lp131
(lp132
F5.551115123125783e-17
aF-1.1102230246251565e-16
aF1.0
aa(lp133
F5.551115123125783e-17
aF-1.1102230246251565e-16
aF1.0
aa(lp134
F5.551115123125783e-17
aF-1.1102230246251565e-16
aF1.0
aa(lp135
F5.551115123125783e-17
aF-1.1102230246251565e-16
aF1.0
aasssg33
(lp136
g99
ag100
ag101
ag102
ag132
ag133
ag134
ag135
ag110
ag111
ag112
ag113
ag121
ag122
ag123
ag124
asg27
(lp137
g94
ag95
ag96
ag97
ag127
ag128
ag129
ag130
ag105
ag106
ag107
ag108
ag116
ag117
ag118
ag119
asa(dp138
g2
(lp139
I0
aI0
aF0.5
ag4
(g8
S'\xb6\xaf\xe3\xd6\x9c\xa7\xd3\xbf'
p140
tp141
Rp142
ag4
(g8
S'\xdc\x8e\x0b\xd4\xf04\xb8?'
p143
tp144
Rp145
ag4
(g8
S'\x02\\uX\x00k\x9f?'
p146
tp147
Rp148
ag4
(g8
S'W\xbbY\xa1yI\xee?'
p149
tp150
Rp151
aF0.06319950387470308
aF-0.07100764130735288
aF-0.4052134553196726
aF-0.4875888040882693
aF-0.9777883189834409
aF1.2125607895664308
aF1.117640752976267
aF-1.4342608315938303
aF-0.5862755212047024
aF-1.202271863528421
aF0.17
aF-0.5988650519421439
aF-0.025426630255966254
aF0.3187418634423249
aF-1.9706034171844866
aF0.6167029252409948
aF-0.23980324088246707
aF0.17324342646554272
aF-0.1396426408712727
aF0.5899615867512588
aF0.5659568583672239
aF0.28021030557112797
aF-0.4837332217960819
aF0.07873162002206069
aF-0.33540673537287335
aF0.21365435965304325
aF0.04188614432659099
aF-0.022583683480064426
aF0.3270233143889678
aF-0.1296140653729169
asg23
(dp152
g25
(dp153
g27
(lp154
(lp155
F0.09
aF0.05
aF-0.105
aa(lp156
F0.09
aF-0.05
aF-0.105
aa(lp157
F-0.09
aF-0.05
aF-0.105
aa(lp158
F-0.09
aF0.05
aF-0.105
aasg33
(lp159
(lp160
F1.1102230246251565e-16
aF-1.734723475976807e-17
aF1.0
aa(lp161
F1.1102230246251565e-16
aF-1.734723475976807e-17
aF1.0
aa(lp162
F1.1102230246251565e-16
aF-1.734723475976807e-17
aF1.0
aa(lp163
F1.1102230246251565e-16
aF-1.734723475976807e-17
aF1.0
aassg39
(dp164
g27
(lp165
(lp166
F0.004999999999999982
aF-0.045
aF0.06499999999999996
aa(lp167
F0.004999999999999992
aF-0.04499999999999999
aF0.10499999999999995
aa(lp168
F-0.02500000000000001
aF-0.044999999999999984
aF0.10499999999999997
aa(lp169
F-0.025000000000000015
aF-0.04499999999999999
aF0.06499999999999997
aasg33
(lp170
(lp171
F-1.9984014443252818e-15
aF0.9999999999999986
aF-7.979727989493313e-17
aa(lp172
F-1.9984014443252818e-15
aF0.9999999999999986
aF-7.979727989493313e-17
aa(lp173
F-1.9984014443252818e-15
aF0.9999999999999986
aF-7.979727989493313e-17
aa(lp174
F-1.9984014443252818e-15
aF0.9999999999999986
aF-7.979727989493313e-17
aassg51
(dp175
g27
(lp176
(lp177
F0.02499999999999998
aF-0.045
aF0.06499999999999996
aa(lp178
F0.024999999999999988
aF-0.04499999999999999
aF0.10499999999999995
aa(lp179
F-0.00500000000000001
aF-0.044999999999999984
aF0.10499999999999997
aa(lp180
F-0.00500000000000002
aF-0.04499999999999999
aF0.06499999999999997
aasg33
(lp181
(lp182
F2.498001805406602e-16
aF0.9999999999999976
aF-1.1102230246251565e-16
aa(lp183
F2.498001805406602e-16
aF0.9999999999999976
aF-1.1102230246251565e-16
aa(lp184
F2.498001805406602e-16
aF0.9999999999999976
aF-1.1102230246251565e-16
aa(lp185
F2.498001805406602e-16
aF0.9999999999999976
aF-1.1102230246251565e-16
aassg63
(dp186
g27
(lp187
(lp188
F0.09
aF0.05
aF-0.105
aa(lp189
F0.09
aF-0.05
aF-0.105
aa(lp190
F-0.09
aF-0.05
aF-0.105
aa(lp191
F-0.09
aF0.05
aF-0.105
aasg33
(lp192
(lp193
F8.326672684688674e-17
aF-5.551115123125783e-17
aF0.9999999999999999
aa(lp194
F8.326672684688674e-17
aF-5.551115123125783e-17
aF0.9999999999999999
aa(lp195
F8.326672684688674e-17
aF-5.551115123125783e-17
aF0.9999999999999999
aa(lp196
F8.326672684688674e-17
aF-5.551115123125783e-17
aF0.9999999999999999
aasssg33
(lp197
g160
ag161
ag162
ag163
ag193
ag194
ag195
ag196
ag171
ag172
ag173
ag174
ag182
ag183
ag184
ag185
asg27
(lp198
g155
ag156
ag157
ag158
ag188
ag189
ag190
ag191
ag166
ag167
ag168
ag169
ag177
ag178
ag179
ag180
asa(dp199
g2
(lp200
I0
aI0
aF0.5
ag4
(g8
S'x?Iy\xdf\xb0\xd6\xbf'
p201
tp202
Rp203
ag4
(g8
S'\x9cu?8\n\x87\xc3?'
p204
tp205
Rp206
ag4
(g8
S'\xa8\x80i\xc4\xb3\x14\xae?'
p207
tp208
Rp209
ag4
(g8
S'\xe2\xea\r\xbf\xdau\xed?'
p210
tp211
Rp212
aF-0.770548897426072
aF0.8531047224988909
aF-0.4164176492479554
aF-0.4889392244403536
aF-1.3382314751906839
aF1.379291872123463
aF1.4579876049132492
aF-2.315471838815525
aF-0.06897406746254964
aF0.851854620057044
aF0.17
aF-2.497395418428506
aF-1.2996948167439601
aF-1.1625120061915424
aF-0.6730741890545577
aF1.462871090596528
aF-1.2617210920557478
aF0.17376205668727032
aF0.014449736337971752
aF0.5029255125237715
aF0.4379262448327439
aF0.8228974249429779
aF-1.2652691564990837
aF-0.239626405315418
aF0.12806555893253158
aF-0.19726579610627598
aF-1.4797243351615164
aF0.40730110588108653
aF0.18151904088319037
aF0.1965398145424173
asg23
(dp213
g25
(dp214
g27
(lp215
(lp216
F0.09
aF0.05
aF-0.105
aa(lp217
F0.09
aF-0.05
aF-0.105
aa(lp218
F-0.09
aF-0.05
aF-0.105
aa(lp219
F-0.09
aF0.05
aF-0.105
aasg33
(lp220
(lp221
F0.0
aF-1.1102230246251565e-16
aF1.0
aa(lp222
F0.0
aF-1.1102230246251565e-16
aF1.0
aa(lp223
F0.0
aF-1.1102230246251565e-16
aF1.0
aa(lp224
F0.0
aF-1.1102230246251565e-16
aF1.0
aassg39
(dp225
g27
(lp226
(lp227
F0.004999999999999982
aF-0.045
aF0.06499999999999996
aa(lp228
F0.004999999999999992
aF-0.04499999999999999
aF0.10499999999999995
aa(lp229
F-0.02500000000000001
aF-0.044999999999999984
aF0.10499999999999997
aa(lp230
F-0.025000000000000015
aF-0.04499999999999999
aF0.06499999999999997
aasg33
(lp231
(lp232
F8.881784197001252e-16
aF0.9999999999999986
aF-5.551115123125783e-16
aa(lp233
F8.881784197001252e-16
aF0.9999999999999986
aF-5.551115123125783e-16
aa(lp234
F8.881784197001252e-16
aF0.9999999999999986
aF-5.551115123125783e-16
aa(lp235
F8.881784197001252e-16
aF0.9999999999999986
aF-5.551115123125783e-16
aassg51
(dp236
g27
(lp237
(lp238
F0.02499999999999998
aF-0.045
aF0.06499999999999996
aa(lp239
F0.024999999999999988
aF-0.04499999999999999
aF0.10499999999999995
aa(lp240
F-0.00500000000000001
aF-0.044999999999999984
aF0.10499999999999997
aa(lp241
F-0.00500000000000002
aF-0.04499999999999999
aF0.06499999999999997
aasg33
(lp242
(lp243
F5.551115123125783e-17
aF0.9999999999999987
aF8.326672684688674e-16
aa(lp244
F5.551115123125783e-17
aF0.9999999999999987
aF8.326672684688674e-16
aa(lp245
F5.551115123125783e-17
aF0.9999999999999987
aF8.326672684688674e-16
aa(lp246
F5.551115123125783e-17
aF0.9999999999999987
aF8.326672684688674e-16
aassg63
(dp247
g27
(lp248
(lp249
F0.09
aF0.05
aF-0.105
aa(lp250
F0.09
aF-0.05
aF-0.105
aa(lp251
F-0.09
aF-0.05
aF-0.105
aa(lp252
F-0.09
aF0.05
aF-0.105
aasg33
(lp253
(lp254
F1.942890293094024e-16
aF-1.6653345369377348e-16
aF1.0
aa(lp255
F1.942890293094024e-16
aF-1.6653345369377348e-16
aF1.0
aa(lp256
F1.942890293094024e-16
aF-1.6653345369377348e-16
aF1.0
aa(lp257
F1.942890293094024e-16
aF-1.6653345369377348e-16
aF1.0
aasssg33
(lp258
g221
ag222
ag223
ag224
ag254
ag255
ag256
ag257
ag232
ag233
ag234
ag235
ag243
ag244
ag245
ag246
asg27
(lp259
g216
ag217
ag218
ag219
ag249
ag250
ag251
ag252
ag227
ag228
ag229
ag230
ag238
ag239
ag240
ag241
asa(dp260
g2
(lp261
I0
aI0
aF0.5
ag4
(g8
S'\xd7I\xd9\x10\xa8\x10\xc0?'
p262
tp263
Rp264
ag4
(g8
S'\x0fD\x99\x92\xb0\xd6\xd5?'
p265
tp266
Rp267
ag4
(g8
S'-\xa5\x19\xbc-\x91\xa7\xbf'
p268
tp269
Rp270
ag4
(g8
S'\xc4\x7f\xdc\x1b\x0c\xc6\xed?'
p271
tp272
Rp273
aF-0.20645982614563863
aF-0.07311504179712597
aF-0.5819717595171285
aF0.45113274435831086
aF-0.6863204790112842
aF0.898853210058379
aF-0.8612084384897297
aF-1.5945321795399394
aF0.938460452329908
aF1.0054314919260945
aF0.17
aF-2.4040350379012314
aF-0.1289461818266857
aF0.24607587288942923
aF-1.9198720188994025
aF-0.7891304563897803
aF1.1175377496211965
aF0.1673611978079943
aF-0.2655029635161683
aF-0.1846848170046619
aF-2.138726132162546
aF0.8389296194689434
aF0.23666859425753928
aF-0.6061718761308035
aF-0.6124431505671704
aF0.029048661730860625
aF-1.3573077740353652
aF0.5995828467086912
aF0.6656952122281106
aF-0.26793133907864025
asg23
(dp274
g25
(dp275
g27
(lp276
(lp277
F0.09
aF0.05
aF-0.105
aa(lp278
F0.09
aF-0.05
aF-0.105
aa(lp279
F-0.09
aF-0.05
aF-0.105
aa(lp280
F-0.09
aF0.05
aF-0.105
aasg33
(lp281
(lp282
F-2.7755575615628914e-17
aF1.6653345369377348e-16
aF0.9999999999999998
aa(lp283
F-2.7755575615628914e-17
aF1.6653345369377348e-16
aF0.9999999999999998
aa(lp284
F-2.7755575615628914e-17
aF1.6653345369377348e-16
aF0.9999999999999998
aa(lp285
F-2.7755575615628914e-17
aF1.6653345369377348e-16
aF0.9999999999999998
aassg39
(dp286
g27
(lp287
(lp288
F0.004999999999999982
aF-0.045
aF0.06499999999999996
aa(lp289
F0.004999999999999992
aF-0.04499999999999999
aF0.10499999999999995
aa(lp290
F-0.02500000000000001
aF-0.044999999999999984
aF0.10499999999999997
aa(lp291
F-0.025000000000000015
aF-0.04499999999999999
aF0.06499999999999997
aasg33
(lp292
(lp293
F-6.106226635438361e-16
aF0.9999999999999989
aF7.216449660063518e-16
aa(lp294
F-6.106226635438361e-16
aF0.9999999999999989
aF7.216449660063518e-16
aa(lp295
F-6.106226635438361e-16
aF0.9999999999999989
aF7.216449660063518e-16
aa(lp296
F-6.106226635438361e-16
aF0.9999999999999989
aF7.216449660063518e-16
aassg51
(dp297
g27
(lp298
(lp299
F0.02499999999999998
aF-0.045
aF0.06499999999999996
aa(lp300
F0.024999999999999988
aF-0.04499999999999999
aF0.10499999999999995
aa(lp301
F-0.00500000000000001
aF-0.044999999999999984
aF0.10499999999999997
aa(lp302
F-0.00500000000000002
aF-0.04499999999999999
aF0.06499999999999997
aasg33
(lp303
(lp304
F6.973588373426765e-16
aF0.9999999999999987
aF-5.551115123125783e-17
aa(lp305
F6.973588373426765e-16
aF0.9999999999999987
aF-5.551115123125783e-17
aa(lp306
F6.973588373426765e-16
aF0.9999999999999987
aF-5.551115123125783e-17
aa(lp307
F6.973588373426765e-16
aF0.9999999999999987
aF-5.551115123125783e-17
aassg63
(dp308
g27
(lp309
(lp310
F0.09
aF0.05
aF-0.105
aa(lp311
F0.09
aF-0.05
aF-0.105
aa(lp312
F-0.09
aF-0.05
aF-0.105
aa(lp313
F-0.09
aF0.05
aF-0.105
aasg33
(lp314
(lp315
F-1.1102230246251565e-16
aF0.0
aF1.0
aa(lp316
F-1.1102230246251565e-16
aF0.0
aF1.0
aa(lp317
F-1.1102230246251565e-16
aF0.0
aF1.0
aa(lp318
F-1.1102230246251565e-16
aF0.0
aF1.0
aasssg33
(lp319
g282
ag283
ag284
ag285
ag315
ag316
ag317
ag318
ag293
ag294
ag295
ag296
ag304
ag305
ag306
ag307
asg27
(lp320
g277
ag278
ag279
ag280
ag310
ag311
ag312
ag313
ag288
ag289
ag290
ag291
ag299
ag300
ag301
ag302
asa(dp321
g2
(lp322
I0
aI0
aF0.5
ag4
(g8
S'O\xa9r\xf2O\x9d\xc3?'
p323
tp324
Rp325
ag4
(g8
S'\xe8^\n\xd3\\3\x96?'
p326
tp327
Rp328
ag4
(g8
S'rfc\xd0G\x8ck\xbf'
p329
tp330
Rp331
ag4
(g8
S'\x81\xba}F@\x9d\xef?'
p332
tp333
Rp334
aF-0.7844410030787378
aF0.7152027329907179
aF0.24945044306240982
aF0.5182867115323163
aF-1.3678273949121718
aF0.41753520216044376
aF-0.08943248022428363
aF-1.2851162739583821
aF0.010195134625442082
aF0.6630357870772181
aF0.17
aF-1.5993385780054323
aF-1.176051155175563
aF-0.6433380474903797
aF-1.0380963663447824
aF-0.22083640505184254
aF1.123687653621839
aF0.1716460679223044
aF0.7664672704538203
aF-0.2289822907242902
aF-1.107416589547272
aF1.348698019162723
aF0.516787270490279
aF-0.4639244746257651
aF0.14456303866670572
aF-0.2724130475530336
aF-1.4084439345975528
aF1.7271222510849973
aF-0.9321996741762533
aF-0.08549924276974807
asg23
(dp335
g25
(dp336
g27
(lp337
(lp338
F0.09
aF0.05
aF-0.105
aa(lp339
F0.09
aF-0.05
aF-0.105
aa(lp340
F-0.09
aF-0.05
aF-0.105
aa(lp341
F-0.09
aF0.05
aF-0.105
aasg33
(lp342
(lp343
F-1.1102230246251565e-16
aF2.7755575615628914e-16
aF0.9999999999999998
aa(lp344
F-1.1102230246251565e-16
aF2.7755575615628914e-16
aF0.9999999999999998
aa(lp345
F-1.1102230246251565e-16
aF2.7755575615628914e-16
aF0.9999999999999998
aa(lp346
F-1.1102230246251565e-16
aF2.7755575615628914e-16
aF0.9999999999999998
aassg39
(dp347
g27
(lp348
(lp349
F0.004999999999999982
aF-0.045
aF0.06499999999999996
aa(lp350
F0.004999999999999992
aF-0.04499999999999999
aF0.10499999999999995
aa(lp351
F-0.02500000000000001
aF-0.044999999999999984
aF0.10499999999999997
aa(lp352
F-0.025000000000000015
aF-0.04499999999999999
aF0.06499999999999997
aasg33
(lp353
(lp354
F-4.2934406030425976e-16
aF0.9999999999999959
aF1.1102230246251565e-16
aa(lp355
F-4.2934406030425976e-16
aF0.9999999999999959
aF1.1102230246251565e-16
aa(lp356
F-4.2934406030425976e-16
aF0.9999999999999959
aF1.1102230246251565e-16
aa(lp357
F-4.2934406030425976e-16
aF0.9999999999999959
aF1.1102230246251565e-16
aassg51
(dp358
g27
(lp359
(lp360
F0.02499999999999998
aF-0.045
aF0.06499999999999996
aa(lp361
F0.024999999999999988
aF-0.04499999999999999
aF0.10499999999999995
aa(lp362
F-0.00500000000000001
aF-0.044999999999999984
aF0.10499999999999997
aa(lp363
F-0.00500000000000002
aF-0.04499999999999999
aF0.06499999999999997
aasg33
(lp364
(lp365
F9.43689570931383e-16
aF0.9999999999999958
aF3.885780586188048e-16
aa(lp366
F9.43689570931383e-16
aF0.9999999999999958
aF3.885780586188048e-16
aa(lp367
F9.43689570931383e-16
aF0.9999999999999958
aF3.885780586188048e-16
aa(lp368
F9.43689570931383e-16
aF0.9999999999999958
aF3.885780586188048e-16
aassg63
(dp369
g27
(lp370
(lp371
F0.09
aF0.05
aF-0.105
aa(lp372
F0.09
aF-0.05
aF-0.105
aa(lp373
F-0.09
aF-0.05
aF-0.105
aa(lp374
F-0.09
aF0.05
aF-0.105
aasg33
(lp375
(lp376
F-1.1102230246251565e-16
aF-3.469446951953614e-18
aF1.0
aa(lp377
F-1.1102230246251565e-16
aF-3.469446951953614e-18
aF1.0
aa(lp378
F-1.1102230246251565e-16
aF-3.469446951953614e-18
aF1.0
aa(lp379
F-1.1102230246251565e-16
aF-3.469446951953614e-18
aF1.0
aasssg33
(lp380
g343
ag344
ag345
ag346
ag376
ag377
ag378
ag379
ag354
ag355
ag356
ag357
ag365
ag366
ag367
ag368
asg27
(lp381
g338
ag339
ag340
ag341
ag371
ag372
ag373
ag374
ag349
ag350
ag351
ag352
ag360
ag361
ag362
ag363
asa(dp382
g2
(lp383
I0
aI0
aF0.5
ag4
(g8
S'\xc2\x83\xd0\x01\xbf:\x98\xbf'
p384
tp385
Rp386
ag4
(g8
S'\xea\x96i`\x16\xc0\xb2?'
p387
tp388
Rp389
ag4
(g8
S'Z\x19$|\x9dz\\?'
p390
tp391
Rp392
ag4
(g8
S'\x0fOMR\xaf\xe7\xef?'
p393
tp394
Rp395
aF-0.678570587240754
aF1.0099145841484238
aF0.7062122276998879
aF0.3157374278271923
aF-2.1473475566817433
aF1.3584762049570158
aF0.9823829109390652
aF-0.9136579656815766
aF-1.5219292551076176
aF0.942134579119102
aF0.17
aF-1.909614280962252
aF-0.4707759978698618
aF1.2214557497802916
aF-1.9398590606008417
aF0.37433290233175875
aF-0.6365339056695037
aF0.16742887539902185
aF-0.2940915263568217
aF0.6019215374964763
aF0.04316898224422383
aF1.050901878295682
aF-1.1683416693348994
aF-0.318407650633199
aF0.16813166919932454
aF-0.3797820786696887
aF-1.07367570713069
aF1.1806599971321705
aF-0.2257048066809153
aF0.5778088875454697
asg23
(dp396
g25
(dp397
g27
(lp398
(lp399
F0.09
aF0.05
aF-0.105
aa(lp400
F0.09
aF-0.05
aF-0.105
aa(lp401
F-0.09
aF-0.05
aF-0.105
aa(lp402
F-0.09
aF0.05
aF-0.105
aasg33
(lp403
(lp404
F-6.938893903907228e-18
aF8.326672684688674e-17
aF1.0
aa(lp405
F-6.938893903907228e-18
aF8.326672684688674e-17
aF1.0
aa(lp406
F-6.938893903907228e-18
aF8.326672684688674e-17
aF1.0
aa(lp407
F-6.938893903907228e-18
aF8.326672684688674e-17
aF1.0
aassg39
(dp408
g27
(lp409
(lp410
F0.004999999999999982
aF-0.045
aF0.06499999999999996
aa(lp411
F0.004999999999999992
aF-0.04499999999999999
aF0.10499999999999995
aa(lp412
F-0.02500000000000001
aF-0.044999999999999984
aF0.10499999999999997
aa(lp413
F-0.025000000000000015
aF-0.04499999999999999
aF0.06499999999999997
aasg33
(lp414
(lp415
F-1.5543122344752192e-15
aF0.9999999999999987
aF-3.8163916471489756e-17
aa(lp416
F-1.5543122344752192e-15
aF0.9999999999999987
aF-3.8163916471489756e-17
aa(lp417
F-1.5543122344752192e-15
aF0.9999999999999987
aF-3.8163916471489756e-17
aa(lp418
F-1.5543122344752192e-15
aF0.9999999999999987
aF-3.8163916471489756e-17
aassg51
(dp419
g27
(lp420
(lp421
F0.02499999999999998
aF-0.045
aF0.06499999999999996
aa(lp422
F0.024999999999999988
aF-0.04499999999999999
aF0.10499999999999995
aa(lp423
F-0.00500000000000001
aF-0.044999999999999984
aF0.10499999999999997
aa(lp424
F-0.00500000000000002
aF-0.04499999999999999
aF0.06499999999999997
aasg33
(lp425
(lp426
F8.326672684688674e-16
aF0.9999999999999981
aF2.0816681711721685e-15
aa(lp427
F8.326672684688674e-16
aF0.9999999999999981
aF2.0816681711721685e-15
aa(lp428
F8.326672684688674e-16
aF0.9999999999999981
aF2.0816681711721685e-15
aa(lp429
F8.326672684688674e-16
aF0.9999999999999981
aF2.0816681711721685e-15
aassg63
(dp430
g27
(lp431
(lp432
F0.09
aF0.05
aF-0.105
aa(lp433
F0.09
aF-0.05
aF-0.105
aa(lp434
F-0.09
aF-0.05
aF-0.105
aa(lp435
F-0.09
aF0.05
aF-0.105
aasg33
(lp436
(lp437
F-1.3877787807814457e-17
aF-2.7755575615628914e-17
aF1.0000000000000002
aa(lp438
F-1.3877787807814457e-17
aF-2.7755575615628914e-17
aF1.0000000000000002
aa(lp439
F-1.3877787807814457e-17
aF-2.7755575615628914e-17
aF1.0000000000000002
aa(lp440
F-1.3877787807814457e-17
aF-2.7755575615628914e-17
aF1.0000000000000002
aasssg33
(lp441
g404
ag405
ag406
ag407
ag437
ag438
ag439
ag440
ag415
ag416
ag417
ag418
ag426
ag427
ag428
ag429
asg27
(lp442
g399
ag400
ag401
ag402
ag432
ag433
ag434
ag435
ag410
ag411
ag412
ag413
ag421
ag422
ag423
ag424
asa(dp443
g2
(lp444
I0
aI0
aF0.5
ag4
(g8
S'2lC\xc34\xff\xc5\xbf'
p445
tp446
Rp447
ag4
(g8
S'\xed\xb5;\xb6\xf5_\xd6?'
p448
tp449
Rp450
ag4
(g8
S'#%\x14[\xf8\xbd\xb0?'
p451
tp452
Rp453
ag4
(g8
S'\xcb&D\xe6\xcae\xed?'
p454
tp455
Rp456
aF-0.7570592550826507
aF0.8495849171018971
aF-0.46261708560459647
aF-0.506993919588285
aF-1.403753862149363
aF0.427223327683985
aF0.4795413119060179
aF-0.6597451192690682
aF-0.20424211278219806
aF-0.8053968932526636
aF0.17
aF0.6600251361299376
aF-1.267817895824274
aF0.042143823699114735
aF-1.0480280938797768
aF1.0807461876071274
aF-1.177794308572772
aF0.17086618852609126
aF0.20398671787316625
aF0.09581714506754097
aF-1.8092925620019653
aF2.3539509734060897
aF-1.1967015007911237
aF0.2517886342731378
aF-0.022746700997037128
aF-0.18254112871116218
aF-1.2147242102660425
aF1.1768615601206323
aF-0.2551329426120199
aF0.38588803728478593
asg23
(dp457
g25
(dp458
g27
(lp459
(lp460
F0.09
aF0.05
aF-0.105
aa(lp461
F0.09
aF-0.05
aF-0.105
aa(lp462
F-0.09
aF-0.05
aF-0.105
aa(lp463
F-0.09
aF0.05
aF-0.105
aasg33
(lp464
(lp465
F0.0
aF0.0
aF1.0
aa(lp466
F0.0
aF0.0
aF1.0
aa(lp467
F0.0
aF0.0
aF1.0
aa(lp468
F0.0
aF0.0
aF1.0
aassg39
(dp469
g27
(lp470
(lp471
F0.004999999999999982
aF-0.045
aF0.06499999999999996
aa(lp472
F0.004999999999999992
aF-0.04499999999999999
aF0.10499999999999995
aa(lp473
F-0.02500000000000001
aF-0.044999999999999984
aF0.10499999999999997
aa(lp474
F-0.025000000000000015
aF-0.04499999999999999
aF0.06499999999999997
aasg33
(lp475
(lp476
F5.273559366969494e-16
aF0.9999999999999997
aF3.0531133177191805e-16
aa(lp477
F5.273559366969494e-16
aF0.9999999999999997
aF3.0531133177191805e-16
aa(lp478
F5.273559366969494e-16
aF0.9999999999999997
aF3.0531133177191805e-16
aa(lp479
F5.273559366969494e-16
aF0.9999999999999997
aF3.0531133177191805e-16
aassg51
(dp480
g27
(lp481
(lp482
F0.02499999999999998
aF-0.045
aF0.06499999999999996
aa(lp483
F0.024999999999999988
aF-0.04499999999999999
aF0.10499999999999995
aa(lp484
F-0.00500000000000001
aF-0.044999999999999984
aF0.10499999999999997
aa(lp485
F-0.00500000000000002
aF-0.04499999999999999
aF0.06499999999999997
aasg33
(lp486
(lp487
F1.3877787807814457e-16
aF0.9999999999999992
aF7.216449660063518e-16
aa(lp488
F1.3877787807814457e-16
aF0.9999999999999992
aF7.216449660063518e-16
aa(lp489
F1.3877787807814457e-16
aF0.9999999999999992
aF7.216449660063518e-16
aa(lp490
F1.3877787807814457e-16
aF0.9999999999999992
aF7.216449660063518e-16
aassg63
(dp491
g27
(lp492
(lp493
F0.09
aF0.05
aF-0.105
aa(lp494
F0.09
aF-0.05
aF-0.105
aa(lp495
F-0.09
aF-0.05
aF-0.105
aa(lp496
F-0.09
aF0.05
aF-0.105
aasg33
(lp497
(lp498
F0.0
aF-1.3877787807814457e-17
aF1.0
aa(lp499
F0.0
aF-1.3877787807814457e-17
aF1.0
aa(lp500
F0.0
aF-1.3877787807814457e-17
aF1.0
aa(lp501
F0.0
aF-1.3877787807814457e-17
aF1.0
aasssg33
(lp502
g465
ag466
ag467
ag468
ag498
ag499
ag500
ag501
ag476
ag477
ag478
ag479
ag487
ag488
ag489
ag490
asg27
(lp503
g460
ag461
ag462
ag463
ag493
ag494
ag495
ag496
ag471
ag472
ag473
ag474
ag482
ag483
ag484
ag485
asa(dp504
g2
(lp505
I0
aI0
aF0.5
ag4
(g8
S'\x85\xca\xc0P \x80\xb4?'
p506
tp507
Rp508
ag4
(g8
S'\x99\xbflq\xb8\x06\xb3?'
p509
tp510
Rp511
ag4
(g8
S'i\x83\x17/u\x86x\xbf'
p512
tp513
Rp514
ag4
(g8
S':M]O\xd0\xce\xef?'
p515
tp516
Rp517
aF-0.45614513370806126
aF0.13947115666723256
aF0.035188465705347505
aF-0.1920194993286261
aF-1.8211049385014804
aF1.1944272516965155
aF-0.32508874477901917
aF-2.378289305403092
aF0.3709193233808592
aF0.6650862685065653
aF0.17
aF-1.4929039353900235
aF-0.25779685279093423
aF-1.4385680890841726
aF-1.1524636077064154
aF1.3300070136916389
aF-1.429385335269051
aF0.17269714792617463
aF-0.11703992216107845
aF0.2540392302131673
aF-0.16163656512602742
aF0.7247421160480036
aF-0.77403229331694
aF-0.11065256632297049
aF0.0697725308692696
aF-0.5582876240949145
aF-1.9665064833738508
aF2.3420783745346085
aF0.01252993250070955
aF-0.015961493982387
asg23
(dp518
g25
(dp519
g27
(lp520
(lp521
F0.09
aF0.05
aF-0.105
aa(lp522
F0.09
aF-0.05
aF-0.105
aa(lp523
F-0.09
aF-0.05
aF-0.105
aa(lp524
F-0.09
aF0.05
aF-0.105
aasg33
(lp525
(lp526
F2.0816681711721685e-17
aF0.0
aF1.0
aa(lp527
F2.0816681711721685e-17
aF0.0
aF1.0
aa(lp528
F2.0816681711721685e-17
aF0.0
aF1.0
aa(lp529
F2.0816681711721685e-17
aF0.0
aF1.0
aassg39
(dp530
g27
(lp531
(lp532
F0.004999999999999982
aF-0.045
aF0.06499999999999996
aa(lp533
F0.004999999999999992
aF-0.04499999999999999
aF0.10499999999999995
aa(lp534
F-0.02500000000000001
aF-0.044999999999999984
aF0.10499999999999997
aa(lp535
F-0.025000000000000015
aF-0.04499999999999999
aF0.06499999999999997
aasg33
(lp536
(lp537
F2.2898349882893854e-16
aF0.9999999999999997
aF0.0
aa(lp538
F2.2898349882893854e-16
aF0.9999999999999997
aF0.0
aa(lp539
F2.2898349882893854e-16
aF0.9999999999999997
aF0.0
aa(lp540
F2.2898349882893854e-16
aF0.9999999999999997
aF0.0
aassg51
(dp541
g27
(lp542
(lp543
F0.02499999999999998
aF-0.045
aF0.06499999999999996
aa(lp544
F0.024999999999999988
aF-0.04499999999999999
aF0.10499999999999995
aa(lp545
F-0.00500000000000001
aF-0.044999999999999984
aF0.10499999999999997
aa(lp546
F-0.00500000000000002
aF-0.04499999999999999
aF0.06499999999999997
aasg33
(lp547
(lp548
F-2.226517581416232e-15
aF0.999999999999997
aF2.246466901389965e-16
aa(lp549
F-2.226517581416232e-15
aF0.999999999999997
aF2.246466901389965e-16
aa(lp550
F-2.226517581416232e-15
aF0.999999999999997
aF2.246466901389965e-16
aa(lp551
F-2.226517581416232e-15
aF0.999999999999997
aF2.246466901389965e-16
aassg63
(dp552
g27
(lp553
(lp554
F0.09
aF0.05
aF-0.105
aa(lp555
F0.09
aF-0.05
aF-0.105
aa(lp556
F-0.09
aF-0.05
aF-0.105
aa(lp557
F-0.09
aF0.05
aF-0.105
aasg33
(lp558
(lp559
F5.551115123125783e-17
aF5.551115123125783e-17
aF1.0
aa(lp560
F5.551115123125783e-17
aF5.551115123125783e-17
aF1.0
aa(lp561
F5.551115123125783e-17
aF5.551115123125783e-17
aF1.0
aa(lp562
F5.551115123125783e-17
aF5.551115123125783e-17
aF1.0
aasssg33
(lp563
g526
ag527
ag528
ag529
ag559
ag560
ag561
ag562
ag537
ag538
ag539
ag540
ag548
ag549
ag550
ag551
asg27
(lp564
g521
ag522
ag523
ag524
ag554
ag555
ag556
ag557
ag532
ag533
ag534
ag535
ag543
ag544
ag545
ag546
asa(dp565
g2
(lp566
I0
aI0
aF0.5
ag4
(g8
S'\xb1kQ\xa6\x82\xcc\xc0?'
p567
tp568
Rp569
ag4
(g8
S'\x9a\xf50\xb3e\x07\xc3\xbf'
p570
tp571
Rp572
ag4
(g8
S"\xba\x9c\xb3'Uc\x94?"
p573
tp574
Rp575
ag4
(g8
S'-\xb1\x9b\n\xa7[\xef?'
p576
tp577
Rp578
aF-0.07766717623970532
aF0.8558908238631093
aF-0.39818369068092563
aF0.6073238702685982
aF-1.329272658933826
aF0.8608819216414443
aF-0.5106540705588432
aF-0.6689578588291458
aF-0.5057252480861849
aF1.4015418710143501
aF0.17
aF-2.447416428028716
aF-1.4658604920534093
aF-0.5949306323740773
aF-1.8051783266331514
aF1.2032704213809085
aF-0.6148482577073147
aF0.17321384268729662
aF0.11951635376763503
aF0.5852216836019399
aF0.7056152021622273
aF0.6759003698336145
aF-0.6784524188610728
aF-0.39792207068237384
aF-0.588832819552739
aF0.06237128435039074
aF-0.7563687696052039
aF0.9640605782637414
aF-0.4409416601689111
aF-0.18067508696357024
asg23
(dp579
g25
(dp580
g27
(lp581
(lp582
F0.09
aF0.05
aF-0.105
aa(lp583
F0.09
aF-0.05
aF-0.105
aa(lp584
F-0.09
aF-0.05
aF-0.105
aa(lp585
F-0.09
aF0.05
aF-0.105
aasg33
(lp586
(lp587
F8.326672684688674e-17
aF-5.551115123125783e-17
aF1.0
aa(lp588
F8.326672684688674e-17
aF-5.551115123125783e-17
aF1.0
aa(lp589
F8.326672684688674e-17
aF-5.551115123125783e-17
aF1.0
aa(lp590
F8.326672684688674e-17
aF-5.551115123125783e-17
aF1.0
aassg39
(dp591
g27
(lp592
(lp593
F0.004999999999999982
aF-0.045
aF0.06499999999999996
aa(lp594
F0.004999999999999992
aF-0.04499999999999999
aF0.10499999999999995
aa(lp595
F-0.02500000000000001
aF-0.044999999999999984
aF0.10499999999999997
aa(lp596
F-0.025000000000000015
aF-0.04499999999999999
aF0.06499999999999997
aasg33
(lp597
(lp598
F7.632783294297951e-16
aF0.9999999999999989
aF2.220446049250313e-16
aa(lp599
F7.632783294297951e-16
aF0.9999999999999989
aF2.220446049250313e-16
aa(lp600
F7.632783294297951e-16
aF0.9999999999999989
aF2.220446049250313e-16
aa(lp601
F7.632783294297951e-16
aF0.9999999999999989
aF2.220446049250313e-16
aassg51
(dp602
g27
(lp603
(lp604
F0.02499999999999998
aF-0.045
aF0.06499999999999996
aa(lp605
F0.024999999999999988
aF-0.04499999999999999
aF0.10499999999999995
aa(lp606
F-0.00500000000000001
aF-0.044999999999999984
aF0.10499999999999997
aa(lp607
F-0.00500000000000002
aF-0.04499999999999999
aF0.06499999999999997
aasg33
(lp608
(lp609
F1.0685896612017132e-15
aF0.9999999999999992
aF-1.97758476261356e-16
aa(lp610
F1.0685896612017132e-15
aF0.9999999999999992
aF-1.97758476261356e-16
aa(lp611
F1.0685896612017132e-15
aF0.9999999999999992
aF-1.97758476261356e-16
aa(lp612
F1.0685896612017132e-15
aF0.9999999999999992
aF-1.97758476261356e-16
aassg63
(dp613
g27
(lp614
(lp615
F0.09
aF0.05
aF-0.105
aa(lp616
F0.09
aF-0.05
aF-0.105
aa(lp617
F-0.09
aF-0.05
aF-0.105
aa(lp618
F-0.09
aF0.05
aF-0.105
aasg33
(lp619
(lp620
F-1.6653345369377348e-16
aF8.326672684688674e-17
aF1.0
aa(lp621
F-1.6653345369377348e-16
aF8.326672684688674e-17
aF1.0
aa(lp622
F-1.6653345369377348e-16
aF8.326672684688674e-17
aF1.0
aa(lp623
F-1.6653345369377348e-16
aF8.326672684688674e-17
aF1.0
aasssg33
(lp624
g587
ag588
ag589
ag590
ag620
ag621
ag622
ag623
ag598
ag599
ag600
ag601
ag609
ag610
ag611
ag612
asg27
(lp625
g582
ag583
ag584
ag585
ag615
ag616
ag617
ag618
ag593
ag594
ag595
ag596
ag604
ag605
ag606
ag607
asa.