(lp0
(dp1
S'q'
p2
(lp3
F0.0
aF0.0
aF0.3973599228683599
aF-0.027809777942481278
aF-0.21165563463336448
aF0.17338430619772738
aF0.9614397489926606
aF-0.5703408661208129
aF0.758515808868923
aF-0.6265077193857271
aF0.7799308968920787
aF-3.0213772912942742
aF0.45260334504190475
aF1.596822390577347
aF-1.8981550298365415
aF0.5330489849778586
aF1.5527578426988133
aF0.17
aF0.4542047009097483
aF-0.6845564739141959
aF0.7387433607245997
aF-1.5001649521944949
aF0.46447443441943004
aF1.1925310052672546
aF0.16746730008277452
aF-0.24250658547199372
aF0.4686810987959594
aF-0.9978346815134188
aF1.232188345296047
aF0.2336243866309711
aF-0.396038466663185
aF-0.2966454028626352
aF-0.4217840848733368
aF-0.08801333763500256
aF1.84513275319577
aF-1.2900787484310678
aF0.38631427687410047
asS'contact_points'
p4
(dp5
S'LLEG_JOINT5'
p6
(dp7
S'P'
p8
(lp9
(lp10
F0.09
aF0.05
aF-0.105
aa(lp11
F0.09
aF-0.05
aF-0.105
aa(lp12
F-0.09
aF-0.05
aF-0.105
aa(lp13
F-0.09
aF0.05
aF-0.105
aasS'N'
p14
(lp15
(lp16
F0.0
aF0.0
aF1.0
aa(lp17
F0.0
aF0.0
aF1.0
aa(lp18
F0.0
aF0.0
aF1.0
aa(lp19
F0.0
aF0.0
aF1.0
aassS'RLEG_JOINT5'
p20
(dp21
g8
(lp22
(lp23
F0.09
aF0.05
aF-0.105
aa(lp24
F0.09
aF-0.05
aF-0.105
aa(lp25
F-0.09
aF-0.05
aF-0.105
aa(lp26
F-0.09
aF0.05
aF-0.105
aasg14
(lp27
(lp28
F-3.3881317890172014e-21
aF3.3881317890172014e-21
aF1.0
aa(lp29
F-3.3881317890172014e-21
aF3.3881317890172014e-21
aF1.0
aa(lp30
F-3.3881317890172014e-21
aF3.3881317890172014e-21
aF1.0
aa(lp31
F-3.3881317890172014e-21
aF3.3881317890172014e-21
aF1.0
aasssg14
(lp32
g16
ag17
ag18
ag19
ag28
ag29
ag30
ag31
asg8
(lp33
g10
ag11
ag12
ag13
ag23
ag24
ag25
ag26
asa(dp34
g2
(lp35
F0.0
aF0.0
aF0.4860649282197414
aF-0.18344210187650256
aF0.14381085993548387
aF0.9374672731904982
aF-0.25850056773732466
aF0.49455574347410836
aF0.2293423146226102
aF-0.10630349399324757
aF0.7009613841970478
aF0.95622488973045
aF1.4338462164957404
aF-0.04380764513784441
aF-0.7279300242732867
aF1.446307767076142
aF-0.1552951155496738
aF0.17
aF-1.9660865187669716
aF0.04527798297852059
aF1.073433019682082
aF-1.3499564241240694
aF-1.474568074972773
aF0.7365983923836137
aF0.17161688384908105
aF0.14775563953600973
aF0.2054909210392968
aF-1.025032367704532
aF0.8257371247952856
aF-0.06376496845909314
aF-0.610865
aF-0.16303374411374189
aF-0.1624775624710647
aF-1.3748771503209611
aF1.85169481056971
aF-0.8129492557397022
aF-0.1683324271459207
asg4
(dp36
g6
(dp37
g8
(lp38
(lp39
F0.09
aF0.05
aF-0.105
aa(lp40
F0.09
aF-0.05
aF-0.105
aa(lp41
F-0.09
aF-0.05
aF-0.105
aa(lp42
F-0.09
aF0.05
aF-0.105
aasg14
(lp43
(lp44
F-2.6652664065253532e-20
aF8.131516293641283e-20
aF0.9999999999999999
aa(lp45
F-2.6652664065253532e-20
aF8.131516293641283e-20
aF0.9999999999999999
aa(lp46
F-2.6652664065253532e-20
aF8.131516293641283e-20
aF0.9999999999999999
aa(lp47
F-2.6652664065253532e-20
aF8.131516293641283e-20
aF0.9999999999999999
aassg20
(dp48
g8
(lp49
(lp50
F0.09
aF0.05
aF-0.105
aa(lp51
F0.09
aF-0.05
aF-0.105
aa(lp52
F-0.09
aF-0.05
aF-0.105
aa(lp53
F-0.09
aF0.05
aF-0.105
aasg14
(lp54
(lp55
F-2.8272774843121063e-27
aF-1.6155871338926322e-27
aF1.0
aa(lp56
F-2.8272774843121063e-27
aF-1.6155871338926322e-27
aF1.0
aa(lp57
F-2.8272774843121063e-27
aF-1.6155871338926322e-27
aF1.0
aa(lp58
F-2.8272774843121063e-27
aF-1.6155871338926322e-27
aF1.0
aasssg14
(lp59
g44
ag45
ag46
ag47
ag55
ag56
ag57
ag58
asg8
(lp60
g39
ag40
ag41
ag42
ag50
ag51
ag52
ag53
asa(dp61
g2
(lp62
F0.0
aF0.0
aF0.3511192560947869
aF-0.0016291717240243747
aF0.09530698768604393
aF0.004127912176218557
aF0.9954380363632742
aF0.365778718992936
aF0.3545729912833664
aF0.3507055369145664
aF0.1315108800094933
aF-2.060535517051595
aF0.21846330378089024
aF0.2291587483444526
aF-1.9781613670185996
aF0.7487974655890361
aF1.4516341481943307
aF0.17
aF1.0356267815141509
aF-0.43515547866431215
aF-1.4020832431538883
aF-0.6765087469250808
aF1.2140351385843637
aF0.719998075048019
aF0.1688106240303305
aF-0.523599
aF0.6068783739576398
aF-1.758844562279784
aF1.5452011225694344
aF0.026599803785960885
aF-0.5009480272992611
aF-0.7613618610445854
aF-0.4831404832360313
aF-0.9744784705825252
aF1.9750105139617637
aF-1.1669287372434856
aF0.610865
asg4
(dp63
g6
(dp64
g8
(lp65
(lp66
F0.09
aF0.05
aF-0.105
aa(lp67
F0.09
aF-0.05
aF-0.105
aa(lp68
F-0.09
aF-0.05
aF-0.105
aa(lp69
F-0.09
aF0.05
aF-0.105
aasg14
(lp70
(lp71
F-1.0587911840678754e-22
aF-3.1763735522036263e-22
aF1.0
aa(lp72
F-1.0587911840678754e-22
aF-3.1763735522036263e-22
aF1.0
aa(lp73
F-1.0587911840678754e-22
aF-3.1763735522036263e-22
aF1.0
aa(lp74
F-1.0587911840678754e-22
aF-3.1763735522036263e-22
aF1.0
aassg20
(dp75
g8
(lp76
(lp77
F0.09
aF0.05
aF-0.105
aa(lp78
F0.09
aF-0.05
aF-0.105
aa(lp79
F-0.09
aF-0.05
aF-0.105
aa(lp80
F-0.09
aF0.05
aF-0.105
aasg14
(lp81
(lp82
F5.728613482841851e-21
aF6.776263578034403e-21
aF0.9999999999999999
aa(lp83
F5.728613482841851e-21
aF6.776263578034403e-21
aF0.9999999999999999
aa(lp84
F5.728613482841851e-21
aF6.776263578034403e-21
aF0.9999999999999999
aa(lp85
F5.728613482841851e-21
aF6.776263578034403e-21
aF0.9999999999999999
aasssg14
(lp86
g71
ag72
ag73
ag74
ag82
ag83
ag84
ag85
asg8
(lp87
g66
ag67
ag68
ag69
ag77
ag78
ag79
ag80
asa(dp88
g2
(lp89
F0.0
aF0.0
aF0.5545085172527975
aF0.05969371177485563
aF-0.008474371848870612
aF0.8884046272596805
aF-0.45508467790060303
aF-0.49988085195234705
aF0.6613583040592869
aF-0.5604894958965478
aF0.14537894967537657
aF-2.3979729631478772
aF1.2999240415259992
aF0.5733610338516815
aF-2.0676814188602575
aF-1.4442324137438705
aF-0.2880254700861524
aF0.17
aF-2.3054178390113904
aF-0.4297407903119874
aF0.8338636415325869
aF-0.478081720499955
aF-1.1008356417199296
aF-0.16656075515107283
aF0.17078490803287594
aF-0.36317016156749093
aF-0.30329644482143164
aF0.6077205338733769
aF0.38624302632992175
aF-0.8703684685524512
aF0.33107009688160577
aF-0.785398
aF0.20847477818286908
aF-0.7333573461327941
aF1.3724063367126986
aF-0.5170020077795318
aF-0.22746644350830322
asg4
(dp90
g6
(dp91
g8
(lp92
(lp93
F0.09
aF0.05
aF-0.105
aa(lp94
F0.09
aF-0.05
aF-0.105
aa(lp95
F-0.09
aF-0.05
aF-0.105
aa(lp96
F-0.09
aF0.05
aF-0.105
aasg14
(lp97
(lp98
F0.0
aF-2.0679515313825692e-25
aF1.0
aa(lp99
F0.0
aF-2.0679515313825692e-25
aF1.0
aa(lp100
F0.0
aF-2.0679515313825692e-25
aF1.0
aa(lp101
F0.0
aF-2.0679515313825692e-25
aF1.0
aassg20
(dp102
g8
(lp103
(lp104
F0.09
aF0.05
aF-0.105
aa(lp105
F0.09
aF-0.05
aF-0.105
aa(lp106
F-0.09
aF-0.05
aF-0.105
aa(lp107
F-0.09
aF0.05
aF-0.105
aasg14
(lp108
(lp109
F1.6940658945086007e-21
aF-1.0164395367051604e-20
aF0.9999999999999999
aa(lp110
F1.6940658945086007e-21
aF-1.0164395367051604e-20
aF0.9999999999999999
aa(lp111
F1.6940658945086007e-21
aF-1.0164395367051604e-20
aF0.9999999999999999
aa(lp112
F1.6940658945086007e-21
aF-1.0164395367051604e-20
aF0.9999999999999999
aasssg14
(lp113
g98
ag99
ag100
ag101
ag109
ag110
ag111
ag112
asg8
(lp114
g93
ag94
ag95
ag96
ag104
ag105
ag106
ag107
asa(dp115
g2
(lp116
F0.0
aF0.0
aF0.5483290046321639
aF-0.23586442060460633
aF0.09267068726233639
aF0.28089125337202325
aF0.9256782500384642
aF-0.6593993833368093
aF0.11657823338372594
aF-0.3019386169562883
aF0.4145049763312504
aF0.986729024061602
aF1.5020406471813559
aF1.1342388271748736
aF-1.4998905238531621
aF1.1563409015555124
aF1.5301332235750895
aF0.17
aF-2.097274453840635
aF-0.5790319897454739
aF-1.44653709942011
aF-0.40669505097045744
aF-0.7703956252269892
aF1.5570360388017892
aF0.16579505784008422
aF0.785398
aF-0.33719119614022475
aF-1.5090324654347693
aF1.462826784135704
aF-0.49857888802661887
aF0.349066
aF-0.7684584122070146
aF0.22394987845143496
aF-0.43438857915544427
aF1.1767698538393248
aF-0.6916061706311156
aF0.2860065291488207
asg4
(dp117
g6
(dp118
g8
(lp119
(lp120
F0.09
aF0.05
aF-0.105
aa(lp121
F0.09
aF-0.05
aF-0.105
aa(lp122
F-0.09
aF-0.05
aF-0.105
aa(lp123
F-0.09
aF0.05
aF-0.105
aasg14
(lp124
(lp125
F-5.209252625613947e-20
aF0.0
aF1.0
aa(lp126
F-5.209252625613947e-20
aF0.0
aF1.0
aa(lp127
F-5.209252625613947e-20
aF0.0
aF1.0
aa(lp128
F-5.209252625613947e-20
aF0.0
aF1.0
aassg20
(dp129
g8
(lp130
(lp131
F0.09
aF0.05
aF-0.105
aa(lp132
F0.09
aF-0.05
aF-0.105
aa(lp133
F-0.09
aF-0.05
aF-0.105
aa(lp134
F-0.09
aF0.05
aF-0.105
aasg14
(lp135
(lp136
F1.2924697071141057e-26
aF0.0
aF1.0
aa(lp137
F1.2924697071141057e-26
aF0.0
aF1.0
aa(lp138
F1.2924697071141057e-26
aF0.0
aF1.0
aa(lp139
F1.2924697071141057e-26
aF0.0
aF1.0
aasssg14
(lp140
g125
ag126
ag127
ag128
ag136
ag137
ag138
ag139
asg8
(lp141
g120
ag121
ag122
ag123
ag131
ag132
ag133
ag134
asa(dp142
g2
(lp143
F0.0
aF0.0
aF0.6208402923482759
aF-0.10691596768119571
aF0.09464897018971856
aF0.9340901103641946
aF0.3272403001108298
aF-0.44100756496109333
aF0.08456084779752016
aF-0.41030902761016746
aF0.22071852174081497
aF0.29037082786439994
aF-0.021631876344105627
aF0.8625217697740635
aF-0.6282661216239289
aF-1.3717357516205104
aF0.29955698572390554
aF0.17
aF-2.463197004558475
aF0.059274586654321615
aF-1.5907821221401366
aF-1.7021462042014628
aF-1.0670312143885208
aF0.3536253054637113
aF0.17347692485362148
aF0.25739166268496005
aF-0.16324785420583315
aF-0.20357225733888568
aF0.7095364055095965
aF-0.7338109056430603
aF-0.01178580101407848
aF-0.785398
aF0.349066
aF-1.018157310311671
aF0.9350387430242338
aF-0.1876285912732856
aF-0.22714483059905255
asg4
(dp144
g6
(dp145
g8
(lp146
(lp147
F0.09
aF0.05
aF-0.105
aa(lp148
F0.09
aF-0.05
aF-0.105
aa(lp149
F-0.09
aF-0.05
aF-0.105
aa(lp150
F-0.09
aF0.05
aF-0.105
aasg14
(lp151
(lp152
F-3.618915179919496e-25
aF2.8434333556510326e-25
aF1.0
aa(lp153
F-3.618915179919496e-25
aF2.8434333556510326e-25
aF1.0
aa(lp154
F-3.618915179919496e-25
aF2.8434333556510326e-25
aF1.0
aa(lp155
F-3.618915179919496e-25
aF2.8434333556510326e-25
aF1.0
aassg20
(dp156
g8
(lp157
(lp158
F0.09
aF0.05
aF-0.105
aa(lp159
F0.09
aF-0.05
aF-0.105
aa(lp160
F-0.09
aF-0.05
aF-0.105
aa(lp161
F-0.09
aF0.05
aF-0.105
aasg14
(lp162
(lp163
F1.0164395367051604e-20
aF-1.0164395367051604e-20
aF1.0
aa(lp164
F1.0164395367051604e-20
aF-1.0164395367051604e-20
aF1.0
aa(lp165
F1.0164395367051604e-20
aF-1.0164395367051604e-20
aF1.0
aa(lp166
F1.0164395367051604e-20
aF-1.0164395367051604e-20
aF1.0
aasssg14
(lp167
g152
ag153
ag154
ag155
ag163
ag164
ag165
ag166
asg8
(lp168
g147
ag148
ag149
ag150
ag158
ag159
ag160
ag161
asa(dp169
g2
(lp170
F0.0
aF0.0
aF0.5984894225547042
aF0.006091260222804849
aF0.11208069144191793
aF-0.9810979088864383
aF-0.15763155881186222
aF-0.2737931139681298
aF0.3113878905401566
aF0.37459138541233594
aF0.4185798379145278
aF-1.2958107443081868
aF0.43798484971602486
aF-0.3429613260469684
aF-1.4811024401238764
aF1.0230678409607001
aF0.2210172318015795
aF0.17
aF-1.6122466487066944
aF-0.6696859970520642
aF-0.7575327225475724
aF-1.4857776011299175
aF-1.024999654461676
aF-0.46284143667376676
aF0.16987489829998226
aF-0.08337860558617928
aF0.2387790477200883
aF-0.7383600835019054
aF1.24897964608701
aF-0.46882378621878307
aF-0.017648179112556766
aF0.523599
aF-0.0972558407228719
aF-0.5285504378701097
aF0.8883978872648237
aF-0.4549805197637529
aF0.30207278358198814
asg4
(dp171
g6
(dp172
g8
(lp173
(lp174
F0.09
aF0.05
aF-0.105
aa(lp175
F0.09
aF-0.05
aF-0.105
aa(lp176
F-0.09
aF-0.05
aF-0.105
aa(lp177
F-0.09
aF0.05
aF-0.105
aasg14
(lp178
(lp179
F0.0
aF-2.5849394142282115e-26
aF1.0
aa(lp180
F0.0
aF-2.5849394142282115e-26
aF1.0
aa(lp181
F0.0
aF-2.5849394142282115e-26
aF1.0
aa(lp182
F0.0
aF-2.5849394142282115e-26
aF1.0
aassg20
(dp183
g8
(lp184
(lp185
F0.09
aF0.05
aF-0.105
aa(lp186
F0.09
aF-0.05
aF-0.105
aa(lp187
F-0.09
aF-0.05
aF-0.105
aa(lp188
F-0.09
aF0.05
aF-0.105
aasg14
(lp189
(lp190
F-6.776263578034403e-21
aF1.6940658945086007e-21
aF1.0
aa(lp191
F-6.776263578034403e-21
aF1.6940658945086007e-21
aF1.0
aa(lp192
F-6.776263578034403e-21
aF1.6940658945086007e-21
aF1.0
aa(lp193
F-6.776263578034403e-21
aF1.6940658945086007e-21
aF1.0
aasssg14
(lp194
g179
ag180
ag181
ag182
ag190
ag191
ag192
ag193
asg8
(lp195
g174
ag175
ag176
ag177
ag185
ag186
ag187
ag188
asa(dp196
g2
(lp197
F0.0
aF0.0
aF0.3558075254344994
aF0.045285433639177225
aF-0.09673759816284117
aF-0.09399574215260807
aF-0.9898261802250821
aF0.20745714400663187
aF0.1984217823911559
aF0.24686823446190265
aF0.41470583621208656
aF-1.097575068877374
aF1.6257629670563796
aF-0.05761649513482903
aF-1.3017113778814817
aF0.6342220389640525
aF1.1711597449173496
aF0.17
aF-1.2144350933003027
aF0.07293706618726814
aF-0.29474109024435324
aF0.019667182611863065
aF0.12270903910082254
aF0.36426178402097964
aF0.17124120514199193
aF0.785398
aF-0.09564539134719831
aF-1.89747157243673
aF2.007047141892304
aF-0.302737098205699
aF0.002819961501586308
aF-0.5848480443427477
aF-0.2977581219340845
aF-1.538844062626814
aF1.9760471797126087
aF-0.5802010679629627
aF0.46588542997316623
asg4
(dp198
g6
(dp199
g8
(lp200
(lp201
F0.09
aF0.05
aF-0.105
aa(lp202
F0.09
aF-0.05
aF-0.105
aa(lp203
F-0.09
aF-0.05
aF-0.105
aa(lp204
F-0.09
aF0.05
aF-0.105
aasg14
(lp205
(lp206
F-2.541098841762901e-21
aF3.3881317890172014e-21
aF1.0
aa(lp207
F-2.541098841762901e-21
aF3.3881317890172014e-21
aF1.0
aa(lp208
F-2.541098841762901e-21
aF3.3881317890172014e-21
aF1.0
aa(lp209
F-2.541098841762901e-21
aF3.3881317890172014e-21
aF1.0
aassg20
(dp210
g8
(lp211
(lp212
F0.09
aF0.05
aF-0.105
aa(lp213
F0.09
aF-0.05
aF-0.105
aa(lp214
F-0.09
aF-0.05
aF-0.105
aa(lp215
F-0.09
aF0.05
aF-0.105
aasg14
(lp216
(lp217
F-6.462348535570529e-27
aF0.0
aF1.0
aa(lp218
F-6.462348535570529e-27
aF0.0
aF1.0
aa(lp219
F-6.462348535570529e-27
aF0.0
aF1.0
aa(lp220
F-6.462348535570529e-27
aF0.0
aF1.0
aasssg14
(lp221
g206
ag207
ag208
ag209
ag217
ag218
ag219
ag220
asg8
(lp222
g201
ag202
ag203
ag204
ag212
ag213
ag214
ag215
asa(dp223
g2
(lp224
F0.0
aF0.0
aF0.37003974132757517
aF-0.23361211306244747
aF-0.21511507653986203
aF0.17398695386330887
aF-0.9321370201644789
aF0.12903961931908003
aF0.34537409578945744
aF-0.28445051750818107
aF0.31089519679615985
aF0.548366797566231
aF0.6520137069386396
aF0.17447414167140352
aF-2.208249845119885
aF-0.374728467576219
aF-1.0950302237436782
aF0.17
aF0.9490057248547235
aF-1.1540392978742642
aF-1.458378167962226
aF-2.175373412973959
aF0.9034910159135194
aF0.2740891007422417
aF0.1704624901877076
aF0.5251015491004728
aF-0.349066
aF-1.5724869365599388
aF2.012251738333467
aF-0.6863854131754537
aF-0.249951100028241
aF-0.4049327942113722
aF-0.25549187983129434
aF-2.1782044225996366
aF2.1929088076776826
aF-0.6416068544541069
aF0.06490572442525473
asg4
(dp225
g6
(dp226
g8
(lp227
(lp228
F0.09
aF0.05
aF-0.105
aa(lp229
F0.09
aF-0.05
aF-0.105
aa(lp230
F-0.09
aF-0.05
aF-0.105
aa(lp231
F-0.09
aF0.05
aF-0.105
aasg14
(lp232
(lp233
F4.235164736271502e-21
aF0.0
aF1.0
aa(lp234
F4.235164736271502e-21
aF0.0
aF1.0
aa(lp235
F4.235164736271502e-21
aF0.0
aF1.0
aa(lp236
F4.235164736271502e-21
aF0.0
aF1.0
aassg20
(dp237
g8
(lp238
(lp239
F0.09
aF0.05
aF-0.105
aa(lp240
F0.09
aF-0.05
aF-0.105
aa(lp241
F-0.09
aF-0.05
aF-0.105
aa(lp242
F-0.09
aF0.05
aF-0.105
aasg14
(lp243
(lp244
F-6.462348535570529e-26
aF5.169878828456423e-26
aF1.0
aa(lp245
F-6.462348535570529e-26
aF5.169878828456423e-26
aF1.0
aa(lp246
F-6.462348535570529e-26
aF5.169878828456423e-26
aF1.0
aa(lp247
F-6.462348535570529e-26
aF5.169878828456423e-26
aF1.0
aasssg14
(lp248
g233
ag234
ag235
ag236
ag244
ag245
ag246
ag247
asg8
(lp249
g228
ag229
ag230
ag231
ag239
ag240
ag241
ag242
asa(dp250
g2
(lp251
F0.0
aF0.0
aF0.4941686952438551
aF0.25905317722138693
aF0.1734490912310899
aF0.9451418507020067
aF0.09753843434359304
aF-0.4904944313757356
aF0.2587733546913277
aF-0.7243424280922247
aF0.3070741204245716
aF-2.875604816591723
aF0.7044164410337277
aF-0.15748011491335
aF-1.563385377310478
aF-0.21226702807357856
aF0.8592009475284728
aF0.17
aF-0.3740567563055346
aF-0.8624050121622822
aF0.9285671654332741
aF-0.8813781572116577
aF-0.7458902778040573
aF0.5073237374124229
aF0.1697378415357032
aF0.44017212931387045
aF-0.17823015966300976
aF-0.5754729442614832
aF1.1275006980923876
aF0.05890796038693436
aF-0.0029268513794786046
aF0.523599
aF0.3117877186625849
aF0.7216165899680365
aF1.2580244579297764
aF-1.309
aF-0.349066
asg4
(dp252
g6
(dp253
g8
(lp254
(lp255
F0.09
aF0.05
aF-0.105
aa(lp256
F0.09
aF-0.05
aF-0.105
aa(lp257
F-0.09
aF-0.05
aF-0.105
aa(lp258
F-0.09
aF0.05
aF-0.105
aasg14
(lp259
(lp260
F7.754818242684634e-26
aF7.754818242684634e-26
aF1.0
aa(lp261
F7.754818242684634e-26
aF7.754818242684634e-26
aF1.0
aa(lp262
F7.754818242684634e-26
aF7.754818242684634e-26
aF1.0
aa(lp263
F7.754818242684634e-26
aF7.754818242684634e-26
aF1.0
aassg20
(dp264
g8
(lp265
(lp266
F0.09
aF0.05
aF-0.105
aa(lp267
F0.09
aF-0.05
aF-0.105
aa(lp268
F-0.09
aF-0.05
aF-0.105
aa(lp269
F-0.09
aF0.05
aF-0.105
aasg14
(lp270
(lp271
F2.541098841762901e-20
aF-5.421010862427522e-20
aF1.0
aa(lp272
F2.541098841762901e-20
aF-5.421010862427522e-20
aF1.0
aa(lp273
F2.541098841762901e-20
aF-5.421010862427522e-20
aF1.0
aa(lp274
F2.541098841762901e-20
aF-5.421010862427522e-20
aF1.0
aasssg14
(lp275
g260
ag261
ag262
ag263
ag271
ag272
ag273
ag274
asg8
(lp276
g255
ag256
ag257
ag258
ag266
ag267
ag268
ag269
asa.