(lp0
(dp1
S'q'
p2
(lp3
I0
aI0
aF0.1943872987266571
aF-0.22452596257132523
aF-0.375117062861282
aF-0.5598468135202863
aF-0.7038798382344296
aF-0.2593117691735969
aF0.6069451420058398
aF-0.34043213246705484
aF-0.49670713267528926
aF-0.9875623316713154
aF0.4576544467344365
aF0.7201799231727979
aF-1.3181581864325413
aF0.8979865536452676
aF-1.1841376397713264
aF0.17
aF-1.9150711933488962
aF-0.3211787526481864
aF1.4354410828469046
aF-0.729915287756157
aF-0.34070159134054623
aF1.3018644345966932
aF0.1719620778909708
aF0.09194674511371126
aF0.17042490537313604
aF-0.045161284138480084
aF2.3496568245291956
aF0.13995069738398325
aF-0.07260208772403476
aF-0.7673372532473292
aF-0.26176451200389517
aF-0.4560023568698506
aF0.23610073290183403
aF0.3610067464190323
aF-0.06789287096469288
asS'contact_points'
p4
(dp5
S'LLEG_JOINT5'
p6
(dp7
S'P'
p8
(lp9
(lp10
F0.09
aF0.05
aF-0.105
aa(lp11
F0.09
aF-0.05
aF-0.105
aa(lp12
F-0.09
aF-0.05
aF-0.105
aa(lp13
F-0.09
aF0.05
aF-0.105
aasS'N'
p14
(lp15
(lp16
F0.0
aF-5.551115123125783e-17
aF0.9999999999999998
aa(lp17
F0.0
aF-5.551115123125783e-17
aF0.9999999999999998
aa(lp18
F0.0
aF-5.551115123125783e-17
aF0.9999999999999998
aa(lp19
F0.0
aF-5.551115123125783e-17
aF0.9999999999999998
aassS'LARM_JOINT5'
p20
(dp21
g8
(lp22
(lp23
F0.02499999999999998
aF-0.045
aF0.06499999999999996
aa(lp24
F0.024999999999999988
aF-0.04499999999999999
aF0.10499999999999995
aa(lp25
F-0.00500000000000001
aF-0.044999999999999984
aF0.10499999999999997
aa(lp26
F-0.00500000000000002
aF-0.04499999999999999
aF0.06499999999999997
aasg14
(lp27
(lp28
F2.194425197110661e-16
aF0.9999999999999968
aF2.7755575615628914e-17
aa(lp29
F2.194425197110661e-16
aF0.9999999999999968
aF2.7755575615628914e-17
aa(lp30
F2.194425197110661e-16
aF0.9999999999999968
aF2.7755575615628914e-17
aa(lp31
F2.194425197110661e-16
aF0.9999999999999968
aF2.7755575615628914e-17
aassS'RLEG_JOINT5'
p32
(dp33
g8
(lp34
(lp35
F0.09
aF0.05
aF-0.105
aa(lp36
F0.09
aF-0.05
aF-0.105
aa(lp37
F-0.09
aF-0.05
aF-0.105
aa(lp38
F-0.09
aF0.05
aF-0.105
aasg14
(lp39
(lp40
F-5.551115123125783e-17
aF1.942890293094024e-16
aF1.0
aa(lp41
F-5.551115123125783e-17
aF1.942890293094024e-16
aF1.0
aa(lp42
F-5.551115123125783e-17
aF1.942890293094024e-16
aF1.0
aa(lp43
F-5.551115123125783e-17
aF1.942890293094024e-16
aF1.0
aasssg14
(lp44
g16
ag17
ag18
ag19
ag40
ag41
ag42
ag43
ag28
ag29
ag30
ag31
asg8
(lp45
g10
ag11
ag12
ag13
ag35
ag36
ag37
ag38
ag23
ag24
ag25
ag26
asa(dp46
g2
(lp47
I0
aI0
aF2.106003219311127
aF-0.05187626351400125
aF-0.03288803720939162
aF0.3749773697023468
aF-0.9249968662127721
aF0.14267961888855962
aF0.06914269567054121
aF0.38387377790592603
aF0.7683269527283917
aF-2.2225803252466023
aF1.4685614705338412
aF-0.6792974355903442
aF0.027949648030059837
aF0.061181725100372786
aF-1.1844837617902941
aF0.17
aF-2.972529659264367
aF-0.4056410522270537
aF0.25482542012600495
aF-0.9950148458865313
aF0.3190103220770648
aF-0.8257206220879315
aF0.16712727763323454
aF-0.08760634305376158
aF-0.15773632154526576
aF-0.5899476794243015
aF0.5475144383950645
aF-1.1852700137006704
aF0.21357442841727547
aF-0.41981627804684696
aF-0.2835855525213925
aF-0.7360882143493668
aF0.5926574206778821
aF-0.3234506956576635
aF-0.12152118956639954
asg4
(dp48
g6
(dp49
g8
(lp50
(lp51
F0.09
aF0.05
aF-0.105
aa(lp52
F0.09
aF-0.05
aF-0.105
aa(lp53
F-0.09
aF-0.05
aF-0.105
aa(lp54
F-0.09
aF0.05
aF-0.105
aasg14
(lp55
(lp56
F3.3306690738754696e-16
aF-1.8675382421062814e-16
aF1.0000000000000002
aa(lp57
F3.3306690738754696e-16
aF-1.8675382421062814e-16
aF1.0000000000000002
aa(lp58
F3.3306690738754696e-16
aF-1.8675382421062814e-16
aF1.0000000000000002
aa(lp59
F3.3306690738754696e-16
aF-1.8675382421062814e-16
aF1.0000000000000002
aassg20
(dp60
g8
(lp61
(lp62
F0.02499999999999998
aF-0.045
aF0.06499999999999996
aa(lp63
F0.024999999999999988
aF-0.04499999999999999
aF0.10499999999999995
aa(lp64
F-0.00500000000000001
aF-0.044999999999999984
aF0.10499999999999997
aa(lp65
F-0.00500000000000002
aF-0.04499999999999999
aF0.06499999999999997
aasg14
(lp66
(lp67
F3.8163916471489756e-16
aF0.999999999999994
aF6.106226635438361e-16
aa(lp68
F3.8163916471489756e-16
aF0.999999999999994
aF6.106226635438361e-16
aa(lp69
F3.8163916471489756e-16
aF0.999999999999994
aF6.106226635438361e-16
aa(lp70
F3.8163916471489756e-16
aF0.999999999999994
aF6.106226635438361e-16
aassg32
(dp71
g8
(lp72
(lp73
F0.09
aF0.05
aF-0.105
aa(lp74
F0.09
aF-0.05
aF-0.105
aa(lp75
F-0.09
aF-0.05
aF-0.105
aa(lp76
F-0.09
aF0.05
aF-0.105
aasg14
(lp77
(lp78
F0.0
aF0.0
aF1.0
aa(lp79
F0.0
aF0.0
aF1.0
aa(lp80
F0.0
aF0.0
aF1.0
aa(lp81
F0.0
aF0.0
aF1.0
aasssg14
(lp82
g56
ag57
ag58
ag59
ag78
ag79
ag80
ag81
ag67
ag68
ag69
ag70
asg8
(lp83
g51
ag52
ag53
ag54
ag73
ag74
ag75
ag76
ag62
ag63
ag64
ag65
asa(dp84
g2
(lp85
I0
aI0
aF1.425973490358318
aF-0.6488107864456594
aF0.4217622965455089
aF-0.2561810122458313
aF0.5792516012659131
aF-0.5691720979538142
aF1.039687579588897
aF-0.41343919547020885
aF-0.35647008981989936
aF-0.11052162896662532
aF1.4638683719167918
aF-0.2147662625162241
aF-0.8498448166048624
aF-1.067978408890254
aF-0.5354119922157898
aF0.17
aF-0.825286719877397
aF-1.539497003338452
aF0.027310540516772397
aF-1.6931790732734457
aF1.1240412273418816
aF-1.5218660584615384
aF0.17246473614474048
aF0.3354321115168004
aF0.3061984458154209
aF-0.6553521235135866
aF0.8856883102348534
aF0.37962705125098806
aF-0.40862469892289754
aF-0.3861932140620515
aF0.29061654265931225
aF0.46156806356138036
aF2.4936745916850134
aF-0.9360770626977901
aF-0.06985387853830022
asg4
(dp86
g6
(dp87
g8
(lp88
(lp89
F0.09
aF0.05
aF-0.105
aa(lp90
F0.09
aF-0.05
aF-0.105
aa(lp91
F-0.09
aF-0.05
aF-0.105
aa(lp92
F-0.09
aF0.05
aF-0.105
aasg14
(lp93
(lp94
F-8.326672684688674e-17
aF2.220446049250313e-16
aF1.0000000000000004
aa(lp95
F-8.326672684688674e-17
aF2.220446049250313e-16
aF1.0000000000000004
aa(lp96
F-8.326672684688674e-17
aF2.220446049250313e-16
aF1.0000000000000004
aa(lp97
F-8.326672684688674e-17
aF2.220446049250313e-16
aF1.0000000000000004
aassg20
(dp98
g8
(lp99
(lp100
F0.02499999999999998
aF-0.045
aF0.06499999999999996
aa(lp101
F0.024999999999999988
aF-0.04499999999999999
aF0.10499999999999995
aa(lp102
F-0.00500000000000001
aF-0.044999999999999984
aF0.10499999999999997
aa(lp103
F-0.00500000000000002
aF-0.04499999999999999
aF0.06499999999999997
aasg14
(lp104
(lp105
F-1.4988010832439613e-15
aF0.9999999999999989
aF1.4432899320127035e-15
aa(lp106
F-1.4988010832439613e-15
aF0.9999999999999989
aF1.4432899320127035e-15
aa(lp107
F-1.4988010832439613e-15
aF0.9999999999999989
aF1.4432899320127035e-15
aa(lp108
F-1.4988010832439613e-15
aF0.9999999999999989
aF1.4432899320127035e-15
aassg32
(dp109
g8
(lp110
(lp111
F0.09
aF0.05
aF-0.105
aa(lp112
F0.09
aF-0.05
aF-0.105
aa(lp113
F-0.09
aF-0.05
aF-0.105
aa(lp114
F-0.09
aF0.05
aF-0.105
aasg14
(lp115
(lp116
F6.938893903907228e-18
aF-2.7755575615628914e-17
aF1.0
aa(lp117
F6.938893903907228e-18
aF-2.7755575615628914e-17
aF1.0
aa(lp118
F6.938893903907228e-18
aF-2.7755575615628914e-17
aF1.0
aa(lp119
F6.938893903907228e-18
aF-2.7755575615628914e-17
aF1.0
aasssg14
(lp120
g94
ag95
ag96
ag97
ag116
ag117
ag118
ag119
ag105
ag106
ag107
ag108
asg8
(lp121
g89
ag90
ag91
ag92
ag111
ag112
ag113
ag114
ag100
ag101
ag102
ag103
asa(dp122
g2
(lp123
I0
aI0
aF0.7873532204829871
aF0.6648492929975616
aF0.2376907331959639
aF-0.41847348224744096
aF-0.5712779337670134
aF0.39360949716544136
aF0.6705515564968819
aF0.24021008458526616
aF0.4023574489662227
aF-1.895049693584442
aF0.9971962908467489
aF0.9154097104542467
aF-0.783813859233452
aF-1.0901726283475162
aF-0.5995404059957901
aF0.17
aF-0.511709306552866
aF-1.3838578624874935
aF0.9197527586383989
aF-0.7676667910227037
aF1.2639471438171561
aF1.4733790598357464
aF0.16770091604567175
aF-0.3064075575105443
aF0.2528539864477156
aF-1.5907890987537685
aF1.921932013467936
aF-1.1549337511193425
aF-0.4176855421018445
aF-0.3727862287667423
aF0.10104502776151247
aF-0.2552181882155873
aF1.7507580683578983
aF0.6783995771459905
aF0.17694268713371064
asg4
(dp124
g6
(dp125
g8
(lp126
(lp127
F0.09
aF0.05
aF-0.105
aa(lp128
F0.09
aF-0.05
aF-0.105
aa(lp129
F-0.09
aF-0.05
aF-0.105
aa(lp130
F-0.09
aF0.05
aF-0.105
aasg14
(lp131
(lp132
F-7.632783294297951e-17
aF-3.0531133177191805e-16
aF0.9999999999999996
aa(lp133
F-7.632783294297951e-17
aF-3.0531133177191805e-16
aF0.9999999999999996
aa(lp134
F-7.632783294297951e-17
aF-3.0531133177191805e-16
aF0.9999999999999996
aa(lp135
F-7.632783294297951e-17
aF-3.0531133177191805e-16
aF0.9999999999999996
aassg20
(dp136
g8
(lp137
(lp138
F0.02499999999999998
aF-0.045
aF0.06499999999999996
aa(lp139
F0.024999999999999988
aF-0.04499999999999999
aF0.10499999999999995
aa(lp140
F-0.00500000000000001
aF-0.044999999999999984
aF0.10499999999999997
aa(lp141
F-0.00500000000000002
aF-0.04499999999999999
aF0.06499999999999997
aasg14
(lp142
(lp143
F-1.6653345369377348e-16
aF0.9999999999999993
aF9.43689570931383e-16
aa(lp144
F-1.6653345369377348e-16
aF0.9999999999999993
aF9.43689570931383e-16
aa(lp145
F-1.6653345369377348e-16
aF0.9999999999999993
aF9.43689570931383e-16
aa(lp146
F-1.6653345369377348e-16
aF0.9999999999999993
aF9.43689570931383e-16
aassg32
(dp147
g8
(lp148
(lp149
F0.09
aF0.05
aF-0.105
aa(lp150
F0.09
aF-0.05
aF-0.105
aa(lp151
F-0.09
aF-0.05
aF-0.105
aa(lp152
F-0.09
aF0.05
aF-0.105
aasg14
(lp153
(lp154
F5.828670879282072e-16
aF1.942890293094024e-16
aF0.9999999999999996
aa(lp155
F5.828670879282072e-16
aF1.942890293094024e-16
aF0.9999999999999996
aa(lp156
F5.828670879282072e-16
aF1.942890293094024e-16
aF0.9999999999999996
aa(lp157
F5.828670879282072e-16
aF1.942890293094024e-16
aF0.9999999999999996
aasssg14
(lp158
g132
ag133
ag134
ag135
ag154
ag155
ag156
ag157
ag143
ag144
ag145
ag146
asg8
(lp159
g127
ag128
ag129
ag130
ag149
ag150
ag151
ag152
ag138
ag139
ag140
ag141
asa(dp160
g2
(lp161
I0
aI0
aF1.966339672061773
aF0.38945194672428174
aF0.9104563117851385
aF0.10134914473718457
aF0.09552400946521838
aF-0.524435357740727
aF0.8696578547977231
aF-0.17421767354877837
aF0.06061111152676091
aF-3.0861428737066046
aF0.24996179797794288
aF0.06844107269194954
aF-0.5903017155935011
aF0.7035882493917309
aF-1.1392970068713635
aF0.17
aF0.9935028766955636
aF-0.07946566688665402
aF-0.3906379196554133
aF-1.5604939451679287
aF1.0252032625106644
aF0.10490123514281646
aF0.17168412968361943
aF0.18413685514099565
aF0.2625807840912192
aF-0.05655577027754033
aF1.9394021889638733
aF0.4648808480838671
aF0.23388073545215027
aF-0.4582257773645053
aF-0.1287622014879269
aF0.35089162213486436
aF0.34639930859708373
aF-0.6117892997297846
aF0.5217559069199794
asg4
(dp162
g6
(dp163
g8
(lp164
(lp165
F0.09
aF0.05
aF-0.105
aa(lp166
F0.09
aF-0.05
aF-0.105
aa(lp167
F-0.09
aF-0.05
aF-0.105
aa(lp168
F-0.09
aF0.05
aF-0.105
aasg14
(lp169
(lp170
F-2.220446049250313e-16
aF1.942890293094024e-16
aF0.9999999999999998
aa(lp171
F-2.220446049250313e-16
aF1.942890293094024e-16
aF0.9999999999999998
aa(lp172
F-2.220446049250313e-16
aF1.942890293094024e-16
aF0.9999999999999998
aa(lp173
F-2.220446049250313e-16
aF1.942890293094024e-16
aF0.9999999999999998
aassg20
(dp174
g8
(lp175
(lp176
F0.02499999999999998
aF-0.045
aF0.06499999999999996
aa(lp177
F0.024999999999999988
aF-0.04499999999999999
aF0.10499999999999995
aa(lp178
F-0.00500000000000001
aF-0.044999999999999984
aF0.10499999999999997
aa(lp179
F-0.00500000000000002
aF-0.04499999999999999
aF0.06499999999999997
aasg14
(lp180
(lp181
F6.106226635438361e-16
aF0.999999999999999
aF1.6653345369377348e-16
aa(lp182
F6.106226635438361e-16
aF0.999999999999999
aF1.6653345369377348e-16
aa(lp183
F6.106226635438361e-16
aF0.999999999999999
aF1.6653345369377348e-16
aa(lp184
F6.106226635438361e-16
aF0.999999999999999
aF1.6653345369377348e-16
aassg32
(dp185
g8
(lp186
(lp187
F0.09
aF0.05
aF-0.105
aa(lp188
F0.09
aF-0.05
aF-0.105
aa(lp189
F-0.09
aF-0.05
aF-0.105
aa(lp190
F-0.09
aF0.05
aF-0.105
aasg14
(lp191
(lp192
F-6.938893903907228e-17
aF-2.498001805406602e-16
aF0.9999999999999978
aa(lp193
F-6.938893903907228e-17
aF-2.498001805406602e-16
aF0.9999999999999978
aa(lp194
F-6.938893903907228e-17
aF-2.498001805406602e-16
aF0.9999999999999978
aa(lp195
F-6.938893903907228e-17
aF-2.498001805406602e-16
aF0.9999999999999978
aasssg14
(lp196
g170
ag171
ag172
ag173
ag192
ag193
ag194
ag195
ag181
ag182
ag183
ag184
asg8
(lp197
g165
ag166
ag167
ag168
ag187
ag188
ag189
ag190
ag176
ag177
ag178
ag179
asa(dp198
g2
(lp199
I0
aI0
aF0.04728073163297062
aF0.8619844567628305
aF0.16371253680535008
aF-0.2172406699718577
aF-0.42777037403520957
aF0.6414494239233917
aF0.14810026195658635
aF0.506628359041094
aF-0.006168644842249216
aF0.9314633152057104
aF1.6411579415759565
aF0.1252910348303573
aF-1.5895501836941857
aF-0.09711230533971094
aF-0.7907325661391171
aF0.17
aF-3.0321460258100443
aF-0.043744473343355406
aF-0.6324571492497609
aF-2.389602510463707
aF0.11567645770449952
aF0.15949710182119037
aF0.1731617169911795
aF0.31921815933936515
aF0.30604062212322447
aF-0.07657793813292946
aF1.9221955237716086
aF0.42441461443591133
aF0.13572072265324253
aF0.49784974306623564
aF-0.08341288212621245
aF-1.5477856155898708
aF-0.030077641626152327
aF-0.03586264492085234
aF-0.21068239243380416
asg4
(dp200
g6
(dp201
g8
(lp202
(lp203
F0.09
aF0.05
aF-0.105
aa(lp204
F0.09
aF-0.05
aF-0.105
aa(lp205
F-0.09
aF-0.05
aF-0.105
aa(lp206
F-0.09
aF0.05
aF-0.105
aasg14
(lp207
(lp208
F-1.8388068845354155e-16
aF-2.7755575615628914e-17
aF1.0000000000000002
aa(lp209
F-1.8388068845354155e-16
aF-2.7755575615628914e-17
aF1.0000000000000002
aa(lp210
F-1.8388068845354155e-16
aF-2.7755575615628914e-17
aF1.0000000000000002
aa(lp211
F-1.8388068845354155e-16
aF-2.7755575615628914e-17
aF1.0000000000000002
aassg20
(dp212
g8
(lp213
(lp214
F0.02499999999999998
aF-0.045
aF0.06499999999999996
aa(lp215
F0.024999999999999988
aF-0.04499999999999999
aF0.10499999999999995
aa(lp216
F-0.00500000000000001
aF-0.044999999999999984
aF0.10499999999999997
aa(lp217
F-0.00500000000000002
aF-0.04499999999999999
aF0.06499999999999997
aasg14
(lp218
(lp219
F-2.220446049250313e-16
aF0.9999999999999994
aF6.661338147750939e-16
aa(lp220
F-2.220446049250313e-16
aF0.9999999999999994
aF6.661338147750939e-16
aa(lp221
F-2.220446049250313e-16
aF0.9999999999999994
aF6.661338147750939e-16
aa(lp222
F-2.220446049250313e-16
aF0.9999999999999994
aF6.661338147750939e-16
aassg32
(dp223
g8
(lp224
(lp225
F0.09
aF0.05
aF-0.105
aa(lp226
F0.09
aF-0.05
aF-0.105
aa(lp227
F-0.09
aF-0.05
aF-0.105
aa(lp228
F-0.09
aF0.05
aF-0.105
aasg14
(lp229
(lp230
F-2.220446049250313e-16
aF-2.220446049250313e-16
aF0.9999999999999997
aa(lp231
F-2.220446049250313e-16
aF-2.220446049250313e-16
aF0.9999999999999997
aa(lp232
F-2.220446049250313e-16
aF-2.220446049250313e-16
aF0.9999999999999997
aa(lp233
F-2.220446049250313e-16
aF-2.220446049250313e-16
aF0.9999999999999997
aasssg14
(lp234
g208
ag209
ag210
ag211
ag230
ag231
ag232
ag233
ag219
ag220
ag221
ag222
asg8
(lp235
g203
ag204
ag205
ag206
ag225
ag226
ag227
ag228
ag214
ag215
ag216
ag217
asa(dp236
g2
(lp237
I0
aI0
aF0.35859599800715036
aF-0.7257148950454851
aF-0.6792357677407087
aF0.019897871980220555
aF-0.10761383564147005
aF0.6652730647685896
aF-0.03774584928092377
aF0.10949603262119278
aF0.5666097616271911
aF-1.5560522580429221
aF1.145073565104925
aF-0.8217366298506206
aF-0.7064493249689892
aF1.3160515821696033
aF-0.9805783311589055
aF0.17
aF-2.3329284334802574
aF-0.026657888679625374
aF-0.9110541051892349
aF-1.1315640947637433
aF-0.17493279589136734
aF-0.00807361454310529
aF0.16961654924071234
aF-0.02697103674353518
aF0.3911263274414928
aF-0.44056960631796893
aF2.11033246721731
aF0.5795881336915063
aF0.20291933802046502
aF0.3318101388066077
aF0.33258340327736935
aF-2.068700094158963
aF0.008819210804591783
aF-0.4011373761274002
aF0.1905928927848589
asg4
(dp238
g6
(dp239
g8
(lp240
(lp241
F0.09
aF0.05
aF-0.105
aa(lp242
F0.09
aF-0.05
aF-0.105
aa(lp243
F-0.09
aF-0.05
aF-0.105
aa(lp244
F-0.09
aF0.05
aF-0.105
aasg14
(lp245
(lp246
F5.551115123125783e-17
aF-1.0547118733938987e-15
aF1.0000000000000004
aa(lp247
F5.551115123125783e-17
aF-1.0547118733938987e-15
aF1.0000000000000004
aa(lp248
F5.551115123125783e-17
aF-1.0547118733938987e-15
aF1.0000000000000004
aa(lp249
F5.551115123125783e-17
aF-1.0547118733938987e-15
aF1.0000000000000004
aassg20
(dp250
g8
(lp251
(lp252
F0.02499999999999998
aF-0.045
aF0.06499999999999996
aa(lp253
F0.024999999999999988
aF-0.04499999999999999
aF0.10499999999999995
aa(lp254
F-0.00500000000000001
aF-0.044999999999999984
aF0.10499999999999997
aa(lp255
F-0.00500000000000002
aF-0.04499999999999999
aF0.06499999999999997
aasg14
(lp256
(lp257
F-1.7208456881689926e-15
aF0.9999999999999963
aF-5.689893001203927e-16
aa(lp258
F-1.7208456881689926e-15
aF0.9999999999999963
aF-5.689893001203927e-16
aa(lp259
F-1.7208456881689926e-15
aF0.9999999999999963
aF-5.689893001203927e-16
aa(lp260
F-1.7208456881689926e-15
aF0.9999999999999963
aF-5.689893001203927e-16
aassg32
(dp261
g8
(lp262
(lp263
F0.09
aF0.05
aF-0.105
aa(lp264
F0.09
aF-0.05
aF-0.105
aa(lp265
F-0.09
aF-0.05
aF-0.105
aa(lp266
F-0.09
aF0.05
aF-0.105
aasg14
(lp267
(lp268
F-2.7755575615628914e-16
aF-2.3592239273284576e-16
aF0.9999999999999998
aa(lp269
F-2.7755575615628914e-16
aF-2.3592239273284576e-16
aF0.9999999999999998
aa(lp270
F-2.7755575615628914e-16
aF-2.3592239273284576e-16
aF0.9999999999999998
aa(lp271
F-2.7755575615628914e-16
aF-2.3592239273284576e-16
aF0.9999999999999998
aasssg14
(lp272
g246
ag247
ag248
ag249
ag268
ag269
ag270
ag271
ag257
ag258
ag259
ag260
asg8
(lp273
g241
ag242
ag243
ag244
ag263
ag264
ag265
ag266
ag252
ag253
ag254
ag255
asa(dp274
g2
(lp275
I0
aI0
aF0.210256622457065
aF0.11538575746944894
aF-0.5105812126490444
aF-0.5478539746130844
aF-0.6525710495905244
aF-0.09797557488775699
aF0.07993398590126585
aF-0.2619430981642553
aF0.17790676646337
aF-2.9717312122692685
aF0.6844209395093379
aF-0.6139916066823954
aF-1.7402689926716306
aF1.3532359040114728
aF-1.2104811108449385
aF0.17
aF-1.1442356794463868
aF-0.00010592962765909597
aF1.260916009254761
aF-0.7722730981045391
aF-0.11684564201512626
aF1.3973404709492996
aF0.16778016679584057
aF0.5179047948059757
aF0.1732535510089498
aF-2.0122972262564343
aF0.7474437162357127
aF0.12934299228722823
aF-0.27986320096660183
aF-0.5896802587775855
aF-0.08835529761619687
aF-1.149924765723699
aF0.6152879165185494
aF-1.0942649705931846
aF-0.22251815107637368
asg4
(dp276
g6
(dp277
g8
(lp278
(lp279
F0.09
aF0.05
aF-0.105
aa(lp280
F0.09
aF-0.05
aF-0.105
aa(lp281
F-0.09
aF-0.05
aF-0.105
aa(lp282
F-0.09
aF0.05
aF-0.105
aasg14
(lp283
(lp284
F1.5265566588595902e-16
aF-5.551115123125783e-17
aF1.0
aa(lp285
F1.5265566588595902e-16
aF-5.551115123125783e-17
aF1.0
aa(lp286
F1.5265566588595902e-16
aF-5.551115123125783e-17
aF1.0
aa(lp287
F1.5265566588595902e-16
aF-5.551115123125783e-17
aF1.0
aassg20
(dp288
g8
(lp289
(lp290
F0.02499999999999998
aF-0.045
aF0.06499999999999996
aa(lp291
F0.024999999999999988
aF-0.04499999999999999
aF0.10499999999999995
aa(lp292
F-0.00500000000000001
aF-0.044999999999999984
aF0.10499999999999997
aa(lp293
F-0.00500000000000002
aF-0.04499999999999999
aF0.06499999999999997
aasg14
(lp294
(lp295
F-1.582067810090848e-15
aF0.9999999999999982
aF-7.216449660063518e-16
aa(lp296
F-1.582067810090848e-15
aF0.9999999999999982
aF-7.216449660063518e-16
aa(lp297
F-1.582067810090848e-15
aF0.9999999999999982
aF-7.216449660063518e-16
aa(lp298
F-1.582067810090848e-15
aF0.9999999999999982
aF-7.216449660063518e-16
aassg32
(dp299
g8
(lp300
(lp301
F0.09
aF0.05
aF-0.105
aa(lp302
F0.09
aF-0.05
aF-0.105
aa(lp303
F-0.09
aF-0.05
aF-0.105
aa(lp304
F-0.09
aF0.05
aF-0.105
aasg14
(lp305
(lp306
F0.0
aF5.551115123125783e-17
aF1.0000000000000002
aa(lp307
F0.0
aF5.551115123125783e-17
aF1.0000000000000002
aa(lp308
F0.0
aF5.551115123125783e-17
aF1.0000000000000002
aa(lp309
F0.0
aF5.551115123125783e-17
aF1.0000000000000002
aasssg14
(lp310
g284
ag285
ag286
ag287
ag306
ag307
ag308
ag309
ag295
ag296
ag297
ag298
asg8
(lp311
g279
ag280
ag281
ag282
ag301
ag302
ag303
ag304
ag290
ag291
ag292
ag293
asa(dp312
g2
(lp313
I0
aI0
aF0.9053452647781677
aF-0.32482550833715096
aF0.5682042217139575
aF0.02397285400739411
aF0.7556835672625729
aF-0.5650100954193231
aF0.18782833088945286
aF0.5029590811111431
aF-0.33642826784472557
aF-2.644515872597399
aF1.6116239747270296
aF-1.2492703448619555
aF-1.1033680721977783
aF0.8824373777794359
aF-1.0239241046706327
aF0.17
aF-1.9049369848901019
aF-0.5279910366508953
aF-1.094110980224242
aF-0.9086243200726654
aF1.0371692229385807
aF-0.713586503136012
aF0.17193631653531283
aF-0.11530977458348207
aF0.4422903719806719
aF-1.0618566707879642
aF2.213812655125848
aF-0.252006447847293
aF0.3218166288076134
aF0.15682296995719391
aF-0.301305262756406
aF-1.695191794637256
aF0.3134832955735944
aF0.00997679502433857
aF0.11315346242314556
asg4
(dp314
g6
(dp315
g8
(lp316
(lp317
F0.09
aF0.05
aF-0.105
aa(lp318
F0.09
aF-0.05
aF-0.105
aa(lp319
F-0.09
aF-0.05
aF-0.105
aa(lp320
F-0.09
aF0.05
aF-0.105
aasg14
(lp321
(lp322
F-1.1379786002407855e-15
aF6.106226635438361e-16
aF1.0000000000000013
aa(lp323
F-1.1379786002407855e-15
aF6.106226635438361e-16
aF1.0000000000000013
aa(lp324
F-1.1379786002407855e-15
aF6.106226635438361e-16
aF1.0000000000000013
aa(lp325
F-1.1379786002407855e-15
aF6.106226635438361e-16
aF1.0000000000000013
aassg20
(dp326
g8
(lp327
(lp328
F0.02499999999999998
aF-0.045
aF0.06499999999999996
aa(lp329
F0.024999999999999988
aF-0.04499999999999999
aF0.10499999999999995
aa(lp330
F-0.00500000000000001
aF-0.044999999999999984
aF0.10499999999999997
aa(lp331
F-0.00500000000000002
aF-0.04499999999999999
aF0.06499999999999997
aasg14
(lp332
(lp333
F1.3877787807814457e-16
aF1.0000000000000004
aF-3.3306690738754696e-16
aa(lp334
F1.3877787807814457e-16
aF1.0000000000000004
aF-3.3306690738754696e-16
aa(lp335
F1.3877787807814457e-16
aF1.0000000000000004
aF-3.3306690738754696e-16
aa(lp336
F1.3877787807814457e-16
aF1.0000000000000004
aF-3.3306690738754696e-16
aassg32
(dp337
g8
(lp338
(lp339
F0.09
aF0.05
aF-0.105
aa(lp340
F0.09
aF-0.05
aF-0.105
aa(lp341
F-0.09
aF-0.05
aF-0.105
aa(lp342
F-0.09
aF0.05
aF-0.105
aasg14
(lp343
(lp344
F0.0
aF-2.7755575615628914e-17
aF0.9999999999999999
aa(lp345
F0.0
aF-2.7755575615628914e-17
aF0.9999999999999999
aa(lp346
F0.0
aF-2.7755575615628914e-17
aF0.9999999999999999
aa(lp347
F0.0
aF-2.7755575615628914e-17
aF0.9999999999999999
aasssg14
(lp348
g322
ag323
ag324
ag325
ag344
ag345
ag346
ag347
ag333
ag334
ag335
ag336
asg8
(lp349
g317
ag318
ag319
ag320
ag339
ag340
ag341
ag342
ag328
ag329
ag330
ag331
asa(dp350
g2
(lp351
I0
aI0
aF0.49473316888079666
aF0.6273344874848336
aF0.37581322182913485
aF0.5617084666152542
aF0.3869101467308484
aF-0.1931064048538098
aF0.8068504547128899
aF-0.10082869684237361
aF-0.29275303610223535
aF-0.47398850991106034
aF-0.14364353037611371
aF1.0909822318172464
aF-0.7512811996417172
aF-0.2558380903009967
aF1.2710924323791606
aF0.17
aF-1.0142139357956657
aF-0.9005295082274003
aF1.0708124913453647
aF-0.08357448399346534
aF-1.273346252681057
aF-1.483180524667483
aF0.16613122113101708
aF-0.3155819865703481
aF-0.29891852052037815
aF-0.07564761373706874
aF0.481424605661118
aF-1.3028543183639423
aF-0.17433325341263328
aF-0.20970961953387812
aF-0.3355478267776979
aF-1.9295962000441012
aF1.7284000712365724
aF0.2093804629331113
aF-0.18161882321334577
asg4
(dp352
g6
(dp353
g8
(lp354
(lp355
F0.09
aF0.05
aF-0.105
aa(lp356
F0.09
aF-0.05
aF-0.105
aa(lp357
F-0.09
aF-0.05
aF-0.105
aa(lp358
F-0.09
aF0.05
aF-0.105
aasg14
(lp359
(lp360
F9.71445146547012e-17
aF-2.220446049250313e-16
aF0.9999999999999998
aa(lp361
F9.71445146547012e-17
aF-2.220446049250313e-16
aF0.9999999999999998
aa(lp362
F9.71445146547012e-17
aF-2.220446049250313e-16
aF0.9999999999999998
aa(lp363
F9.71445146547012e-17
aF-2.220446049250313e-16
aF0.9999999999999998
aassg20
(dp364
g8
(lp365
(lp366
F0.02499999999999998
aF-0.045
aF0.06499999999999996
aa(lp367
F0.024999999999999988
aF-0.04499999999999999
aF0.10499999999999995
aa(lp368
F-0.00500000000000001
aF-0.044999999999999984
aF0.10499999999999997
aa(lp369
F-0.00500000000000002
aF-0.04499999999999999
aF0.06499999999999997
aasg14
(lp370
(lp371
F-1.887379141862766e-15
aF0.9999999999999973
aF2.220446049250313e-16
aa(lp372
F-1.887379141862766e-15
aF0.9999999999999973
aF2.220446049250313e-16
aa(lp373
F-1.887379141862766e-15
aF0.9999999999999973
aF2.220446049250313e-16
aa(lp374
F-1.887379141862766e-15
aF0.9999999999999973
aF2.220446049250313e-16
aassg32
(dp375
g8
(lp376
(lp377
F0.09
aF0.05
aF-0.105
aa(lp378
F0.09
aF-0.05
aF-0.105
aa(lp379
F-0.09
aF-0.05
aF-0.105
aa(lp380
F-0.09
aF0.05
aF-0.105
aasg14
(lp381
(lp382
F3.608224830031759e-16
aF-5.551115123125783e-17
aF0.9999999999999997
aa(lp383
F3.608224830031759e-16
aF-5.551115123125783e-17
aF0.9999999999999997
aa(lp384
F3.608224830031759e-16
aF-5.551115123125783e-17
aF0.9999999999999997
aa(lp385
F3.608224830031759e-16
aF-5.551115123125783e-17
aF0.9999999999999997
aasssg14
(lp386
g360
ag361
ag362
ag363
ag382
ag383
ag384
ag385
ag371
ag372
ag373
ag374
asg8
(lp387
g355
ag356
ag357
ag358
ag377
ag378
ag379
ag380
ag366
ag367
ag368
ag369
asa.