(lp0
(dp1
S'q'
p2
(lp3
I0
aI0
aF1.464326766070131
aF-0.08483716192352576
aF0.41249075194141943
aF-0.24437382252572412
aF-0.8734617738537443
aF0.14958341387202656
aF0.03849665729293142
aF0.23623408107405908
aF0.377111365777252
aF-2.9221720110683895
aF0.26648054670985494
aF-1.3398703248009878
aF-0.45576534678074654
aF-0.24728077242718105
aF-1.5438640258637089
aF0.17
aF-3.0861702088172316
aF0.011516211084901418
aF-1.3248466635916132
aF-1.184885024869719
aF-1.5264042266643159
aF-0.5489688960571162
aF0.17084567301713194
aF0.6940478951351728
aF0.47021956902556894
aF0.39360505568983184
aF1.654394684624563
aF-0.780925762125897
aF-0.435342433258658
aF0.378816046279973
aF-0.10519476431271191
aF-1.658459996692635
aF1.4374431894155513
aF0.23609759139274145
aF0.5284011993312869
asS'contact_points'
p4
(dp5
S'LLEG_JOINT5'
p6
(dp7
S'P'
p8
(lp9
(lp10
F0.09
aF0.05
aF-0.105
aa(lp11
F0.09
aF-0.05
aF-0.105
aa(lp12
F-0.09
aF-0.05
aF-0.105
aa(lp13
F-0.09
aF0.05
aF-0.105
aasS'N'
p14
(lp15
(lp16
F-2.220446049250313e-16
aF8.326672684688674e-16
aF0.9999999999999998
aa(lp17
F-2.220446049250313e-16
aF8.326672684688674e-16
aF0.9999999999999998
aa(lp18
F-2.220446049250313e-16
aF8.326672684688674e-16
aF0.9999999999999998
aa(lp19
F-2.220446049250313e-16
aF8.326672684688674e-16
aF0.9999999999999998
aassS'RARM_JOINT5'
p20
(dp21
g8
(lp22
(lp23
F0.004999999999999982
aF-0.045
aF0.06499999999999996
aa(lp24
F0.004999999999999992
aF-0.04499999999999999
aF0.10499999999999995
aa(lp25
F-0.02500000000000001
aF-0.044999999999999984
aF0.10499999999999997
aa(lp26
F-0.025000000000000015
aF-0.04499999999999999
aF0.06499999999999997
aasg14
(lp27
(lp28
F3.3306690738754696e-16
aF0.9999999999999998
aF5.551115123125783e-17
aa(lp29
F3.3306690738754696e-16
aF0.9999999999999998
aF5.551115123125783e-17
aa(lp30
F3.3306690738754696e-16
aF0.9999999999999998
aF5.551115123125783e-17
aa(lp31
F3.3306690738754696e-16
aF0.9999999999999998
aF5.551115123125783e-17
aassS'RLEG_JOINT5'
p32
(dp33
g8
(lp34
(lp35
F0.09
aF0.05
aF-0.105
aa(lp36
F0.09
aF-0.05
aF-0.105
aa(lp37
F-0.09
aF-0.05
aF-0.105
aa(lp38
F-0.09
aF0.05
aF-0.105
aasg14
(lp39
(lp40
F-5.551115123125783e-17
aF1.8041124150158794e-16
aF1.0
aa(lp41
F-5.551115123125783e-17
aF1.8041124150158794e-16
aF1.0
aa(lp42
F-5.551115123125783e-17
aF1.8041124150158794e-16
aF1.0
aa(lp43
F-5.551115123125783e-17
aF1.8041124150158794e-16
aF1.0
aasssg14
(lp44
g16
ag17
ag18
ag19
ag40
ag41
ag42
ag43
ag28
ag29
ag30
ag31
asg8
(lp45
g10
ag11
ag12
ag13
ag35
ag36
ag37
ag38
ag23
ag24
ag25
ag26
asa(dp46
g2
(lp47
I0
aI0
aF1.9921641151384286
aF0.5366538302520731
aF-0.10516682870422488
aF-0.6802630366766782
aF0.48804180717178297
aF-0.5117997784980414
aF0.7319448654138921
aF0.03770301143289778
aF0.36874758355086945
aF0.16911353523337924
aF0.416811909103407
aF-0.8984903188454874
aF-1.7035837689414586
aF-0.46653423832609975
aF1.2593649413398766
aF0.17
aF-0.7477385695244689
aF-1.5659666448434544
aF0.500432391397996
aF-0.9616812444251235
aF1.5595022004326815
aF-1.0484313796959497
aF0.17021391642988376
aF0.0367019325452842
aF0.47201513240485826
aF-2.0646881144824873
aF1.0739548852635983
aF0.03282034235820075
aF-0.27521310513082387
aF-0.5340745436924665
aF-0.32025483611992084
aF-0.0010576545970883977
aF0.22382009010155118
aF0.27676205019790023
aF0.481845797832001
asg4
(dp48
g6
(dp49
g8
(lp50
(lp51
F0.09
aF0.05
aF-0.105
aa(lp52
F0.09
aF-0.05
aF-0.105
aa(lp53
F-0.09
aF-0.05
aF-0.105
aa(lp54
F-0.09
aF0.05
aF-0.105
aasg14
(lp55
(lp56
F8.326672684688674e-17
aF-1.6653345369377348e-16
aF1.0
aa(lp57
F8.326672684688674e-17
aF-1.6653345369377348e-16
aF1.0
aa(lp58
F8.326672684688674e-17
aF-1.6653345369377348e-16
aF1.0
aa(lp59
F8.326672684688674e-17
aF-1.6653345369377348e-16
aF1.0
aassg20
(dp60
g8
(lp61
(lp62
F0.004999999999999982
aF-0.045
aF0.06499999999999996
aa(lp63
F0.004999999999999992
aF-0.04499999999999999
aF0.10499999999999995
aa(lp64
F-0.02500000000000001
aF-0.044999999999999984
aF0.10499999999999997
aa(lp65
F-0.025000000000000015
aF-0.04499999999999999
aF0.06499999999999997
aasg14
(lp66
(lp67
F2.220446049250313e-15
aF0.999999999999997
aF1.887379141862766e-15
aa(lp68
F2.220446049250313e-15
aF0.999999999999997
aF1.887379141862766e-15
aa(lp69
F2.220446049250313e-15
aF0.999999999999997
aF1.887379141862766e-15
aa(lp70
F2.220446049250313e-15
aF0.999999999999997
aF1.887379141862766e-15
aassg32
(dp71
g8
(lp72
(lp73
F0.09
aF0.05
aF-0.105
aa(lp74
F0.09
aF-0.05
aF-0.105
aa(lp75
F-0.09
aF-0.05
aF-0.105
aa(lp76
F-0.09
aF0.05
aF-0.105
aasg14
(lp77
(lp78
F-2.220446049250313e-16
aF-1.0668549377257364e-16
aF0.9999999999999997
aa(lp79
F-2.220446049250313e-16
aF-1.0668549377257364e-16
aF0.9999999999999997
aa(lp80
F-2.220446049250313e-16
aF-1.0668549377257364e-16
aF0.9999999999999997
aa(lp81
F-2.220446049250313e-16
aF-1.0668549377257364e-16
aF0.9999999999999997
aasssg14
(lp82
g56
ag57
ag58
ag59
ag78
ag79
ag80
ag81
ag67
ag68
ag69
ag70
asg8
(lp83
g51
ag52
ag53
ag54
ag73
ag74
ag75
ag76
ag62
ag63
ag64
ag65
asa(dp84
g2
(lp85
I0
aI0
aF0.4746539822195908
aF0.066320007602644
aF0.7690959346592792
aF0.38761094010979846
aF0.5038361429962654
aF0.23989943326415952
aF0.9888072312285184
aF0.7135669297832794
aF-0.04956207892871045
aF-2.3266650378022553
aF0.4502526569004431
aF-0.3279749936279257
aF-1.9494327678385797
aF1.2706581147000928
aF0.14153702475188168
aF0.17
aF0.2635286230785674
aF-1.2908480067254682
aF0.8339239460273757
aF-1.2720106741258506
aF-0.38440035535669903
aF-1.3589676349376643
aF0.1707589672299842
aF-0.4099282678837354
aF0.3071639269588031
aF0.3940217744916219
aF0.39575666077330096
aF-1.1595625630479
aF0.20570789287763735
aF0.21148310900124545
aF0.16433392279093195
aF0.6321114638913801
aF2.5578033216101765
aF-0.18729276574742815
aF-0.16231774748443287
asg4
(dp86
g6
(dp87
g8
(lp88
(lp89
F0.09
aF0.05
aF-0.105
aa(lp90
F0.09
aF-0.05
aF-0.105
aa(lp91
F-0.09
aF-0.05
aF-0.105
aa(lp92
F-0.09
aF0.05
aF-0.105
aasg14
(lp93
(lp94
F-5.585809592645319e-16
aF-1.214306433183765e-17
aF1.0000000000000007
aa(lp95
F-5.585809592645319e-16
aF-1.214306433183765e-17
aF1.0000000000000007
aa(lp96
F-5.585809592645319e-16
aF-1.214306433183765e-17
aF1.0000000000000007
aa(lp97
F-5.585809592645319e-16
aF-1.214306433183765e-17
aF1.0000000000000007
aassg20
(dp98
g8
(lp99
(lp100
F0.004999999999999982
aF-0.045
aF0.06499999999999996
aa(lp101
F0.004999999999999992
aF-0.04499999999999999
aF0.10499999999999995
aa(lp102
F-0.02500000000000001
aF-0.044999999999999984
aF0.10499999999999997
aa(lp103
F-0.025000000000000015
aF-0.04499999999999999
aF0.06499999999999997
aasg14
(lp104
(lp105
F3.885780586188048e-16
aF0.9999999999999998
aF-8.326672684688674e-17
aa(lp106
F3.885780586188048e-16
aF0.9999999999999998
aF-8.326672684688674e-17
aa(lp107
F3.885780586188048e-16
aF0.9999999999999998
aF-8.326672684688674e-17
aa(lp108
F3.885780586188048e-16
aF0.9999999999999998
aF-8.326672684688674e-17
aassg32
(dp109
g8
(lp110
(lp111
F0.09
aF0.05
aF-0.105
aa(lp112
F0.09
aF-0.05
aF-0.105
aa(lp113
F-0.09
aF-0.05
aF-0.105
aa(lp114
F-0.09
aF0.05
aF-0.105
aasg14
(lp115
(lp116
F1.3877787807814457e-16
aF1.1102230246251565e-16
aF1.0
aa(lp117
F1.3877787807814457e-16
aF1.1102230246251565e-16
aF1.0
aa(lp118
F1.3877787807814457e-16
aF1.1102230246251565e-16
aF1.0
aa(lp119
F1.3877787807814457e-16
aF1.1102230246251565e-16
aF1.0
aasssg14
(lp120
g94
ag95
ag96
ag97
ag116
ag117
ag118
ag119
ag105
ag106
ag107
ag108
asg8
(lp121
g89
ag90
ag91
ag92
ag111
ag112
ag113
ag114
ag100
ag101
ag102
ag103
asa(dp122
g2
(lp123
I0
aI0
aF1.079246802478678
aF0.08325728293695867
aF0.4294365639967165
aF-0.8915775684894048
aF-0.1172258576729964
aF-0.3487601386161531
aF0.22575131912771415
aF-0.4921752880584101
aF0.5628587145378044
aF0.2932843714688693
aF0.18470754898233088
aF1.4854344421719825
aF-0.9653138438907978
aF1.2929384706176996
aF-1.0005810401735271
aF0.17
aF0.02862485120035485
aF-0.024799383724097623
aF0.3197970889168311
aF-1.8944296720505895
aF-1.4442668623463095
aF-0.9225906215270472
aF0.16658947685807454
aF0.5628664094872636
aF-0.14128558583446757
aF-1.079148780732645
aF1.2248345838668613
aF-0.8611785769464739
aF-0.18312402917905107
aF-0.21995795181470268
aF-0.5852898018972122
aF0.043067549981427256
aF2.4124729814015193
aF-1.2968109343394856
aF0.23799556735009642
asg4
(dp124
g6
(dp125
g8
(lp126
(lp127
F0.09
aF0.05
aF-0.105
aa(lp128
F0.09
aF-0.05
aF-0.105
aa(lp129
F-0.09
aF-0.05
aF-0.105
aa(lp130
F-0.09
aF0.05
aF-0.105
aasg14
(lp131
(lp132
F-8.239936510889834e-17
aF2.7755575615628914e-16
aF1.0000000000000002
aa(lp133
F-8.239936510889834e-17
aF2.7755575615628914e-16
aF1.0000000000000002
aa(lp134
F-8.239936510889834e-17
aF2.7755575615628914e-16
aF1.0000000000000002
aa(lp135
F-8.239936510889834e-17
aF2.7755575615628914e-16
aF1.0000000000000002
aassg20
(dp136
g8
(lp137
(lp138
F0.004999999999999982
aF-0.045
aF0.06499999999999996
aa(lp139
F0.004999999999999992
aF-0.04499999999999999
aF0.10499999999999995
aa(lp140
F-0.02500000000000001
aF-0.044999999999999984
aF0.10499999999999997
aa(lp141
F-0.025000000000000015
aF-0.04499999999999999
aF0.06499999999999997
aasg14
(lp142
(lp143
F2.1094237467877974e-15
aF0.9999999999999981
aF8.881784197001252e-16
aa(lp144
F2.1094237467877974e-15
aF0.9999999999999981
aF8.881784197001252e-16
aa(lp145
F2.1094237467877974e-15
aF0.9999999999999981
aF8.881784197001252e-16
aa(lp146
F2.1094237467877974e-15
aF0.9999999999999981
aF8.881784197001252e-16
aassg32
(dp147
g8
(lp148
(lp149
F0.09
aF0.05
aF-0.105
aa(lp150
F0.09
aF-0.05
aF-0.105
aa(lp151
F-0.09
aF-0.05
aF-0.105
aa(lp152
F-0.09
aF0.05
aF-0.105
aasg14
(lp153
(lp154
F-8.396061623727746e-16
aF1.6653345369377348e-16
aF0.9999999999999996
aa(lp155
F-8.396061623727746e-16
aF1.6653345369377348e-16
aF0.9999999999999996
aa(lp156
F-8.396061623727746e-16
aF1.6653345369377348e-16
aF0.9999999999999996
aa(lp157
F-8.396061623727746e-16
aF1.6653345369377348e-16
aF0.9999999999999996
aasssg14
(lp158
g132
ag133
ag134
ag135
ag154
ag155
ag156
ag157
ag143
ag144
ag145
ag146
asg8
(lp159
g127
ag128
ag129
ag130
ag149
ag150
ag151
ag152
ag138
ag139
ag140
ag141
asa(dp160
g2
(lp161
I0
aI0
aF0.0859599980925955
aF-0.3901463972337849
aF-0.2721273135619554
aF-0.5302993505824408
aF-0.7017942096589943
aF-0.31588936293652997
aF0.5793324487270423
aF-0.44283820174876426
aF0.32605923273380955
aF0.3793572610471947
aF0.3801811468597726
aF0.148268313969657
aF-0.18158780729890722
aF0.7866536951889069
aF-0.6180957054465989
aF0.17
aF0.8263179792917184
aF-1.3577771518071087
aF0.23410895389430642
aF-1.1480843471993694
aF0.15763887667224696
aF-0.7474559634949807
aF0.16868966107894184
aF0.07224826698015652
aF0.5094610988491048
aF0.41814595328528714
aF1.2809429873040499
aF-0.9412892905142154
aF-0.5963548085259589
aF-0.5586017708472204
aF-0.1980581486318317
aF-1.9933046190097483
aF0.5283889712913967
aF0.29463025173073354
aF0.3553987520414654
asg4
(dp162
g6
(dp163
g8
(lp164
(lp165
F0.09
aF0.05
aF-0.105
aa(lp166
F0.09
aF-0.05
aF-0.105
aa(lp167
F-0.09
aF-0.05
aF-0.105
aa(lp168
F-0.09
aF0.05
aF-0.105
aasg14
(lp169
(lp170
F0.0
aF-5.551115123125783e-17
aF1.0
aa(lp171
F0.0
aF-5.551115123125783e-17
aF1.0
aa(lp172
F0.0
aF-5.551115123125783e-17
aF1.0
aa(lp173
F0.0
aF-5.551115123125783e-17
aF1.0
aassg20
(dp174
g8
(lp175
(lp176
F0.004999999999999982
aF-0.045
aF0.06499999999999996
aa(lp177
F0.004999999999999992
aF-0.04499999999999999
aF0.10499999999999995
aa(lp178
F-0.02500000000000001
aF-0.044999999999999984
aF0.10499999999999997
aa(lp179
F-0.025000000000000015
aF-0.04499999999999999
aF0.06499999999999997
aasg14
(lp180
(lp181
F-6.106226635438361e-16
aF0.9999999999999989
aF9.992007221626409e-16
aa(lp182
F-6.106226635438361e-16
aF0.9999999999999989
aF9.992007221626409e-16
aa(lp183
F-6.106226635438361e-16
aF0.9999999999999989
aF9.992007221626409e-16
aa(lp184
F-6.106226635438361e-16
aF0.9999999999999989
aF9.992007221626409e-16
aassg32
(dp185
g8
(lp186
(lp187
F0.09
aF0.05
aF-0.105
aa(lp188
F0.09
aF-0.05
aF-0.105
aa(lp189
F-0.09
aF-0.05
aF-0.105
aa(lp190
F-0.09
aF0.05
aF-0.105
aasg14
(lp191
(lp192
F-2.7755575615628914e-17
aF-2.7755575615628914e-16
aF0.9999999999999997
aa(lp193
F-2.7755575615628914e-17
aF-2.7755575615628914e-16
aF0.9999999999999997
aa(lp194
F-2.7755575615628914e-17
aF-2.7755575615628914e-16
aF0.9999999999999997
aa(lp195
F-2.7755575615628914e-17
aF-2.7755575615628914e-16
aF0.9999999999999997
aasssg14
(lp196
g170
ag171
ag172
ag173
ag192
ag193
ag194
ag195
ag181
ag182
ag183
ag184
asg8
(lp197
g165
ag166
ag167
ag168
ag187
ag188
ag189
ag190
ag176
ag177
ag178
ag179
asa(dp198
g2
(lp199
I0
aI0
aF1.0827814912808973
aF-0.2591791787174611
aF-0.06222033657036012
aF-0.2156247094837665
aF-0.9393938299224958
aF0.5288441537725024
aF0.8169186878081383
aF0.4448018316599558
aF0.251219132011152
aF-1.0518736468331116
aF1.5153795117936375
aF0.28591651605722324
aF-0.7485623705692364
aF-0.4269312211274314
aF-1.5241149184398421
aF0.17
aF-0.7586537070228498
aF-1.5489338291664663
aF-1.584308985090353
aF-0.6171182432527067
aF0.27193576849113965
aF-1.3189757146113903
aF0.16847177437668284
aF-0.2874708226853664
aF-0.2001278763046995
aF-1.3362936675172996
aF1.644265805038383
aF-0.07355666844651143
aF0.007755672214286746
aF-0.6500765297483511
aF-0.4591647674685865
aF0.11082522582502374
aF1.545029653983427
aF-0.8834437319868365
aF0.12483350722628805
asg4
(dp200
g6
(dp201
g8
(lp202
(lp203
F0.09
aF0.05
aF-0.105
aa(lp204
F0.09
aF-0.05
aF-0.105
aa(lp205
F-0.09
aF-0.05
aF-0.105
aa(lp206
F-0.09
aF0.05
aF-0.105
aasg14
(lp207
(lp208
F5.551115123125783e-17
aF-1.1102230246251565e-16
aF1.0
aa(lp209
F5.551115123125783e-17
aF-1.1102230246251565e-16
aF1.0
aa(lp210
F5.551115123125783e-17
aF-1.1102230246251565e-16
aF1.0
aa(lp211
F5.551115123125783e-17
aF-1.1102230246251565e-16
aF1.0
aassg20
(dp212
g8
(lp213
(lp214
F0.004999999999999982
aF-0.045
aF0.06499999999999996
aa(lp215
F0.004999999999999992
aF-0.04499999999999999
aF0.10499999999999995
aa(lp216
F-0.02500000000000001
aF-0.044999999999999984
aF0.10499999999999997
aa(lp217
F-0.025000000000000015
aF-0.04499999999999999
aF0.06499999999999997
aasg14
(lp218
(lp219
F-1.734723475976807e-18
aF0.9999999999999996
aF8.326672684688674e-17
aa(lp220
F-1.734723475976807e-18
aF0.9999999999999996
aF8.326672684688674e-17
aa(lp221
F-1.734723475976807e-18
aF0.9999999999999996
aF8.326672684688674e-17
aa(lp222
F-1.734723475976807e-18
aF0.9999999999999996
aF8.326672684688674e-17
aassg32
(dp223
g8
(lp224
(lp225
F0.09
aF0.05
aF-0.105
aa(lp226
F0.09
aF-0.05
aF-0.105
aa(lp227
F-0.09
aF-0.05
aF-0.105
aa(lp228
F-0.09
aF0.05
aF-0.105
aasg14
(lp229
(lp230
F-1.1102230246251565e-16
aF7.979727989493313e-17
aF1.0000000000000002
aa(lp231
F-1.1102230246251565e-16
aF7.979727989493313e-17
aF1.0000000000000002
aa(lp232
F-1.1102230246251565e-16
aF7.979727989493313e-17
aF1.0000000000000002
aa(lp233
F-1.1102230246251565e-16
aF7.979727989493313e-17
aF1.0000000000000002
aasssg14
(lp234
g208
ag209
ag210
ag211
ag230
ag231
ag232
ag233
ag219
ag220
ag221
ag222
asg8
(lp235
g203
ag204
ag205
ag206
ag225
ag226
ag227
ag228
ag214
ag215
ag216
ag217
asa(dp236
g2
(lp237
I0
aI0
aF1.1249115918413326
aF0.3946854599407313
aF-0.46378186309053226
aF-0.5614269804992447
aF0.5602941341359455
aF-0.5563227483882517
aF0.20895606474107362
aF0.11180065330523936
aF0.46810109904276553
aF-0.9004501110186238
aF1.3821489033797096
aF-0.12211311087888355
aF-0.3418426322914745
aF1.178507836989876
aF-0.7741014580097987
aF0.17
aF-1.541378139067985
aF-1.5967033326495976
aF1.3694838110674097
aF-0.19043611665892524
aF0.9157533560499795
aF-1.3644689508324344
aF0.16913419948151998
aF0.5283001607230237
aF-0.048771546198686844
aF0.09028725768287149
aF1.3263238957662262
aF0.6290629928383011
aF-0.12250845617938017
aF-0.7218254472415156
aF-0.45674305745066934
aF-2.1037166847957693
aF1.4504218242003333
aF0.10174011656284598
aF-0.1771714533855265
asg4
(dp238
g6
(dp239
g8
(lp240
(lp241
F0.09
aF0.05
aF-0.105
aa(lp242
F0.09
aF-0.05
aF-0.105
aa(lp243
F-0.09
aF-0.05
aF-0.105
aa(lp244
F-0.09
aF0.05
aF-0.105
aasg14
(lp245
(lp246
F2.7755575615628914e-16
aF-4.440892098500626e-16
aF0.9999999999999993
aa(lp247
F2.7755575615628914e-16
aF-4.440892098500626e-16
aF0.9999999999999993
aa(lp248
F2.7755575615628914e-16
aF-4.440892098500626e-16
aF0.9999999999999993
aa(lp249
F2.7755575615628914e-16
aF-4.440892098500626e-16
aF0.9999999999999993
aassg20
(dp250
g8
(lp251
(lp252
F0.004999999999999982
aF-0.045
aF0.06499999999999996
aa(lp253
F0.004999999999999992
aF-0.04499999999999999
aF0.10499999999999995
aa(lp254
F-0.02500000000000001
aF-0.044999999999999984
aF0.10499999999999997
aa(lp255
F-0.025000000000000015
aF-0.04499999999999999
aF0.06499999999999997
aasg14
(lp256
(lp257
F1.582067810090848e-15
aF0.999999999999996
aF3.885780586188048e-16
aa(lp258
F1.582067810090848e-15
aF0.999999999999996
aF3.885780586188048e-16
aa(lp259
F1.582067810090848e-15
aF0.999999999999996
aF3.885780586188048e-16
aa(lp260
F1.582067810090848e-15
aF0.999999999999996
aF3.885780586188048e-16
aassg32
(dp261
g8
(lp262
(lp263
F0.09
aF0.05
aF-0.105
aa(lp264
F0.09
aF-0.05
aF-0.105
aa(lp265
F-0.09
aF-0.05
aF-0.105
aa(lp266
F-0.09
aF0.05
aF-0.105
aasg14
(lp267
(lp268
F-1.6653345369377348e-16
aF1.1102230246251565e-16
aF1.0
aa(lp269
F-1.6653345369377348e-16
aF1.1102230246251565e-16
aF1.0
aa(lp270
F-1.6653345369377348e-16
aF1.1102230246251565e-16
aF1.0
aa(lp271
F-1.6653345369377348e-16
aF1.1102230246251565e-16
aF1.0
aasssg14
(lp272
g246
ag247
ag248
ag249
ag268
ag269
ag270
ag271
ag257
ag258
ag259
ag260
asg8
(lp273
g241
ag242
ag243
ag244
ag263
ag264
ag265
ag266
ag252
ag253
ag254
ag255
asa(dp274
g2
(lp275
I0
aI0
aF1.763249831350171
aF-0.4099979471786585
aF0.2694177303044675
aF0.4898304311399978
aF-0.7206815653505223
aF-0.243453116551695
aF0.5897831317492495
aF0.5941581586343236
aF0.3387009362874711
aF-1.054335964105947
aF0.671413510078553
aF-0.6057475638249178
aF-1.3731564267812917
aF0.9397404610665705
aF-0.2799354051240883
aF0.17
aF0.1202104469076084
aF-0.5388925160921465
aF-1.598023599407041
aF-1.6208164118797317
aF0.4917871634901909
aF-1.5064337859229806
aF0.16585652939549486
aF-0.14151193634672504
aF0.3289576891362036
aF-1.2333019092984776
aF1.0713216747849823
aF0.3030032741552402
aF0.32555007094652766
aF0.27021126256209205
aF0.16617185979167926
aF-0.946238610706434
aF1.5777978189343929
aF-1.0598890468372717
aF-0.2611960221104771
asg4
(dp276
g6
(dp277
g8
(lp278
(lp279
F0.09
aF0.05
aF-0.105
aa(lp280
F0.09
aF-0.05
aF-0.105
aa(lp281
F-0.09
aF-0.05
aF-0.105
aa(lp282
F-0.09
aF0.05
aF-0.105
aasg14
(lp283
(lp284
F1.717376241217039e-15
aF1.0547118733938987e-15
aF1.0000000000000018
aa(lp285
F1.717376241217039e-15
aF1.0547118733938987e-15
aF1.0000000000000018
aa(lp286
F1.717376241217039e-15
aF1.0547118733938987e-15
aF1.0000000000000018
aa(lp287
F1.717376241217039e-15
aF1.0547118733938987e-15
aF1.0000000000000018
aassg20
(dp288
g8
(lp289
(lp290
F0.004999999999999982
aF-0.045
aF0.06499999999999996
aa(lp291
F0.004999999999999992
aF-0.04499999999999999
aF0.10499999999999995
aa(lp292
F-0.02500000000000001
aF-0.044999999999999984
aF0.10499999999999997
aa(lp293
F-0.025000000000000015
aF-0.04499999999999999
aF0.06499999999999997
aasg14
(lp294
(lp295
F-8.326672684688674e-16
aF1.0000000000000009
aF-8.326672684688674e-16
aa(lp296
F-8.326672684688674e-16
aF1.0000000000000009
aF-8.326672684688674e-16
aa(lp297
F-8.326672684688674e-16
aF1.0000000000000009
aF-8.326672684688674e-16
aa(lp298
F-8.326672684688674e-16
aF1.0000000000000009
aF-8.326672684688674e-16
aassg32
(dp299
g8
(lp300
(lp301
F0.09
aF0.05
aF-0.105
aa(lp302
F0.09
aF-0.05
aF-0.105
aa(lp303
F-0.09
aF-0.05
aF-0.105
aa(lp304
F-0.09
aF0.05
aF-0.105
aasg14
(lp305
(lp306
F2.498001805406602e-16
aF-1.1102230246251565e-16
aF1.0000000000000002
aa(lp307
F2.498001805406602e-16
aF-1.1102230246251565e-16
aF1.0000000000000002
aa(lp308
F2.498001805406602e-16
aF-1.1102230246251565e-16
aF1.0000000000000002
aa(lp309
F2.498001805406602e-16
aF-1.1102230246251565e-16
aF1.0000000000000002
aasssg14
(lp310
g284
ag285
ag286
ag287
ag306
ag307
ag308
ag309
ag295
ag296
ag297
ag298
asg8
(lp311
g279
ag280
ag281
ag282
ag301
ag302
ag303
ag304
ag290
ag291
ag292
ag293
asa(dp312
g2
(lp313
I0
aI0
aF0.8892899102947163
aF0.8757048748921464
aF0.278077824584678
aF-0.017954585907283348
aF-0.3943238876980207
aF-0.03347904409018576
aF0.07702555774113723
aF0.6033684899926643
aF0.5336299110555668
aF-3.0341946981396033
aF0.43175004777706744
aF-0.8503288607090845
aF-1.7828981337311927
aF0.8444501370160611
aF-1.5747701048652967
aF0.17
aF-2.812939272486064
aF-1.407362296443789
aF-0.13941839532541045
aF-0.18044627749189202
aF-0.3734399558549466
aF0.49996614789788896
aF0.17194697587143024
aF0.34496064174300567
aF0.013208427015744317
aF0.307433802294935
aF0.9499143623665615
aF-0.8992436513488794
aF-0.587385752435535
aF-0.10617913930565448
aF0.23623901623317467
aF0.3546782854573549
aF2.414002546371496
aF0.6515874092795315
aF0.42161552998931273
asg4
(dp314
g6
(dp315
g8
(lp316
(lp317
F0.09
aF0.05
aF-0.105
aa(lp318
F0.09
aF-0.05
aF-0.105
aa(lp319
F-0.09
aF-0.05
aF-0.105
aa(lp320
F-0.09
aF0.05
aF-0.105
aasg14
(lp321
(lp322
F-2.7755575615628914e-17
aF2.7755575615628914e-17
aF1.0
aa(lp323
F-2.7755575615628914e-17
aF2.7755575615628914e-17
aF1.0
aa(lp324
F-2.7755575615628914e-17
aF2.7755575615628914e-17
aF1.0
aa(lp325
F-2.7755575615628914e-17
aF2.7755575615628914e-17
aF1.0
aassg20
(dp326
g8
(lp327
(lp328
F0.004999999999999982
aF-0.045
aF0.06499999999999996
aa(lp329
F0.004999999999999992
aF-0.04499999999999999
aF0.10499999999999995
aa(lp330
F-0.02500000000000001
aF-0.044999999999999984
aF0.10499999999999997
aa(lp331
F-0.025000000000000015
aF-0.04499999999999999
aF0.06499999999999997
aasg14
(lp332
(lp333
F-5.1486592766991635e-15
aF0.9999999999999943
aF-1.8041124150158794e-16
aa(lp334
F-5.1486592766991635e-15
aF0.9999999999999943
aF-1.8041124150158794e-16
aa(lp335
F-5.1486592766991635e-15
aF0.9999999999999943
aF-1.8041124150158794e-16
aa(lp336
F-5.1486592766991635e-15
aF0.9999999999999943
aF-1.8041124150158794e-16
aassg32
(dp337
g8
(lp338
(lp339
F0.09
aF0.05
aF-0.105
aa(lp340
F0.09
aF-0.05
aF-0.105
aa(lp341
F-0.09
aF-0.05
aF-0.105
aa(lp342
F-0.09
aF0.05
aF-0.105
aasg14
(lp343
(lp344
F0.0
aF5.551115123125783e-17
aF1.0
aa(lp345
F0.0
aF5.551115123125783e-17
aF1.0
aa(lp346
F0.0
aF5.551115123125783e-17
aF1.0
aa(lp347
F0.0
aF5.551115123125783e-17
aF1.0
aasssg14
(lp348
g322
ag323
ag324
ag325
ag344
ag345
ag346
ag347
ag333
ag334
ag335
ag336
asg8
(lp349
g317
ag318
ag319
ag320
ag339
ag340
ag341
ag342
ag328
ag329
ag330
ag331
asa(dp350
g2
(lp351
I0
aI0
aF1.1717178226316896
aF-0.1780721742400746
aF0.07965681266575435
aF-0.8857630649902336
aF-0.4211518558150405
aF-0.465582989742205
aF1.0170381968172957
aF0.47128571826002363
aF0.35281798730757463
aF-1.0237535324524267
aF1.4395703845875405
aF1.3201159325463767
aF-0.718805065586932
aF0.5961222480545854
aF1.2919732143769382
aF0.17
aF-0.19388219248558913
aF0.04264201404306722
aF-0.20984631837976475
aF-1.4036831031109331
aF-1.138325988759392
aF0.04234287369374301
aF0.17098231953381668
aF-0.05343292926164106
aF0.02716031568676902
aF-0.24511668281326093
aF2.507644034995586
aF-1.285583141020888
aF-0.5375900247488208
aF0.04684503640605142
aF-0.5755387561449519
aF-0.932389923376616
aF0.41180358933358263
aF0.38124024978306514
aF-0.23872708022668587
asg4
(dp352
g6
(dp353
g8
(lp354
(lp355
F0.09
aF0.05
aF-0.105
aa(lp356
F0.09
aF-0.05
aF-0.105
aa(lp357
F-0.09
aF-0.05
aF-0.105
aa(lp358
F-0.09
aF0.05
aF-0.105
aasg14
(lp359
(lp360
F3.3306690738754696e-16
aF1.1102230246251565e-16
aF1.0
aa(lp361
F3.3306690738754696e-16
aF1.1102230246251565e-16
aF1.0
aa(lp362
F3.3306690738754696e-16
aF1.1102230246251565e-16
aF1.0
aa(lp363
F3.3306690738754696e-16
aF1.1102230246251565e-16
aF1.0
aassg20
(dp364
g8
(lp365
(lp366
F0.004999999999999982
aF-0.045
aF0.06499999999999996
aa(lp367
F0.004999999999999992
aF-0.04499999999999999
aF0.10499999999999995
aa(lp368
F-0.02500000000000001
aF-0.044999999999999984
aF0.10499999999999997
aa(lp369
F-0.025000000000000015
aF-0.04499999999999999
aF0.06499999999999997
aasg14
(lp370
(lp371
F1.3877787807814457e-15
aF0.9999999999999987
aF7.355227538141662e-16
aa(lp372
F1.3877787807814457e-15
aF0.9999999999999987
aF7.355227538141662e-16
aa(lp373
F1.3877787807814457e-15
aF0.9999999999999987
aF7.355227538141662e-16
aa(lp374
F1.3877787807814457e-15
aF0.9999999999999987
aF7.355227538141662e-16
aassg32
(dp375
g8
(lp376
(lp377
F0.09
aF0.05
aF-0.105
aa(lp378
F0.09
aF-0.05
aF-0.105
aa(lp379
F-0.09
aF-0.05
aF-0.105
aa(lp380
F-0.09
aF0.05
aF-0.105
aasg14
(lp381
(lp382
F0.0
aF-2.7755575615628914e-16
aF0.9999999999999998
aa(lp383
F0.0
aF-2.7755575615628914e-16
aF0.9999999999999998
aa(lp384
F0.0
aF-2.7755575615628914e-16
aF0.9999999999999998
aa(lp385
F0.0
aF-2.7755575615628914e-16
aF0.9999999999999998
aasssg14
(lp386
g360
ag361
ag362
ag363
ag382
ag383
ag384
ag385
ag371
ag372
ag373
ag374
asg8
(lp387
g355
ag356
ag357
ag358
ag377
ag378
ag379
ag380
ag366
ag367
ag368
ag369
asa.