(lp0
(dp1
S'q'
p2
(lp3
F0.0
aF0.0
aF0.475964072298759
aF-0.16766561827628487
aF0.0015248935095286216
aF-0.9854567217885275
aF-0.027585587353261394
aF0.7561158464731471
aF1.0009123033654235
aF0.004254503922630382
aF0.30655327950494193
aF0.7486503436475345
aF1.108754261560267
aF0.4730922556795145
aF-0.5092695330028665
aF-0.6593983789450947
aF1.0126681030811595
aF0.17
aF-0.2486619609407854
aF-0.1401588784638783
aF-0.7942521751845963
aF-1.3669654728823812
aF0.6682816889265466
aF0.0770049330486473
aF0.17371483120076117
aF-0.13215175931309062
aF-0.06177633219426127
aF-0.283743070817906
aF1.7529494967904842
aF-1.1362330742299052
aF0.008610751429503669
aF-0.7398439764183404
aF-0.5253666079436304
aF-0.8168102985316321
aF1.6462176533626809
aF-0.5770674403995806
aF0.28018665326843156
asS'contact_points'
p4
(dp5
S'LLEG_JOINT5'
p6
(dp7
S'P'
p8
(lp9
(lp10
F0.09
aF0.05
aF-0.105
aa(lp11
F0.09
aF-0.05
aF-0.105
aa(lp12
F-0.09
aF-0.05
aF-0.105
aa(lp13
F-0.09
aF0.05
aF-0.105
aasS'N'
p14
(lp15
(lp16
F-5.082197683525802e-21
aF-1.6940658945086007e-21
aF1.0
aa(lp17
F-5.082197683525802e-21
aF-1.6940658945086007e-21
aF1.0
aa(lp18
F-5.082197683525802e-21
aF-1.6940658945086007e-21
aF1.0
aa(lp19
F-5.082197683525802e-21
aF-1.6940658945086007e-21
aF1.0
aassS'RLEG_JOINT5'
p20
(dp21
g8
(lp22
(lp23
F0.09
aF0.05
aF-0.105
aa(lp24
F0.09
aF-0.05
aF-0.105
aa(lp25
F-0.09
aF-0.05
aF-0.105
aa(lp26
F-0.09
aF0.05
aF-0.105
aasg14
(lp27
(lp28
F-1.3552527156068805e-20
aF-6.776263578034403e-21
aF0.9999999999999999
aa(lp29
F-1.3552527156068805e-20
aF-6.776263578034403e-21
aF0.9999999999999999
aa(lp30
F-1.3552527156068805e-20
aF-6.776263578034403e-21
aF0.9999999999999999
aa(lp31
F-1.3552527156068805e-20
aF-6.776263578034403e-21
aF0.9999999999999999
aasssg14
(lp32
g16
ag17
ag18
ag19
ag28
ag29
ag30
ag31
asg8
(lp33
g10
ag11
ag12
ag13
ag23
ag24
ag25
ag26
asa(dp34
g2
(lp35
F0.0
aF0.0
aF0.48724926381761724
aF0.08165175227279126
aF-0.0485969645141281
aF0.9844290791600665
aF-0.14788750621624078
aF-0.33726411892415903
aF0.7995514778089824
aF-0.41400350137296765
aF0.6285864346548126
aF-2.354936049249673
aF1.0667269108914408
aF-1.0695793851076996
aF-0.20990681662702526
aF-0.20219934923951488
aF-1.3416071842754758
aF0.17
aF-2.339391176118874
aF-0.5097699159558262
aF-0.5153801657876373
aF-1.0729881017559961
aF0.9744749513148216
aF0.8263228086620675
aF0.17367753122871626
aF-0.30269816051740855
aF0.6082338455211636
aF-0.7592116780724824
aF1.3001201439009076
aF-0.3364785988186471
aF-0.5271157450411291
aF-0.6224372026721254
aF-0.610865
aF-0.5780121434321213
aF1.0276342172912873
aF-0.21714971712415312
aF0.6102784271893953
asg4
(dp36
g6
(dp37
g8
(lp38
(lp39
F0.09
aF0.05
aF-0.105
aa(lp40
F0.09
aF-0.05
aF-0.105
aa(lp41
F-0.09
aF-0.05
aF-0.105
aa(lp42
F-0.09
aF0.05
aF-0.105
aasg14
(lp43
(lp44
F8.271806125530277e-25
aF8.271806125530277e-25
aF1.0
aa(lp45
F8.271806125530277e-25
aF8.271806125530277e-25
aF1.0
aa(lp46
F8.271806125530277e-25
aF8.271806125530277e-25
aF1.0
aa(lp47
F8.271806125530277e-25
aF8.271806125530277e-25
aF1.0
aassg20
(dp48
g8
(lp49
(lp50
F0.09
aF0.05
aF-0.105
aa(lp51
F0.09
aF-0.05
aF-0.105
aa(lp52
F-0.09
aF-0.05
aF-0.105
aa(lp53
F-0.09
aF0.05
aF-0.105
aasg14
(lp54
(lp55
F0.0
aF3.3881317890172014e-20
aF0.9999999999999999
aa(lp56
F0.0
aF3.3881317890172014e-20
aF0.9999999999999999
aa(lp57
F0.0
aF3.3881317890172014e-20
aF0.9999999999999999
aa(lp58
F0.0
aF3.3881317890172014e-20
aF0.9999999999999999
aasssg14
(lp59
g44
ag45
ag46
ag47
ag55
ag56
ag57
ag58
asg8
(lp60
g39
ag40
ag41
ag42
ag50
ag51
ag52
ag53
asa(dp61
g2
(lp62
F0.0
aF0.0
aF0.5201663727984035
aF-0.07690666608674973
aF-0.06815241138980445
aF0.8450985691062861
aF-0.5246418035456991
aF-0.4565988759426349
aF0.6809351340599641
aF0.7370363923833343
aF0.31145364263633635
aF-1.0976244394343229
aF1.365259230733243
aF-0.8637109254810078
aF-2.091201670383608
aF1.3247952793049136
aF-0.4344364673773462
aF0.17
aF-0.7464425704608031
aF-1.0405498643942657
aF1.0414192661769313
aF-1.2211808961464408
aF-0.9879233755559769
aF-1.246394094422317
aF0.17118724264026958
aF-0.026991860374696437
aF0.610865
aF-0.9614326630937873
aF1.0555251663906995
aF-0.3325696063228308
aF-0.5571799559820889
aF0.523599
aF-0.610865
aF-0.7342158713155599
aF1.1454246200110567
aF-0.6349910014464754
aF0.5275586966586214
asg4
(dp63
g6
(dp64
g8
(lp65
(lp66
F0.09
aF0.05
aF-0.105
aa(lp67
F0.09
aF-0.05
aF-0.105
aa(lp68
F-0.09
aF-0.05
aF-0.105
aa(lp69
F-0.09
aF0.05
aF-0.105
aasg14
(lp70
(lp71
F2.541098841762901e-21
aF-1.3552527156068805e-20
aF1.0
aa(lp72
F2.541098841762901e-21
aF-1.3552527156068805e-20
aF1.0
aa(lp73
F2.541098841762901e-21
aF-1.3552527156068805e-20
aF1.0
aa(lp74
F2.541098841762901e-21
aF-1.3552527156068805e-20
aF1.0
aassg20
(dp75
g8
(lp76
(lp77
F0.09
aF0.05
aF-0.105
aa(lp78
F0.09
aF-0.05
aF-0.105
aa(lp79
F-0.09
aF-0.05
aF-0.105
aa(lp80
F-0.09
aF0.05
aF-0.105
aasg14
(lp81
(lp82
F-1.3870164511289168e-20
aF0.0
aF1.0
aa(lp83
F-1.3870164511289168e-20
aF0.0
aF1.0
aa(lp84
F-1.3870164511289168e-20
aF0.0
aF1.0
aa(lp85
F-1.3870164511289168e-20
aF0.0
aF1.0
aasssg14
(lp86
g71
ag72
ag73
ag74
ag82
ag83
ag84
ag85
asg8
(lp87
g66
ag67
ag68
ag69
ag77
ag78
ag79
ag80
asa(dp88
g2
(lp89
F0.0
aF0.0
aF0.4638293226691564
aF-0.04985643355577846
aF-0.05667545069093643
aF-0.8560704528020254
aF-0.5113175228382192
aF0.1730182587172986
aF0.08192207658582415
aF-0.4467652604199533
aF0.5288876521934819
aF-1.2569711547869122
aF0.6390126359499608
aF-0.9925413127009017
aF-1.4496970309645656
aF-0.2145380577224485
aF-1.3060605049682597
aF0.17
aF-0.20138007054972418
aF-1.0298755744532895
aF1.5791668522535203
aF-1.1358297698500397
aF-0.10433392187172252
aF1.1654959974915704
aF0.1682521270556618
aF-0.523599
aF-0.09923616520941836
aF-1.0029742156126764
aF1.8127360631387137
aF-0.8601207546305816
aF-0.043258632687819654
aF-0.19030550924206355
aF-0.30368722659366487
aF-1.1899607050004637
aF1.7886997580635169
aF-0.5998432078071411
aF0.15258015660696445
asg4
(dp90
g6
(dp91
g8
(lp92
(lp93
F0.09
aF0.05
aF-0.105
aa(lp94
F0.09
aF-0.05
aF-0.105
aa(lp95
F-0.09
aF-0.05
aF-0.105
aa(lp96
F-0.09
aF0.05
aF-0.105
aasg14
(lp97
(lp98
F3.3881317890172014e-21
aF-6.776263578034403e-21
aF1.0
aa(lp99
F3.3881317890172014e-21
aF-6.776263578034403e-21
aF1.0
aa(lp100
F3.3881317890172014e-21
aF-6.776263578034403e-21
aF1.0
aa(lp101
F3.3881317890172014e-21
aF-6.776263578034403e-21
aF1.0
aassg20
(dp102
g8
(lp103
(lp104
F0.09
aF0.05
aF-0.105
aa(lp105
F0.09
aF-0.05
aF-0.105
aa(lp106
F-0.09
aF-0.05
aF-0.105
aa(lp107
F-0.09
aF0.05
aF-0.105
aasg14
(lp108
(lp109
F2.1002632740604218e-26
aF6.462348535570529e-27
aF1.0
aa(lp110
F2.1002632740604218e-26
aF6.462348535570529e-27
aF1.0
aa(lp111
F2.1002632740604218e-26
aF6.462348535570529e-27
aF1.0
aa(lp112
F2.1002632740604218e-26
aF6.462348535570529e-27
aF1.0
aasssg14
(lp113
g98
ag99
ag100
ag101
ag109
ag110
ag111
ag112
asg8
(lp114
g93
ag94
ag95
ag96
ag104
ag105
ag106
ag107
asa(dp115
g2
(lp116
F0.0
aF0.0
aF0.545590224097448
aF-0.013622984891212695
aF-0.25696102120059233
aF0.6293981851552178
aF-0.7332416875693312
aF0.13332627268847613
aF0.6092675634383217
aF-0.12281231920820579
aF-0.36838874546930045
aF-1.3282720971372406
aF1.1172803990696336
aF0.12390864184443307
aF-1.0124719665075101
aF1.515570538980174
aF0.4685847137737482
aF0.17
aF0.02212943087454411
aF-1.4945161814857402
aF-0.299982359268089
aF-1.1545701329035754
aF0.02462178492542444
aF-1.2766268853889438
aF0.1731024061507091
aF0.2585079191527634
aF-0.053881977454938834
aF-1.6258291389510433
aF1.0758995910670404
aF0.05818175224506623
aF0.24146780340422802
aF0.0425708726870331
aF-0.26602793443600725
aF-0.06958307716864068
aF-0.0349066
aF-0.385677319742261
aF0.5287460605146616
asg4
(dp117
g6
(dp118
g8
(lp119
(lp120
F0.09
aF0.05
aF-0.105
aa(lp121
F0.09
aF-0.05
aF-0.105
aa(lp122
F-0.09
aF-0.05
aF-0.105
aa(lp123
F-0.09
aF0.05
aF-0.105
aasg14
(lp124
(lp125
F4.1359030627651384e-24
aF-2.895132143935597e-24
aF1.0
aa(lp126
F4.1359030627651384e-24
aF-2.895132143935597e-24
aF1.0
aa(lp127
F4.1359030627651384e-24
aF-2.895132143935597e-24
aF1.0
aa(lp128
F4.1359030627651384e-24
aF-2.895132143935597e-24
aF1.0
aassg20
(dp129
g8
(lp130
(lp131
F0.09
aF0.05
aF-0.105
aa(lp132
F0.09
aF-0.05
aF-0.105
aa(lp133
F-0.09
aF-0.05
aF-0.105
aa(lp134
F-0.09
aF0.05
aF-0.105
aasg14
(lp135
(lp136
F-1.3552527156068805e-20
aF-1.746591863405718e-21
aF1.0
aa(lp137
F-1.3552527156068805e-20
aF-1.746591863405718e-21
aF1.0
aa(lp138
F-1.3552527156068805e-20
aF-1.746591863405718e-21
aF1.0
aa(lp139
F-1.3552527156068805e-20
aF-1.746591863405718e-21
aF1.0
aasssg14
(lp140
g125
ag126
ag127
ag128
ag136
ag137
ag138
ag139
asg8
(lp141
g120
ag121
ag122
ag123
ag131
ag132
ag133
ag134
asa(dp142
g2
(lp143
F0.0
aF0.0
aF0.30085746608739133
aF-0.11597393527182197
aF-0.19414262742554989
aF-0.1264986522642242
aF-0.9658451105271519
aF0.5365789796792464
aF0.8085145820882215
aF0.7274678370807424
aF0.34886504776095884
aF0.3396855091471207
aF0.9347057932000256
aF0.39075654720731845
aF-0.5093431587687078
aF-0.6615361423300747
aF-0.2913419914904245
aF0.17
aF-1.220458338308599
aF-0.2061309470166386
aF-0.9759984764983404
aF-1.871977777577053
aF1.1273771279543066
aF0.9532495262730631
aF0.16798065321658767
aF-0.523599
aF0.610865
aF0.44746912511487613
aF0.15032003915014894
aF-1.1555522713701123
aF-0.6029955659124168
aF-0.057280788504256525
aF-0.610865
aF-2.18166
aF2.273511947192334
aF-0.48072891558248054
aF0.31285820971561573
asg4
(dp144
g6
(dp145
g8
(lp146
(lp147
F0.09
aF0.05
aF-0.105
aa(lp148
F0.09
aF-0.05
aF-0.105
aa(lp149
F-0.09
aF-0.05
aF-0.105
aa(lp150
F-0.09
aF0.05
aF-0.105
aasg14
(lp151
(lp152
F0.0
aF0.0
aF1.0
aa(lp153
F0.0
aF0.0
aF1.0
aa(lp154
F0.0
aF0.0
aF1.0
aa(lp155
F0.0
aF0.0
aF1.0
aassg20
(dp156
g8
(lp157
(lp158
F0.09
aF0.05
aF-0.105
aa(lp159
F0.09
aF-0.05
aF-0.105
aa(lp160
F-0.09
aF-0.05
aF-0.105
aa(lp161
F-0.09
aF0.05
aF-0.105
aasg14
(lp162
(lp163
F0.0
aF6.776263578034403e-21
aF1.0
aa(lp164
F0.0
aF6.776263578034403e-21
aF1.0
aa(lp165
F0.0
aF6.776263578034403e-21
aF1.0
aa(lp166
F0.0
aF6.776263578034403e-21
aF1.0
aasssg14
(lp167
g152
ag153
ag154
ag155
ag163
ag164
ag165
ag166
asg8
(lp168
g147
ag148
ag149
ag150
ag158
ag159
ag160
ag161
asa(dp169
g2
(lp170
F0.0
aF0.0
aF0.630439444849988
aF-0.007889728409656217
aF-0.00275007597439737
aF-0.6137633075426592
aF0.7894458762841517
aF-0.7496283042618773
aF0.3902334155860331
aF-0.34432891751779565
aF0.28770659277772426
aF-0.3775779277811977
aF0.14789016036130737
aF0.4307226998712974
aF-0.509187470657164
aF-1.4421458043501925
aF-0.15881508648792053
aF0.17
aF-0.4801745445342198
aF-1.1755772255229329
aF0.49089842513836834
aF-1.7189166179494981
aF-1.2422048162695507
aF-0.3840760112070367
aF0.17198951014177385
aF0.785398
aF-0.21117038330582896
aF-0.447078028390922
aF0.9687692647498987
aF-0.5181030824797024
aF0.2275100430778377
aF-0.38047856668274427
aF0.33121129190183735
aF-0.41173130335765246
aF-0.015219160474478851
aF0.4442705919922397
aF-0.32794240784360795
asg4
(dp171
g6
(dp172
g8
(lp173
(lp174
F0.09
aF0.05
aF-0.105
aa(lp175
F0.09
aF-0.05
aF-0.105
aa(lp176
F-0.09
aF-0.05
aF-0.105
aa(lp177
F-0.09
aF0.05
aF-0.105
aasg14
(lp178
(lp179
F2.117582368135751e-22
aF-3.705769144237564e-22
aF0.9999999999999999
aa(lp180
F2.117582368135751e-22
aF-3.705769144237564e-22
aF0.9999999999999999
aa(lp181
F2.117582368135751e-22
aF-3.705769144237564e-22
aF0.9999999999999999
aa(lp182
F2.117582368135751e-22
aF-3.705769144237564e-22
aF0.9999999999999999
aassg20
(dp183
g8
(lp184
(lp185
F0.09
aF0.05
aF-0.105
aa(lp186
F0.09
aF-0.05
aF-0.105
aa(lp187
F-0.09
aF-0.05
aF-0.105
aa(lp188
F-0.09
aF0.05
aF-0.105
aasg14
(lp189
(lp190
F-1.0339757656912846e-25
aF-5.169878828456423e-26
aF1.0
aa(lp191
F-1.0339757656912846e-25
aF-5.169878828456423e-26
aF1.0
aa(lp192
F-1.0339757656912846e-25
aF-5.169878828456423e-26
aF1.0
aa(lp193
F-1.0339757656912846e-25
aF-5.169878828456423e-26
aF1.0
aasssg14
(lp194
g179
ag180
ag181
ag182
ag190
ag191
ag192
ag193
asg8
(lp195
g174
ag175
ag176
ag177
ag185
ag186
ag187
ag188
asa(dp196
g2
(lp197
F0.0
aF0.0
aF0.5773270028554566
aF-0.08287535489025603
aF-0.19652576527613336
aF0.6744397180136665
aF-0.7068524357318791
aF0.7792308045973949
aF0.9569631564641398
aF-0.4135122096963889
aF-0.4134571604899923
aF-2.761356132022755
aF1.6293457721093223
aF0.37180724523081765
aF-0.6108388329210539
aF0.20792602563035945
aF0.9465077705781011
aF0.17
aF-1.8341128114198346
aF-1.445076037660881
aF-0.7793677649285959
aF-0.4053869529366543
aF0.7110740102583424
aF0.49638929549189714
aF0.1657989060230548
aF0.16445432707820407
aF0.610865
aF-0.7682563313634243
aF0.8731969677087477
aF-0.5813593145354945
aF-0.471410845921251
aF0.523599
aF-0.610865
aF-0.8391591338416008
aF0.7099684530352309
aF-0.3546320773611679
aF0.4856486049367425
asg4
(dp198
g6
(dp199
g8
(lp200
(lp201
F0.09
aF0.05
aF-0.105
aa(lp202
F0.09
aF-0.05
aF-0.105
aa(lp203
F-0.09
aF-0.05
aF-0.105
aa(lp204
F-0.09
aF0.05
aF-0.105
aasg14
(lp205
(lp206
F-6.776263578034403e-21
aF0.0
aF0.9999999999999999
aa(lp207
F-6.776263578034403e-21
aF0.0
aF0.9999999999999999
aa(lp208
F-6.776263578034403e-21
aF0.0
aF0.9999999999999999
aa(lp209
F-6.776263578034403e-21
aF0.0
aF0.9999999999999999
aassg20
(dp210
g8
(lp211
(lp212
F0.09
aF0.05
aF-0.105
aa(lp213
F0.09
aF-0.05
aF-0.105
aa(lp214
F-0.09
aF-0.05
aF-0.105
aa(lp215
F-0.09
aF0.05
aF-0.105
aasg14
(lp216
(lp217
F-2.541098841762901e-21
aF-6.776263578034403e-21
aF1.0
aa(lp218
F-2.541098841762901e-21
aF-6.776263578034403e-21
aF1.0
aa(lp219
F-2.541098841762901e-21
aF-6.776263578034403e-21
aF1.0
aa(lp220
F-2.541098841762901e-21
aF-6.776263578034403e-21
aF1.0
aasssg14
(lp221
g206
ag207
ag208
ag209
ag217
ag218
ag219
ag220
asg8
(lp222
g201
ag202
ag203
ag204
ag212
ag213
ag214
ag215
asa(dp223
g2
(lp224
F0.0
aF0.0
aF0.42470219600730497
aF0.17820160824882383
aF-0.16129388445047646
aF0.896880773640293
aF0.37125913797615634
aF-0.5189122652853272
aF0.20171683545241006
aF-0.22595162409135217
aF0.2002985195760707
aF-0.4891777047617487
aF1.200132523669197
aF-1.2214074909311288
aF-1.1520832996100048
aF0.3178318182799649
aF0.007462748524249774
aF0.17
aF-2.6672236136178453
aF-1.4152668324480662
aF0.8309299413638331
aF-0.5065601572378682
aF1.0706112236359677
aF0.4042726603502278
aF0.17004252780463663
aF-0.3072118063555138
aF0.3427665940407391
aF-0.9022289794654189
aF1.7218776249730054
aF-0.31217961883295914
aF-0.28531793423304347
aF-0.1860641740258374
aF0.349066
aF-0.07676570537429588
aF1.8796926312345617
aF-1.309
aF-0.23613338596872394
asg4
(dp225
g6
(dp226
g8
(lp227
(lp228
F0.09
aF0.05
aF-0.105
aa(lp229
F0.09
aF-0.05
aF-0.105
aa(lp230
F-0.09
aF-0.05
aF-0.105
aa(lp231
F-0.09
aF0.05
aF-0.105
aasg14
(lp232
(lp233
F-3.2311742677852644e-27
aF-1.2924697071141057e-26
aF1.0
aa(lp234
F-3.2311742677852644e-27
aF-1.2924697071141057e-26
aF1.0
aa(lp235
F-3.2311742677852644e-27
aF-1.2924697071141057e-26
aF1.0
aa(lp236
F-3.2311742677852644e-27
aF-1.2924697071141057e-26
aF1.0
aassg20
(dp237
g8
(lp238
(lp239
F0.09
aF0.05
aF-0.105
aa(lp240
F0.09
aF-0.05
aF-0.105
aa(lp241
F-0.09
aF-0.05
aF-0.105
aa(lp242
F-0.09
aF0.05
aF-0.105
aasg14
(lp243
(lp244
F-2.710505431213761e-20
aF0.0
aF1.0
aa(lp245
F-2.710505431213761e-20
aF0.0
aF1.0
aa(lp246
F-2.710505431213761e-20
aF0.0
aF1.0
aa(lp247
F-2.710505431213761e-20
aF0.0
aF1.0
aasssg14
(lp248
g233
ag234
ag235
ag236
ag244
ag245
ag246
ag247
asg8
(lp249
g228
ag229
ag230
ag231
ag239
ag240
ag241
ag242
asa(dp250
g2
(lp251
F0.0
aF0.0
aF0.5119464878638516
aF-0.07694828732313809
aF0.25825178011166106
aF0.9252983100874834
aF0.2668483024050211
aF0.6311518981561363
aF0.6371611638553345
aF-0.7472135214805751
aF0.2406387136534074
aF-1.1017215012626265
aF0.04594860071699397
aF-0.2292332907774175
aF-1.8083044285482548
aF-1.2911226213173115
aF0.7322817339584147
aF0.17
aF0.008957225450466844
aF-1.1714781287955396
aF1.3828764395191226
aF-2.140304403194106
aF0.060560044170385297
aF0.4671229885096768
aF0.16574152797960748
aF0.1902261834766631
aF-0.349066
aF-1.0130469581510793
aF1.4648968253924852
aF-0.6482126002631277
aF-0.16123055536653635
aF-0.785398
aF0.2792766724495818
aF-1.7283919044019624
aF1.5923300139741914
aF-0.4339109152384051
aF-0.349066
asg4
(dp252
g6
(dp253
g8
(lp254
(lp255
F0.09
aF0.05
aF-0.105
aa(lp256
F0.09
aF-0.05
aF-0.105
aa(lp257
F-0.09
aF-0.05
aF-0.105
aa(lp258
F-0.09
aF0.05
aF-0.105
aasg14
(lp259
(lp260
F5.293955920339377e-23
aF-3.3881317890172014e-21
aF1.0
aa(lp261
F5.293955920339377e-23
aF-3.3881317890172014e-21
aF1.0
aa(lp262
F5.293955920339377e-23
aF-3.3881317890172014e-21
aF1.0
aa(lp263
F5.293955920339377e-23
aF-3.3881317890172014e-21
aF1.0
aassg20
(dp264
g8
(lp265
(lp266
F0.09
aF0.05
aF-0.105
aa(lp267
F0.09
aF-0.05
aF-0.105
aa(lp268
F-0.09
aF-0.05
aF-0.105
aa(lp269
F-0.09
aF0.05
aF-0.105
aasg14
(lp270
(lp271
F3.705769144237564e-20
aF1.3552527156068805e-20
aF1.0
aa(lp272
F3.705769144237564e-20
aF1.3552527156068805e-20
aF1.0
aa(lp273
F3.705769144237564e-20
aF1.3552527156068805e-20
aF1.0
aa(lp274
F3.705769144237564e-20
aF1.3552527156068805e-20
aF1.0
aasssg14
(lp275
g260
ag261
ag262
ag263
ag271
ag272
ag273
ag274
asg8
(lp276
g255
ag256
ag257
ag258
ag266
ag267
ag268
ag269
asa.