(lp0
(dp1
S'q'
p2
(lp3
I0
aI0
aF0.5
acnumpy.core.multiarray
scalar
p4
(cnumpy
dtype
p5
(S'f8'
p6
I0
I1
tp7
Rp8
(I3
S'<'
p9
NNNI-1
I-1
I0
tp10
bS'\x07y[\x0f\xfa\xb6\xbe?'
p11
tp12
Rp13
ag4
(g8
S'\x162\x946\x02\xf9\xad?'
p14
tp15
Rp16
ag4
(g8
S'\x8d\x87\xce\xf5\x89\x07}\xbf'
p17
tp18
Rp19
ag4
(g8
S'\x82\xde\x02\x0ew\xb6\xef?'
p20
tp21
Rp22
aF0.15138907645889144
aF0.3211587405900267
aF0.28800158509873386
aF-0.39862030071022797
aF-1.142594297144275
aF0.8461975130542807
aF-0.716933232118391
aF-1.3752892242201837
aF1.460833427947356
aF-0.17173318529149206
aF0.17
aF-1.7307415230151877
aF-0.5012923214099216
aF-0.13113843087220478
aF-1.0648664713505007
aF-0.37543613542408516
aF-0.12425520351825048
aF0.1683436040782107
aF0.0715783510439375
aF0.10958815454083037
aF-1.3491425861398283
aF0.8777987481470152
aF-0.38690251132945375
aF-0.48568610580169924
aF-0.622389873622945
aF0.32797132591569067
aF-0.40233126109996586
aF0.23739109433926298
aF0.5381614663937087
aF0.0025525110049371413
asS'contact_points'
p23
(dp24
S'RARM_JOINT5'
p25
(dp26
S'P'
p27
(lp28
(lp29
F0.004999999999999982
aF-0.045
aF0.06499999999999996
aa(lp30
F0.004999999999999992
aF-0.04499999999999999
aF0.10499999999999995
aa(lp31
F-0.02500000000000001
aF-0.044999999999999984
aF0.10499999999999997
aa(lp32
F-0.025000000000000015
aF-0.04499999999999999
aF0.06499999999999997
aasS'N'
p33
(lp34
(lp35
F-1.7763568394002505e-15
aF0.9999999999999973
aF1.27675647831893e-15
aa(lp36
F-1.7763568394002505e-15
aF0.9999999999999973
aF1.27675647831893e-15
aa(lp37
F-1.7763568394002505e-15
aF0.9999999999999973
aF1.27675647831893e-15
aa(lp38
F-1.7763568394002505e-15
aF0.9999999999999973
aF1.27675647831893e-15
aassS'LARM_JOINT5'
p39
(dp40
g27
(lp41
(lp42
F0.02499999999999998
aF-0.045
aF0.06499999999999996
aa(lp43
F0.024999999999999988
aF-0.04499999999999999
aF0.10499999999999995
aa(lp44
F-0.00500000000000001
aF-0.044999999999999984
aF0.10499999999999997
aa(lp45
F-0.00500000000000002
aF-0.04499999999999999
aF0.06499999999999997
aasg33
(lp46
(lp47
F-4.440892098500626e-16
aF0.9999999999999978
aF2.609024107869118e-15
aa(lp48
F-4.440892098500626e-16
aF0.9999999999999978
aF2.609024107869118e-15
aa(lp49
F-4.440892098500626e-16
aF0.9999999999999978
aF2.609024107869118e-15
aa(lp50
F-4.440892098500626e-16
aF0.9999999999999978
aF2.609024107869118e-15
aasssg33
(lp51
g47
ag48
ag49
ag50
ag35
ag36
ag37
ag38
asg27
(lp52
g42
ag43
ag44
ag45
ag29
ag30
ag31
ag32
asa(dp53
g2
(lp54
I0
aI0
aF0.5
ag4
(g8
S'x\x1a\x1b\xab\xdb\xab\xd4?'
p55
tp56
Rp57
ag4
(g8
S'\x1e\xa9\xee\xb4UT\xd7?'
p58
tp59
Rp60
ag4
(g8
S'\x00\xda\x16\x94=x\xc1\xbf'
p61
tp62
Rp63
ag4
(g8
S'\xe2~\x8f\n\xdf\x9a\xeb?'
p64
tp65
Rp66
aF0.7013245155444567
aF0.5897292099742067
aF-0.4269297653034999
aF0.22084241201193522
aF-0.77231972919818
aF-0.06684907163937485
aF1.2229776793457001
aF-0.3322704670906287
aF0.643049029757431
aF-1.3997071449684944
aF0.17
aF-2.665095598467181
aF-0.9963845172218264
aF-0.3791688783736289
aF-0.7641181167736735
aF1.1719583286027697
aF0.490728166554695
aF0.17238502242014977
aF0.3198769833082753
aF0.41091346094917347
aF-1.0356137123246527
aF1.436752476120596
aF-0.8702891748497827
aF-0.05183788899786157
aF-0.6405721907023728
aF-0.5928399922812343
aF0.3786274548139339
aF1.7722062589346617
aF-0.4286325616973725
aF0.5557594246224912
asg23
(dp67
g25
(dp68
g27
(lp69
(lp70
F0.004999999999999982
aF-0.045
aF0.06499999999999996
aa(lp71
F0.004999999999999992
aF-0.04499999999999999
aF0.10499999999999995
aa(lp72
F-0.02500000000000001
aF-0.044999999999999984
aF0.10499999999999997
aa(lp73
F-0.025000000000000015
aF-0.04499999999999999
aF0.06499999999999997
aasg33
(lp74
(lp75
F5.551115123125783e-16
aF0.9999999999999988
aF-1.1102230246251565e-16
aa(lp76
F5.551115123125783e-16
aF0.9999999999999988
aF-1.1102230246251565e-16
aa(lp77
F5.551115123125783e-16
aF0.9999999999999988
aF-1.1102230246251565e-16
aa(lp78
F5.551115123125783e-16
aF0.9999999999999988
aF-1.1102230246251565e-16
aassg39
(dp79
g27
(lp80
(lp81
F0.02499999999999998
aF-0.045
aF0.06499999999999996
aa(lp82
F0.024999999999999988
aF-0.04499999999999999
aF0.10499999999999995
aa(lp83
F-0.00500000000000001
aF-0.044999999999999984
aF0.10499999999999997
aa(lp84
F-0.00500000000000002
aF-0.04499999999999999
aF0.06499999999999997
aasg33
(lp85
(lp86
F5.551115123125783e-17
aF0.9999999999999968
aF8.881784197001252e-16
aa(lp87
F5.551115123125783e-17
aF0.9999999999999968
aF8.881784197001252e-16
aa(lp88
F5.551115123125783e-17
aF0.9999999999999968
aF8.881784197001252e-16
aa(lp89
F5.551115123125783e-17
aF0.9999999999999968
aF8.881784197001252e-16
aasssg33
(lp90
g86
ag87
ag88
ag89
ag75
ag76
ag77
ag78
asg27
(lp91
g81
ag82
ag83
ag84
ag70
ag71
ag72
ag73
asa.