(lp0
(dp1
S'q'
p2
(lp3
F0.0
aF0.0
aF0.35258541653859415
aF0.058229587960871784
aF-0.14865456654691417
aF-0.9341333259406541
aF-0.31922729253262105
aF0.7780985940141492
aF0.005288159448313359
aF0.5338141521269755
aF-0.10988016545814794
aF-2.3630713460473256
aF-0.10641003714548006
aF0.07871430362705811
aF-1.8327290694579474
aF-0.16374730506997892
aF0.02583091053326192
aF0.17
aF-0.21348043691073126
aF-0.32097099006168683
aF0.7076300831594178
aF-1.8535765700046105
aF-1.338676428597875
aF-1.1435853314855533
aF0.17472544815378516
aF0.6120207354273209
aF0.010721513385773493
aF-1.5854475493039988
aF1.8801979178529322
aF-0.3249051849991898
aF-0.3300312292876524
aF-0.785398
aF0.14343858322153144
aF-1.8839854680111958
aF2.271108981031511
aF-0.7110662171655919
aF-0.1621395254872681
asS'contact_points'
p4
(dp5
S'LLEG_JOINT5'
p6
(dp7
S'P'
p8
(lp9
(lp10
F0.09
aF0.05
aF-0.105
aa(lp11
F0.09
aF-0.05
aF-0.105
aa(lp12
F-0.09
aF-0.05
aF-0.105
aa(lp13
F-0.09
aF0.05
aF-0.105
aasS'N'
p14
(lp15
(lp16
F3.3306690738754696e-16
aF7.216449660063518e-16
aF0.9999999999999983
aa(lp17
F3.3306690738754696e-16
aF7.216449660063518e-16
aF0.9999999999999983
aa(lp18
F3.3306690738754696e-16
aF7.216449660063518e-16
aF0.9999999999999983
aa(lp19
F3.3306690738754696e-16
aF7.216449660063518e-16
aF0.9999999999999983
aassS'RLEG_JOINT5'
p20
(dp21
g8
(lp22
(lp23
F0.09
aF0.05
aF-0.105
aa(lp24
F0.09
aF-0.05
aF-0.105
aa(lp25
F-0.09
aF-0.05
aF-0.105
aa(lp26
F-0.09
aF0.05
aF-0.105
aasg14
(lp27
(lp28
F0.0
aF-5.551115123125783e-17
aF1.0
aa(lp29
F0.0
aF-5.551115123125783e-17
aF1.0
aa(lp30
F0.0
aF-5.551115123125783e-17
aF1.0
aa(lp31
F0.0
aF-5.551115123125783e-17
aF1.0
aasssg14
(lp32
g16
ag17
ag18
ag19
ag28
ag29
ag30
ag31
asg8
(lp33
g10
ag11
ag12
ag13
ag23
ag24
ag25
ag26
asa(dp34
g2
(lp35
F0.0
aF0.0
aF0.4334746477276742
aF-0.021751691293620378
aF-0.04222950278842698
aF-0.6134833348794914
aF-0.7882776990662917
aF-0.0931547305094714
aF0.16489278198079657
aF-0.770417849983193
aF-0.393292635036046
aF-1.4212585363159878
aF-0.004660423772273298
aF-0.31084606610683063
aF-1.041493673574659
aF1.2934105163654828
aF-0.6661140050849943
aF0.17
aF-0.2504219800417089
aF-0.6845965489108057
aF0.8821377544948075
aF-1.5099698949248217
aF1.1555591533609009
aF1.5001320589338578
aF0.16842976086001366
aF0.1914843969138733
aF-0.02971123946109936
aF-1.281786832140119
aF1.8773383734392237
aF-0.61837008433393
aF-0.06255191165195792
aF-0.5835430536596774
aF-0.1347518153034735
aF-1.2961174160003917
aF0.4818852035234362
aF0.733038
aF0.0844108349699168
asg4
(dp36
g6
(dp37
g8
(lp38
(lp39
F0.09
aF0.05
aF-0.105
aa(lp40
F0.09
aF-0.05
aF-0.105
aa(lp41
F-0.09
aF-0.05
aF-0.105
aa(lp42
F-0.09
aF0.05
aF-0.105
aasg14
(lp43
(lp44
F-1.6653345369377348e-16
aF-6.106226635438361e-16
aF1.0000000000000004
aa(lp45
F-1.6653345369377348e-16
aF-6.106226635438361e-16
aF1.0000000000000004
aa(lp46
F-1.6653345369377348e-16
aF-6.106226635438361e-16
aF1.0000000000000004
aa(lp47
F-1.6653345369377348e-16
aF-6.106226635438361e-16
aF1.0000000000000004
aassg20
(dp48
g8
(lp49
(lp50
F0.09
aF0.05
aF-0.105
aa(lp51
F0.09
aF-0.05
aF-0.105
aa(lp52
F-0.09
aF-0.05
aF-0.105
aa(lp53
F-0.09
aF0.05
aF-0.105
aasg14
(lp54
(lp55
F-1.1102230246251565e-16
aF0.0
aF0.9999999999999999
aa(lp56
F-1.1102230246251565e-16
aF0.0
aF0.9999999999999999
aa(lp57
F-1.1102230246251565e-16
aF0.0
aF0.9999999999999999
aa(lp58
F-1.1102230246251565e-16
aF0.0
aF0.9999999999999999
aasssg14
(lp59
g44
ag45
ag46
ag47
ag55
ag56
ag57
ag58
asg8
(lp60
g39
ag40
ag41
ag42
ag50
ag51
ag52
ag53
asa(dp61
g2
(lp62
F0.0
aF0.0
aF0.429021147187822
aF0.31931853782183345
aF-0.345699014784569
aF-0.5311832366734172
aF-0.7045368916227573
aF-0.08805236589174453
aF0.26654786817890086
aF0.5009185002620371
aF0.7707279878636771
aF-0.9014532553531334
aF0.5377460713157278
aF1.0481294385031001
aF-0.3363388100317142
aF1.5155321828331016
aF0.0755998828837181
aF0.17
aF-1.7699361081215021
aF-1.4216920957984787
aF-1.05944159328851
aF-1.1997133962260615
aF0.11503013217613578
aF-1.0525608229172698
aF0.17258597593176456
aF0.785398
aF-0.349066
aF-2.011897012849976
aF0.7330674576556016
aF0.5384058009413847
aF-0.3084818431550369
aF-0.6866253241256224
aF0.349066
aF-1.918329208522795
aF0.7743473549466465
aF0.46332415777006547
aF0.3701939142171908
asg4
(dp63
g6
(dp64
g8
(lp65
(lp66
F0.09
aF0.05
aF-0.105
aa(lp67
F0.09
aF-0.05
aF-0.105
aa(lp68
F-0.09
aF-0.05
aF-0.105
aa(lp69
F-0.09
aF0.05
aF-0.105
aasg14
(lp70
(lp71
F4.996003610813204e-16
aF1.5959455978986625e-16
aF0.999999999999999
aa(lp72
F4.996003610813204e-16
aF1.5959455978986625e-16
aF0.999999999999999
aa(lp73
F4.996003610813204e-16
aF1.5959455978986625e-16
aF0.999999999999999
aa(lp74
F4.996003610813204e-16
aF1.5959455978986625e-16
aF0.999999999999999
aassg20
(dp75
g8
(lp76
(lp77
F0.09
aF0.05
aF-0.105
aa(lp78
F0.09
aF-0.05
aF-0.105
aa(lp79
F-0.09
aF-0.05
aF-0.105
aa(lp80
F-0.09
aF0.05
aF-0.105
aasg14
(lp81
(lp82
F4.163336342344337e-16
aF9.992007221626409e-16
aF0.9999999999999978
aa(lp83
F4.163336342344337e-16
aF9.992007221626409e-16
aF0.9999999999999978
aa(lp84
F4.163336342344337e-16
aF9.992007221626409e-16
aF0.9999999999999978
aa(lp85
F4.163336342344337e-16
aF9.992007221626409e-16
aF0.9999999999999978
aasssg14
(lp86
g71
ag72
ag73
ag74
ag82
ag83
ag84
ag85
asg8
(lp87
g66
ag67
ag68
ag69
ag77
ag78
ag79
ag80
asa(dp88
g2
(lp89
F0.0
aF0.0
aF0.5036651237069514
aF-0.3311398915379656
aF-0.08315487902201439
aF0.7381408571688806
aF0.5818760291548785
aF0.6740458630213104
aF0.9282889822107311
aF0.7596447340358452
aF0.09204920668170757
aF-1.6294034000092108
aF0.10689772017487081
aF-0.14413674574989677
aF-0.21522180206569885
aF-0.5493190587135122
aF-0.15844371870986373
aF0.17
aF-1.5890583508238234
aF-0.2747168942307474
aF-0.5497533105938943
aF-1.0494040675198748
aF1.5339981904775362
aF-0.8511403723406793
aF0.1666741651537242
aF0.785398
aF-0.349066
aF-2.0191197054043113
aF1.513469454929
aF-0.2376441898161158
aF0.34627777880993216
aF-0.0725500025319992
aF0.23117374119054054
aF-1.335659623451792
aF0.7716267796113223
aF0.17701238117271714
aF0.3525237169524197
asg4
(dp90
g6
(dp91
g8
(lp92
(lp93
F0.09
aF0.05
aF-0.105
aa(lp94
F0.09
aF-0.05
aF-0.105
aa(lp95
F-0.09
aF-0.05
aF-0.105
aa(lp96
F-0.09
aF0.05
aF-0.105
aasg14
(lp97
(lp98
F-5.551115123125783e-17
aF4.163336342344337e-17
aF0.9999999999999999
aa(lp99
F-5.551115123125783e-17
aF4.163336342344337e-17
aF0.9999999999999999
aa(lp100
F-5.551115123125783e-17
aF4.163336342344337e-17
aF0.9999999999999999
aa(lp101
F-5.551115123125783e-17
aF4.163336342344337e-17
aF0.9999999999999999
aassg20
(dp102
g8
(lp103
(lp104
F0.09
aF0.05
aF-0.105
aa(lp105
F0.09
aF-0.05
aF-0.105
aa(lp106
F-0.09
aF-0.05
aF-0.105
aa(lp107
F-0.09
aF0.05
aF-0.105
aasg14
(lp108
(lp109
F0.0
aF-1.6653345369377348e-16
aF1.0
aa(lp110
F0.0
aF-1.6653345369377348e-16
aF1.0
aa(lp111
F0.0
aF-1.6653345369377348e-16
aF1.0
aa(lp112
F0.0
aF-1.6653345369377348e-16
aF1.0
aasssg14
(lp113
g98
ag99
ag100
ag101
ag109
ag110
ag111
ag112
asg8
(lp114
g93
ag94
ag95
ag96
ag104
ag105
ag106
ag107
asa(dp115
g2
(lp116
F0.0
aF0.0
aF0.6601877242437342
aF-0.1994686484323467
aF-0.21941453911444414
aF-0.21214954576740847
aF0.9311616876506739
aF-0.652771420768472
aF0.9820358140553104
aF0.14548964913717832
aF-0.43451863702395915
aF-1.163358627662262
aF0.7527293306131142
aF-1.3595839547702502
aF-0.3507957707880287
aF0.4167506661447
aF-1.0234692757469457
aF0.17
aF-1.9627851770545983
aF-0.14422983710087256
aF0.2520097897157585
aF-1.7996935183096048
aF-0.20155003884353206
aF1.5332783528637968
aF0.1650849270727881
aF0.785398
aF0.23225173825721487
aF-0.2910229412271405
aF0.20072615427024643
aF0.2526173448399198
aF0.3482946511847231
aF-0.4286157020658782
aF0.24053815958808042
aF0.403691245094436
aF0.5773438470696473
aF-0.373616334606548
aF-0.1500877442223845
asg4
(dp117
g6
(dp118
g8
(lp119
(lp120
F0.09
aF0.05
aF-0.105
aa(lp121
F0.09
aF-0.05
aF-0.105
aa(lp122
F-0.09
aF-0.05
aF-0.105
aa(lp123
F-0.09
aF0.05
aF-0.105
aasg14
(lp124
(lp125
F-1.0547118733938987e-15
aF1.1102230246251565e-16
aF0.9999999999999993
aa(lp126
F-1.0547118733938987e-15
aF1.1102230246251565e-16
aF0.9999999999999993
aa(lp127
F-1.0547118733938987e-15
aF1.1102230246251565e-16
aF0.9999999999999993
aa(lp128
F-1.0547118733938987e-15
aF1.1102230246251565e-16
aF0.9999999999999993
aassg20
(dp129
g8
(lp130
(lp131
F0.09
aF0.05
aF-0.105
aa(lp132
F0.09
aF-0.05
aF-0.105
aa(lp133
F-0.09
aF-0.05
aF-0.105
aa(lp134
F-0.09
aF0.05
aF-0.105
aasg14
(lp135
(lp136
F6.661338147750939e-16
aF2.498001805406602e-16
aF1.0000000000000004
aa(lp137
F6.661338147750939e-16
aF2.498001805406602e-16
aF1.0000000000000004
aa(lp138
F6.661338147750939e-16
aF2.498001805406602e-16
aF1.0000000000000004
aa(lp139
F6.661338147750939e-16
aF2.498001805406602e-16
aF1.0000000000000004
aasssg14
(lp140
g125
ag126
ag127
ag128
ag136
ag137
ag138
ag139
asg8
(lp141
g120
ag121
ag122
ag123
ag131
ag132
ag133
ag134
asa(dp142
g2
(lp143
F0.0
aF0.0
aF0.6209978542962692
aF-0.2487670386361866
aF-0.0915965784745339
aF0.8374505955208227
aF-0.47791372376377683
aF-0.13192847523474252
aF0.6052924243599845
aF0.6290393805197931
aF0.2042018716834081
aF-1.7909062126865545
aF0.9931524983144386
aF-1.2110864557559538
aF-0.6482756262276128
aF1.0288018658683178
aF0.2644944636087838
aF0.17
aF-1.4837665748666302
aF-1.4090417648735032
aF1.2294849374999222
aF-1.5670169171200317
aF-0.8996812855116936
aF-1.012854702170079
aF0.173504787654851
aF0.0718348980599623
aF0.17340662086748437
aF-1.0197292683588777
aF0.8066799581437173
aF-0.3286322217234284
aF-0.2700977562352947
aF-0.008517826677324399
aF-0.5372149365801068
aF-1.0574829613598598
aF0.38034579685995634
aF0.10224036917657979
aF0.3801022271904739
asg4
(dp144
g6
(dp145
g8
(lp146
(lp147
F0.09
aF0.05
aF-0.105
aa(lp148
F0.09
aF-0.05
aF-0.105
aa(lp149
F-0.09
aF-0.05
aF-0.105
aa(lp150
F-0.09
aF0.05
aF-0.105
aasg14
(lp151
(lp152
F8.326672684688674e-17
aF-2.220446049250313e-16
aF0.9999999999999991
aa(lp153
F8.326672684688674e-17
aF-2.220446049250313e-16
aF0.9999999999999991
aa(lp154
F8.326672684688674e-17
aF-2.220446049250313e-16
aF0.9999999999999991
aa(lp155
F8.326672684688674e-17
aF-2.220446049250313e-16
aF0.9999999999999991
aassg20
(dp156
g8
(lp157
(lp158
F0.09
aF0.05
aF-0.105
aa(lp159
F0.09
aF-0.05
aF-0.105
aa(lp160
F-0.09
aF-0.05
aF-0.105
aa(lp161
F-0.09
aF0.05
aF-0.105
aasg14
(lp162
(lp163
F7.28583859910259e-17
aF-6.661338147750939e-16
aF0.9999999999999987
aa(lp164
F7.28583859910259e-17
aF-6.661338147750939e-16
aF0.9999999999999987
aa(lp165
F7.28583859910259e-17
aF-6.661338147750939e-16
aF0.9999999999999987
aa(lp166
F7.28583859910259e-17
aF-6.661338147750939e-16
aF0.9999999999999987
aasssg14
(lp167
g152
ag153
ag154
ag155
ag163
ag164
ag165
ag166
asg8
(lp168
g147
ag148
ag149
ag150
ag158
ag159
ag160
ag161
asa(dp169
g2
(lp170
F0.0
aF0.0
aF0.6129714026749031
aF0.2907946775426642
aF-0.362532152031917
aF-0.49172365121518097
aF-0.7363536820656064
aF-0.53928270115603
aF-0.04854611494010483
aF-0.18357985357784945
aF-0.2693502712292509
aF-1.9449343296738033
aF1.193696471192017
aF0.7130661566671759
aF-1.021530596143252
aF0.8084972106460466
aF-0.7527479229283742
aF0.17
aF-1.8238965157057512
aF-0.48208581286194807
aF0.6070862799428343
aF-0.7941739103916174
aF0.35020448267576487
aF0.7130969429746254
aF0.16882012035875588
aF-0.1236687333624511
aF-0.3194845227377899
aF-1.7290525983531506
aF0.49949946408263995
aF0.20126571796587933
aF0.3490383518727187
aF-0.17118078402482928
aF0.349066
aF-1.5717240101583645
aF1.072150987176729
aF-0.4205701442839928
aF0.003343017913357589
asg4
(dp171
g6
(dp172
g8
(lp173
(lp174
F0.09
aF0.05
aF-0.105
aa(lp175
F0.09
aF-0.05
aF-0.105
aa(lp176
F-0.09
aF-0.05
aF-0.105
aa(lp177
F-0.09
aF0.05
aF-0.105
aasg14
(lp178
(lp179
F-2.220446049250313e-16
aF-1.942890293094024e-16
aF1.0000000000000002
aa(lp180
F-2.220446049250313e-16
aF-1.942890293094024e-16
aF1.0000000000000002
aa(lp181
F-2.220446049250313e-16
aF-1.942890293094024e-16
aF1.0000000000000002
aa(lp182
F-2.220446049250313e-16
aF-1.942890293094024e-16
aF1.0000000000000002
aassg20
(dp183
g8
(lp184
(lp185
F0.09
aF0.05
aF-0.105
aa(lp186
F0.09
aF-0.05
aF-0.105
aa(lp187
F-0.09
aF-0.05
aF-0.105
aa(lp188
F-0.09
aF0.05
aF-0.105
aasg14
(lp189
(lp190
F6.661338147750939e-16
aF7.216449660063518e-16
aF0.9999999999999983
aa(lp191
F6.661338147750939e-16
aF7.216449660063518e-16
aF0.9999999999999983
aa(lp192
F6.661338147750939e-16
aF7.216449660063518e-16
aF0.9999999999999983
aa(lp193
F6.661338147750939e-16
aF7.216449660063518e-16
aF0.9999999999999983
aasssg14
(lp194
g179
ag180
ag181
ag182
ag190
ag191
ag192
ag193
asg8
(lp195
g174
ag175
ag176
ag177
ag185
ag186
ag187
ag188
asa(dp196
g2
(lp197
F0.0
aF0.0
aF0.6018264089333473
aF0.0318850297776886
aF-0.10636790556518008
aF0.6893029918929444
aF-0.7159124240500288
aF-0.7136743628074251
aF0.9937410105158121
aF-0.6389153789648103
aF-0.39714165314426353
aF-0.12404522339521229
aF0.7400070761587365
aF-0.040911873424710476
aF-1.8767303013877918
aF-0.7001727951783094
aF1.0126089022097686
aF0.17
aF-0.9527994011485204
aF-0.8477257869300175
aF1.3191755706399098
aF-0.5031045677916517
aF1.092906946537367
aF-0.34923920699448296
aF0.17279383761705544
aF-0.523599
aF-0.12653524074753134
aF0.4271695246203
aF0.270695611534199
aF-0.6953756145614081
aF0.349066
aF0.39996803443055357
aF0.2356184153748988
aF-0.8017541286033645
aF1.1193938275368924
aF-0.49404090724698996
aF-0.09663716475174558
asg4
(dp198
g6
(dp199
g8
(lp200
(lp201
F0.09
aF0.05
aF-0.105
aa(lp202
F0.09
aF-0.05
aF-0.105
aa(lp203
F-0.09
aF-0.05
aF-0.105
aa(lp204
F-0.09
aF0.05
aF-0.105
aasg14
(lp205
(lp206
F-2.914335439641036e-16
aF5.551115123125783e-16
aF1.0000000000000009
aa(lp207
F-2.914335439641036e-16
aF5.551115123125783e-16
aF1.0000000000000009
aa(lp208
F-2.914335439641036e-16
aF5.551115123125783e-16
aF1.0000000000000009
aa(lp209
F-2.914335439641036e-16
aF5.551115123125783e-16
aF1.0000000000000009
aassg20
(dp210
g8
(lp211
(lp212
F0.09
aF0.05
aF-0.105
aa(lp213
F0.09
aF-0.05
aF-0.105
aa(lp214
F-0.09
aF-0.05
aF-0.105
aa(lp215
F-0.09
aF0.05
aF-0.105
aasg14
(lp216
(lp217
F1.0408340855860843e-16
aF-3.608224830031759e-16
aF1.0
aa(lp218
F1.0408340855860843e-16
aF-3.608224830031759e-16
aF1.0
aa(lp219
F1.0408340855860843e-16
aF-3.608224830031759e-16
aF1.0
aa(lp220
F1.0408340855860843e-16
aF-3.608224830031759e-16
aF1.0
aasssg14
(lp221
g206
ag207
ag208
ag209
ag217
ag218
ag219
ag220
asg8
(lp222
g201
ag202
ag203
ag204
ag212
ag213
ag214
ag215
asa(dp223
g2
(lp224
F0.0
aF0.0
aF0.3653433071649855
aF-0.10720287918396293
aF-0.0012759846548272519
aF0.3820617564846272
aF-0.9178969053165562
aF0.26842942761668853
aF0.7245683828589806
aF-0.5952784222995549
aF-0.3211372737746892
aF-1.439942864652347
aF1.585279915653749
aF0.38328261514975814
aF-2.161694264663632
aF-0.8999886371509584
aF1.0119468283643236
aF0.17
aF-1.195206475590843
aF-0.4315407132874196
aF0.5304852947415715
aF-0.16730200021095198
aF-1.3690487920341774
aF-0.5977225094590441
aF0.1739193239011426
aF0.785398
aF0.41295401924241826
aF-1.2028495282365328
aF1.7003813823384881
aF-0.40106502509163383
aF-0.6107582692331661
aF-0.7502905365484405
aF-0.610865
aF-1.7586910654949748
aF1.7413197386911525
aF-0.2084389697468765
aF0.5122328615212052
asg4
(dp225
g6
(dp226
g8
(lp227
(lp228
F0.09
aF0.05
aF-0.105
aa(lp229
F0.09
aF-0.05
aF-0.105
aa(lp230
F-0.09
aF-0.05
aF-0.105
aa(lp231
F-0.09
aF0.05
aF-0.105
aasg14
(lp232
(lp233
F3.3306690738754696e-16
aF8.881784197001252e-16
aF1.0000000000000004
aa(lp234
F3.3306690738754696e-16
aF8.881784197001252e-16
aF1.0000000000000004
aa(lp235
F3.3306690738754696e-16
aF8.881784197001252e-16
aF1.0000000000000004
aa(lp236
F3.3306690738754696e-16
aF8.881784197001252e-16
aF1.0000000000000004
aassg20
(dp237
g8
(lp238
(lp239
F0.09
aF0.05
aF-0.105
aa(lp240
F0.09
aF-0.05
aF-0.105
aa(lp241
F-0.09
aF-0.05
aF-0.105
aa(lp242
F-0.09
aF0.05
aF-0.105
aasg14
(lp243
(lp244
F1.1102230246251565e-16
aF-3.3306690738754696e-16
aF1.0
aa(lp245
F1.1102230246251565e-16
aF-3.3306690738754696e-16
aF1.0
aa(lp246
F1.1102230246251565e-16
aF-3.3306690738754696e-16
aF1.0
aa(lp247
F1.1102230246251565e-16
aF-3.3306690738754696e-16
aF1.0
aasssg14
(lp248
g233
ag234
ag235
ag236
ag244
ag245
ag246
ag247
asg8
(lp249
g228
ag229
ag230
ag231
ag239
ag240
ag241
ag242
asa(dp250
g2
(lp251
F0.0
aF0.0
aF0.5254215187246755
aF-0.3004795542252913
aF0.04143693707568987
aF0.6012828801720252
aF-0.7392252131457565
aF-0.7513178565278109
aF0.9453590014573844
aF0.597669332457136
aF0.3079023052083917
aF-3.0374452843993134
aF0.1814180301649846
aF1.5216062433813258
aF-1.0819525417449087
aF-0.6568264160195955
aF0.03697611461434325
aF0.17
aF0.8019144861337377
aF-0.4153423383859671
aF0.06915833069815203
aF-2.2021689790987073
aF-1.4114716986125202
aF-0.8623679145034718
aF0.17142527495344415
aF0.7186260231301924
aF-0.07487348947905392
aF-0.35400000475546245
aF0.8799114061623372
aF-0.4103162513564279
aF-0.5314940713001505
aF-0.3253020850093968
aF-0.5347188119615858
aF-1.6540833387677145
aF1.506531681580998
aF-0.3127975036356682
aF0.09569228649859411
asg4
(dp252
g6
(dp253
g8
(lp254
(lp255
F0.09
aF0.05
aF-0.105
aa(lp256
F0.09
aF-0.05
aF-0.105
aa(lp257
F-0.09
aF-0.05
aF-0.105
aa(lp258
F-0.09
aF0.05
aF-0.105
aasg14
(lp259
(lp260
F-1.942890293094024e-16
aF-5.551115123125783e-16
aF0.9999999999999991
aa(lp261
F-1.942890293094024e-16
aF-5.551115123125783e-16
aF0.9999999999999991
aa(lp262
F-1.942890293094024e-16
aF-5.551115123125783e-16
aF0.9999999999999991
aa(lp263
F-1.942890293094024e-16
aF-5.551115123125783e-16
aF0.9999999999999991
aassg20
(dp264
g8
(lp265
(lp266
F0.09
aF0.05
aF-0.105
aa(lp267
F0.09
aF-0.05
aF-0.105
aa(lp268
F-0.09
aF-0.05
aF-0.105
aa(lp269
F-0.09
aF0.05
aF-0.105
aasg14
(lp270
(lp271
F2.7755575615628914e-17
aF-9.43689570931383e-16
aF0.9999999999999988
aa(lp272
F2.7755575615628914e-17
aF-9.43689570931383e-16
aF0.9999999999999988
aa(lp273
F2.7755575615628914e-17
aF-9.43689570931383e-16
aF0.9999999999999988
aa(lp274
F2.7755575615628914e-17
aF-9.43689570931383e-16
aF0.9999999999999988
aasssg14
(lp275
g260
ag261
ag262
ag263
ag271
ag272
ag273
ag274
asg8
(lp276
g255
ag256
ag257
ag258
ag266
ag267
ag268
ag269
asa.